ARM GAS  C:\Users\Cristina\AppData\Local\Temp\ccIl30V7.s 			page 1


   1              		.syntax unified
   2              		.cpu cortex-m3
   3              		.fpu softvfp
   4              		.eabi_attribute 20, 1
   5              		.eabi_attribute 21, 1
   6              		.eabi_attribute 23, 3
   7              		.eabi_attribute 24, 1
   8              		.eabi_attribute 25, 1
   9              		.eabi_attribute 26, 1
  10              		.eabi_attribute 30, 1
  11              		.eabi_attribute 34, 1
  12              		.eabi_attribute 18, 4
  13              		.thumb
  14              		.file	"main.c"
  15              		.text
  16              	.Ltext0:
  17              		.cfi_sections	.debug_frame
  18              		.section	.text.GPIOIsrHandler,"ax",%progbits
  19              		.align	2
  20              		.global	GPIOIsrHandler
  21              		.thumb
  22              		.thumb_func
  23              		.type	GPIOIsrHandler, %function
  24              	GPIOIsrHandler:
  25              	.LFB64:
  26              		.file 1 "main.c"
   1:main.c        **** /* ========================================
   2:main.c        ****  *
   3:main.c        ****  * Copyright YOUR COMPANY, THE YEAR
   4:main.c        ****  * All Rights Reserved
   5:main.c        ****  * UNPUBLISHED, LICENSED SOFTWARE.
   6:main.c        ****  *
   7:main.c        ****  * CONFIDENTIAL AND PROPRIETARY INFORMATION
   8:main.c        ****  * WHICH IS THE PROPERTY OF your company.
   9:main.c        ****  *
  10:main.c        ****  * ========================================
  11:main.c        **** */
  12:main.c        **** #include "project.h"
  13:main.c        **** 
  14:main.c        **** 
  15:main.c        **** 
  16:main.c        **** int flagInterrupcionPWM = 0;
  17:main.c        **** 
  18:main.c        **** CY_ISR_PROTO(GPIOIsrHandler);
  19:main.c        **** 
  20:main.c        **** CY_ISR_PROTO(UARTHandler);
  21:main.c        **** 
  22:main.c        **** int main(void)
  23:main.c        **** {
  24:main.c        ****     
  25:main.c        ****     //interrupcionDelPWM_Start();
  26:main.c        ****     //interrupcionDelPWM_SetVector(&interrupcionDelPWM_Interrupt);
  27:main.c        ****     
  28:main.c        ****     UART_isr_StartEx(UARTHandler);
  29:main.c        ****     UART_isr_SetPriority(0);
  30:main.c        ****     
  31:main.c        ****     isr_GPIO_StartEx(GPIOIsrHandler);
ARM GAS  C:\Users\Cristina\AppData\Local\Temp\ccIl30V7.s 			page 2


  32:main.c        ****     isr_GPIO_SetPriority(0);
  33:main.c        ****     
  34:main.c        ****     generadorPulsosPWM_Start();
  35:main.c        ****     Timer_1_Start();
  36:main.c        ****     
  37:main.c        ****     CyGlobalIntEnable; /* Enable global interrupts. */
  38:main.c        ****     
  39:main.c        ****     Pantalla_Start();
  40:main.c        ****     UART_Start();
  41:main.c        ****     Pantalla_ClearDisplay();
  42:main.c        ****     Pantalla_PrintString("Bienvenido");
  43:main.c        ****     
  44:main.c        ****     
  45:main.c        ****     generadorPulsosPWM_WriteCompare(90);
  46:main.c        ****     
  47:main.c        ****     ledSoftwareInterrupcionPWM_Write(1);
  48:main.c        ****     /* Place your initialization/startup code here (e.g. MyInst_Start()) */
  49:main.c        ****     for(;;)
  50:main.c        ****     {
  51:main.c        ****     }
  52:main.c        **** }
  53:main.c        **** 
  54:main.c        **** 
  55:main.c        **** 
  56:main.c        **** CY_ISR(GPIOIsrHandler)
  57:main.c        **** {
  27              		.loc 1 57 0
  28              		.cfi_startproc
  29              		@ args = 0, pretend = 0, frame = 0
  30              		@ frame_needed = 0, uses_anonymous_args = 0
  31 0000 08B5     		push	{r3, lr}
  32              		.cfi_def_cfa_offset 8
  33              		.cfi_offset 3, -8
  34              		.cfi_offset 14, -4
  58:main.c        ****     /* Clear pending Interrupt */
  59:main.c        ****     //isr_GPIO_ClearPending();
  60:main.c        ****    
  61:main.c        ****     /* Cause nested software interrupt after 1000 ms */
  62:main.c        ****     //CyDelay(1000u);
  63:main.c        ****     ledSoftwareInterrupcionPWM_Write(~ledSoftwareInterrupcionPWM_Read());
  35              		.loc 1 63 0
  36 0002 FFF7FEFF 		bl	ledSoftwareInterrupcionPWM_Read
  37              	.LVL0:
  38 0006 C043     		mvns	r0, r0
  39 0008 C0B2     		uxtb	r0, r0
  40 000a FFF7FEFF 		bl	ledSoftwareInterrupcionPWM_Write
  41              	.LVL1:
  42 000e 08BD     		pop	{r3, pc}
  43              		.cfi_endproc
  44              	.LFE64:
  45              		.size	GPIOIsrHandler, .-GPIOIsrHandler
  46              		.section	.text.UARTHandler,"ax",%progbits
  47              		.align	2
  48              		.global	UARTHandler
  49              		.thumb
  50              		.thumb_func
  51              		.type	UARTHandler, %function
ARM GAS  C:\Users\Cristina\AppData\Local\Temp\ccIl30V7.s 			page 3


  52              	UARTHandler:
  53              	.LFB65:
  64:main.c        **** }
  65:main.c        **** 
  66:main.c        **** CY_ISR(UARTHandler){
  54              		.loc 1 66 0
  55              		.cfi_startproc
  56              		@ args = 0, pretend = 0, frame = 0
  57              		@ frame_needed = 0, uses_anonymous_args = 0
  58 0000 10B5     		push	{r4, lr}
  59              		.cfi_def_cfa_offset 8
  60              		.cfi_offset 4, -8
  61              		.cfi_offset 14, -4
  67:main.c        ****     Pantalla_ClearDisplay();
  62              		.loc 1 67 0
  63 0002 0120     		movs	r0, #1
  64 0004 FFF7FEFF 		bl	Pantalla_WriteControl
  65              	.LVL2:
  68:main.c        ****     Pantalla_PrintString("Int");
  66              		.loc 1 68 0
  67 0008 1448     		ldr	r0, .L9
  68 000a FFF7FEFF 		bl	Pantalla_PrintString
  69              	.LVL3:
  69:main.c        ****     char pepito = UART_GetByte();
  70              		.loc 1 69 0
  71 000e FFF7FEFF 		bl	UART_GetByte
  72              	.LVL4:
  73 0012 C4B2     		uxtb	r4, r0
  74              	.LVL5:
  70:main.c        ****     if(pepito == 'd'){
  75              		.loc 1 70 0
  76 0014 642C     		cmp	r4, #100
  77 0016 06D1     		bne	.L4
  71:main.c        ****        UART_PutString("Divisor a 10");
  78              		.loc 1 71 0
  79 0018 1148     		ldr	r0, .L9+4
  80 001a FFF7FEFF 		bl	UART_PutString
  81              	.LVL6:
  72:main.c        ****         Clock_1_SetSource(CYCLK_SRC_SEL_IMO);
  82              		.loc 1 72 0
  83 001e 0120     		movs	r0, #1
  84 0020 FFF7FEFF 		bl	Clock_1_SetSourceRegister
  85              	.LVL7:
  86 0024 13E0     		b	.L5
  87              	.L4:
  73:main.c        ****     }else if(pepito == 'u'){
  88              		.loc 1 73 0
  89 0026 752C     		cmp	r4, #117
  90 0028 03D1     		bne	.L6
  74:main.c        ****         Clock_1_SetSource(CYCLK_SRC_SEL_PLL);
  91              		.loc 1 74 0
  92 002a 0420     		movs	r0, #4
  93 002c FFF7FEFF 		bl	Clock_1_SetSourceRegister
  94              	.LVL8:
  95 0030 0DE0     		b	.L5
  96              	.L6:
  75:main.c        ****     }else if(pepito == 'p'){
ARM GAS  C:\Users\Cristina\AppData\Local\Temp\ccIl30V7.s 			page 4


  97              		.loc 1 75 0
  98 0032 702C     		cmp	r4, #112
  99 0034 07D1     		bne	.L7
  76:main.c        ****         generadorPulsosPWM_Stop();
 100              		.loc 1 76 0
 101 0036 FFF7FEFF 		bl	generadorPulsosPWM_Stop
 102              	.LVL9:
  77:main.c        ****         generadorPulsosPWM_Sleep();
 103              		.loc 1 77 0
 104 003a FFF7FEFF 		bl	generadorPulsosPWM_Sleep
 105              	.LVL10:
  78:main.c        ****         UART_PutString("Vamos a parar el led");
 106              		.loc 1 78 0
 107 003e 0948     		ldr	r0, .L9+8
 108 0040 FFF7FEFF 		bl	UART_PutString
 109              	.LVL11:
 110 0044 03E0     		b	.L5
 111              	.L7:
  79:main.c        ****         
  80:main.c        ****         
  81:main.c        ****     }else if(pepito == 'a'){
 112              		.loc 1 81 0
 113 0046 612C     		cmp	r4, #97
 114 0048 01D1     		bne	.L5
  82:main.c        ****         generadorPulsosPWM_Start();   
 115              		.loc 1 82 0
 116 004a FFF7FEFF 		bl	generadorPulsosPWM_Start
 117              	.LVL12:
 118              	.L5:
  83:main.c        ****     }
  84:main.c        ****    
  85:main.c        ****     UART_PutChar(pepito);
 119              		.loc 1 85 0
 120 004e 2046     		mov	r0, r4
 121 0050 FFF7FEFF 		bl	UART_PutChar
 122              	.LVL13:
  86:main.c        ****     Pantalla_PrintString(pepito);
 123              		.loc 1 86 0
 124 0054 2046     		mov	r0, r4
 125 0056 FFF7FEFF 		bl	Pantalla_PrintString
 126              	.LVL14:
 127 005a 10BD     		pop	{r4, pc}
 128              	.LVL15:
 129              	.L10:
 130              		.align	2
 131              	.L9:
 132 005c 00000000 		.word	.LC0
 133 0060 04000000 		.word	.LC1
 134 0064 14000000 		.word	.LC2
 135              		.cfi_endproc
 136              	.LFE65:
 137              		.size	UARTHandler, .-UARTHandler
 138              		.section	.text.main,"ax",%progbits
 139              		.align	2
 140              		.global	main
 141              		.thumb
 142              		.thumb_func
ARM GAS  C:\Users\Cristina\AppData\Local\Temp\ccIl30V7.s 			page 5


 143              		.type	main, %function
 144              	main:
 145              	.LFB63:
  23:main.c        ****     
 146              		.loc 1 23 0
 147              		.cfi_startproc
 148              		@ Volatile: function does not return.
 149              		@ args = 0, pretend = 0, frame = 0
 150              		@ frame_needed = 0, uses_anonymous_args = 0
 151 0000 08B5     		push	{r3, lr}
 152              		.cfi_def_cfa_offset 8
 153              		.cfi_offset 3, -8
 154              		.cfi_offset 14, -4
  28:main.c        ****     UART_isr_SetPriority(0);
 155              		.loc 1 28 0
 156 0002 1148     		ldr	r0, .L14
 157 0004 FFF7FEFF 		bl	UART_isr_StartEx
 158              	.LVL16:
  29:main.c        ****     
 159              		.loc 1 29 0
 160 0008 0020     		movs	r0, #0
 161 000a FFF7FEFF 		bl	UART_isr_SetPriority
 162              	.LVL17:
  31:main.c        ****     isr_GPIO_SetPriority(0);
 163              		.loc 1 31 0
 164 000e 0F48     		ldr	r0, .L14+4
 165 0010 FFF7FEFF 		bl	isr_GPIO_StartEx
 166              	.LVL18:
  32:main.c        ****     
 167              		.loc 1 32 0
 168 0014 0020     		movs	r0, #0
 169 0016 FFF7FEFF 		bl	isr_GPIO_SetPriority
 170              	.LVL19:
  34:main.c        ****     Timer_1_Start();
 171              		.loc 1 34 0
 172 001a FFF7FEFF 		bl	generadorPulsosPWM_Start
 173              	.LVL20:
  35:main.c        ****     
 174              		.loc 1 35 0
 175 001e FFF7FEFF 		bl	Timer_1_Start
 176              	.LVL21:
  37:main.c        ****     
 177              		.loc 1 37 0
 178              	@ 37 "main.c" 1
 179 0022 62B6     		CPSIE   i
 180              	@ 0 "" 2
  39:main.c        ****     UART_Start();
 181              		.loc 1 39 0
 182              		.thumb
 183 0024 FFF7FEFF 		bl	Pantalla_Start
 184              	.LVL22:
  40:main.c        ****     Pantalla_ClearDisplay();
 185              		.loc 1 40 0
 186 0028 FFF7FEFF 		bl	UART_Start
 187              	.LVL23:
  41:main.c        ****     Pantalla_PrintString("Bienvenido");
 188              		.loc 1 41 0
ARM GAS  C:\Users\Cristina\AppData\Local\Temp\ccIl30V7.s 			page 6


 189 002c 0120     		movs	r0, #1
 190 002e FFF7FEFF 		bl	Pantalla_WriteControl
 191              	.LVL24:
  42:main.c        ****     
 192              		.loc 1 42 0
 193 0032 0748     		ldr	r0, .L14+8
 194 0034 FFF7FEFF 		bl	Pantalla_PrintString
 195              	.LVL25:
  45:main.c        ****     
 196              		.loc 1 45 0
 197 0038 5A20     		movs	r0, #90
 198 003a FFF7FEFF 		bl	generadorPulsosPWM_WriteCompare
 199              	.LVL26:
  47:main.c        ****     /* Place your initialization/startup code here (e.g. MyInst_Start()) */
 200              		.loc 1 47 0
 201 003e 0120     		movs	r0, #1
 202 0040 FFF7FEFF 		bl	ledSoftwareInterrupcionPWM_Write
 203              	.LVL27:
 204              	.L12:
  51:main.c        **** }
 205              		.loc 1 51 0 discriminator 1
 206 0044 FEE7     		b	.L12
 207              	.L15:
 208 0046 00BF     		.align	2
 209              	.L14:
 210 0048 00000000 		.word	UARTHandler
 211 004c 00000000 		.word	GPIOIsrHandler
 212 0050 2C000000 		.word	.LC3
 213              		.cfi_endproc
 214              	.LFE63:
 215              		.size	main, .-main
 216              		.global	flagInterrupcionPWM
 217              		.section	.rodata.str1.4,"aMS",%progbits,1
 218              		.align	2
 219              	.LC0:
 220 0000 496E7400 		.ascii	"Int\000"
 221              	.LC1:
 222 0004 44697669 		.ascii	"Divisor a 10\000"
 222      736F7220 
 222      61203130 
 222      00
 223 0011 000000   		.space	3
 224              	.LC2:
 225 0014 56616D6F 		.ascii	"Vamos a parar el led\000"
 225      73206120 
 225      70617261 
 225      7220656C 
 225      206C6564 
 226 0029 000000   		.space	3
 227              	.LC3:
 228 002c 4269656E 		.ascii	"Bienvenido\000"
 228      76656E69 
 228      646F00
 229 0037 00       		.bss
 230              		.align	2
 231              		.type	flagInterrupcionPWM, %object
 232              		.size	flagInterrupcionPWM, 4
ARM GAS  C:\Users\Cristina\AppData\Local\Temp\ccIl30V7.s 			page 7


 233              	flagInterrupcionPWM:
 234 0000 00000000 		.space	4
 235              		.text
 236              	.Letext0:
 237              		.file 2 "c:\\program files (x86)\\cypress\\psoc creator\\4.0\\psoc creator\\import\\gnu\\arm\\4.9.
 238              		.file 3 "c:\\program files (x86)\\cypress\\psoc creator\\4.0\\psoc creator\\import\\gnu\\arm\\4.9.
 239              		.file 4 "Generated_Source\\PSoC5/cytypes.h"
 240              		.file 5 "Generated_Source\\PSoC5/core_cm3.h"
 241              		.file 6 "Generated_Source\\PSoC5/ledSoftwareInterrupcionPWM.h"
 242              		.file 7 "Generated_Source\\PSoC5/Pantalla.h"
 243              		.file 8 "Generated_Source\\PSoC5/UART.h"
 244              		.file 9 "Generated_Source\\PSoC5/Clock_1.h"
 245              		.file 10 "Generated_Source\\PSoC5/generadorPulsosPWM.h"
 246              		.file 11 "Generated_Source\\PSoC5/UART_isr.h"
 247              		.file 12 "Generated_Source\\PSoC5/isr_GPIO.h"
 248              		.file 13 "Generated_Source\\PSoC5/Timer_1.h"