ARM GAS  C:\Users\JOSANT~1\AppData\Local\Temp\ccX0rL0R.s 			page 1


   1              		.syntax unified
   2              		.cpu cortex-m3
   3              		.fpu softvfp
   4              		.eabi_attribute 20, 1
   5              		.eabi_attribute 21, 1
   6              		.eabi_attribute 23, 3
   7              		.eabi_attribute 24, 1
   8              		.eabi_attribute 25, 1
   9              		.eabi_attribute 26, 1
  10              		.eabi_attribute 30, 1
  11              		.eabi_attribute 34, 1
  12              		.eabi_attribute 18, 4
  13              		.thumb
  14              		.file	"main.c"
  15              		.text
  16              	.Ltext0:
  17              		.cfi_sections	.debug_frame
  18              		.section	.text.main,"ax",%progbits
  19              		.align	2
  20              		.global	main
  21              		.thumb
  22              		.thumb_func
  23              		.type	main, %function
  24              	main:
  25              	.LFB63:
  26              		.file 1 "main.c"
   1:main.c        **** /* ========================================
   2:main.c        ****  *
   3:main.c        ****  * Copyright YOUR COMPANY, THE YEAR
   4:main.c        ****  * All Rights Reserved
   5:main.c        ****  * UNPUBLISHED, LICENSED SOFTWARE.
   6:main.c        ****  *
   7:main.c        ****  * CONFIDENTIAL AND PROPRIETARY INFORMATION
   8:main.c        ****  * WHICH IS THE PROPERTY OF your company.
   9:main.c        ****  *
  10:main.c        ****  * ========================================
  11:main.c        **** */
  12:main.c        **** #include "project.h"
  13:main.c        **** 
  14:main.c        **** int main(void)
  15:main.c        **** {
  27              		.loc 1 15 0
  28              		.cfi_startproc
  29              		@ args = 0, pretend = 0, frame = 0
  30              		@ frame_needed = 0, uses_anonymous_args = 0
  31 0000 F8B5     		push	{r3, r4, r5, r6, r7, lr}
  32              		.cfi_def_cfa_offset 24
  33              		.cfi_offset 3, -24
  34              		.cfi_offset 4, -20
  35              		.cfi_offset 5, -16
  36              		.cfi_offset 6, -12
  37              		.cfi_offset 7, -8
  38              		.cfi_offset 14, -4
  16:main.c        ****     CyGlobalIntEnable; /* Enable global interrupts. */
  39              		.loc 1 16 0
  40              	@ 16 "main.c" 1
  41 0002 62B6     		CPSIE   i
ARM GAS  C:\Users\JOSANT~1\AppData\Local\Temp\ccX0rL0R.s 			page 2


  42              	@ 0 "" 2
  17:main.c        ****     pantallaLCD_Start();
  43              		.loc 1 17 0
  44              		.thumb
  45 0004 FFF7FEFF 		bl	pantallaLCD_Start
  46              	.LVL0:
  18:main.c        ****     
  19:main.c        ****     CyDelay(1000);
  47              		.loc 1 19 0
  48 0008 4FF47A70 		mov	r0, #1000
  49 000c FFF7FEFF 		bl	CyDelay
  50              	.LVL1:
  20:main.c        ****     pantallaLCD_PrintString("Bienvenido a la practica 2");
  51              		.loc 1 20 0
  52 0010 4448     		ldr	r0, .L20
  53 0012 FFF7FEFF 		bl	pantallaLCD_PrintString
  54              	.LVL2:
  21:main.c        ****     
  22:main.c        ****     CyDelay(1000);
  55              		.loc 1 22 0
  56 0016 4FF47A70 		mov	r0, #1000
  57 001a FFF7FEFF 		bl	CyDelay
  58              	.LVL3:
  23:main.c        ****     pantallaLCD_ClearDisplay();
  59              		.loc 1 23 0
  60 001e 0120     		movs	r0, #1
  61 0020 FFF7FEFF 		bl	pantallaLCD_WriteControl
  62              	.LVL4:
  24:main.c        ****     
  25:main.c        ****     uint8 a = 0U;
  26:main.c        ****     uint8 b = 0U;
  27:main.c        ****     uint8 modo = 0U;
  28:main.c        ****     uint8 resultado = 0U;
  63              		.loc 1 28 0
  64 0024 0027     		movs	r7, #0
  27:main.c        ****     uint8 resultado = 0U;
  65              		.loc 1 27 0
  66 0026 3C46     		mov	r4, r7
  26:main.c        ****     uint8 modo = 0U;
  67              		.loc 1 26 0
  68 0028 3E46     		mov	r6, r7
  25:main.c        ****     uint8 b = 0U;
  69              		.loc 1 25 0
  70 002a 3D46     		mov	r5, r7
  71              	.LVL5:
  72              	.L18:
  29:main.c        ****     
  30:main.c        **** 
  31:main.c        ****     /* Place your initialization/startup code here (e.g. MyInst_Start()) */
  32:main.c        **** 
  33:main.c        ****     for(;;)
  34:main.c        ****     {
  35:main.c        ****         
  36:main.c        ****         
  37:main.c        ****         if(siguiente_Read()){
  73              		.loc 1 37 0
  74 002c FFF7FEFF 		bl	siguiente_Read
ARM GAS  C:\Users\JOSANT~1\AppData\Local\Temp\ccX0rL0R.s 			page 3


  75              	.LVL6:
  76 0030 68B1     		cbz	r0, .L2
  38:main.c        ****             modo = (modo + 1) % 3;
  77              		.loc 1 38 0
  78 0032 0134     		adds	r4, r4, #1
  79              	.LVL7:
  80 0034 3C4B     		ldr	r3, .L20+4
  81 0036 83FB0423 		smull	r2, r3, r3, r4
  82 003a A3EBE473 		sub	r3, r3, r4, asr #31
  83 003e 03EB4303 		add	r3, r3, r3, lsl #1
  84 0042 E31A     		subs	r3, r4, r3
  85 0044 DCB2     		uxtb	r4, r3
  86              	.LVL8:
  87              	.L3:
  39:main.c        ****             while(!siguiente_Read()){
  88              		.loc 1 39 0 discriminator 1
  89 0046 FFF7FEFF 		bl	siguiente_Read
  90              	.LVL9:
  91 004a 0028     		cmp	r0, #0
  92 004c FBD0     		beq	.L3
  93              	.L2:
  40:main.c        ****             }
  41:main.c        ****         }
  42:main.c        ****         
  43:main.c        ****         switch(modo){
  94              		.loc 1 43 0
  95 004e 012C     		cmp	r4, #1
  96 0050 21D0     		beq	.L5
  97 0052 14B1     		cbz	r4, .L6
  98 0054 022C     		cmp	r4, #2
  99 0056 3BD0     		beq	.L7
 100 0058 42E0     		b	.L4
 101              	.L6:
  44:main.c        ****             case 0:
  45:main.c        ****                 if(!inc_Read()){
 102              		.loc 1 45 0
 103 005a FFF7FEFF 		bl	inc_Read
 104              	.LVL10:
 105 005e 40B9     		cbnz	r0, .L8
  46:main.c        ****                     a = (a+1)%4;
 106              		.loc 1 46 0
 107 0060 0135     		adds	r5, r5, #1
 108              	.LVL11:
 109 0062 05F00305 		and	r5, r5, #3
 110 0066 EDB2     		uxtb	r5, r5
 111              	.LVL12:
 112              	.L10:
  47:main.c        ****                     while(!inc_Read()){
 113              		.loc 1 47 0 discriminator 1
 114 0068 FFF7FEFF 		bl	inc_Read
 115              	.LVL13:
 116 006c 0028     		cmp	r0, #0
 117 006e FBD0     		beq	.L10
 118 0070 36E0     		b	.L4
 119              	.L8:
  48:main.c        ****                     }
  49:main.c        ****                 }else if(!dec_Read()){
ARM GAS  C:\Users\JOSANT~1\AppData\Local\Temp\ccX0rL0R.s 			page 4


 120              		.loc 1 49 0
 121 0072 FFF7FEFF 		bl	dec_Read
 122              	.LVL14:
 123 0076 0028     		cmp	r0, #0
 124 0078 32D1     		bne	.L4
  50:main.c        ****                     a = (a-1)%4;
 125              		.loc 1 50 0
 126 007a 013D     		subs	r5, r5, #1
 127              	.LVL15:
 128 007c 2B4B     		ldr	r3, .L20+8
 129 007e 1D40     		ands	r5, r5, r3
 130 0080 03D5     		bpl	.L11
 131 0082 013D     		subs	r5, r5, #1
 132 0084 65F00305 		orn	r5, r5, #3
 133 0088 0135     		adds	r5, r5, #1
 134              	.L11:
 135 008a EDB2     		uxtb	r5, r5
 136              	.LVL16:
 137              	.L12:
  51:main.c        ****                     while(!dec_Read()){
 138              		.loc 1 51 0 discriminator 1
 139 008c FFF7FEFF 		bl	dec_Read
 140              	.LVL17:
 141 0090 0028     		cmp	r0, #0
 142 0092 FBD0     		beq	.L12
 143 0094 24E0     		b	.L4
 144              	.L5:
  52:main.c        ****                     }
  53:main.c        ****                 }
  54:main.c        ****                 break;
  55:main.c        ****             case 1:
  56:main.c        ****                  if(!inc_Read()){
 145              		.loc 1 56 0
 146 0096 FFF7FEFF 		bl	inc_Read
 147              	.LVL18:
 148 009a 40B9     		cbnz	r0, .L13
  57:main.c        ****                     b = (b+1)%4;
 149              		.loc 1 57 0
 150 009c 0136     		adds	r6, r6, #1
 151              	.LVL19:
 152 009e 06F00306 		and	r6, r6, #3
 153 00a2 F6B2     		uxtb	r6, r6
 154              	.LVL20:
 155              	.L15:
  58:main.c        ****                     while(!inc_Read()){
 156              		.loc 1 58 0 discriminator 1
 157 00a4 FFF7FEFF 		bl	inc_Read
 158              	.LVL21:
 159 00a8 0028     		cmp	r0, #0
 160 00aa FBD0     		beq	.L15
 161 00ac 18E0     		b	.L4
 162              	.L13:
  59:main.c        ****                     }
  60:main.c        ****                 }else if(!dec_Read()){
 163              		.loc 1 60 0
 164 00ae FFF7FEFF 		bl	dec_Read
 165              	.LVL22:
ARM GAS  C:\Users\JOSANT~1\AppData\Local\Temp\ccX0rL0R.s 			page 5


 166 00b2 A8B9     		cbnz	r0, .L4
  61:main.c        ****                     b = (b-1)%4;
 167              		.loc 1 61 0
 168 00b4 013E     		subs	r6, r6, #1
 169              	.LVL23:
 170 00b6 1D4B     		ldr	r3, .L20+8
 171 00b8 1E40     		ands	r6, r6, r3
 172 00ba 03D5     		bpl	.L16
 173 00bc 013E     		subs	r6, r6, #1
 174 00be 66F00306 		orn	r6, r6, #3
 175 00c2 0136     		adds	r6, r6, #1
 176              	.L16:
 177 00c4 F6B2     		uxtb	r6, r6
 178              	.LVL24:
 179              	.L17:
  62:main.c        ****                     while(!dec_Read()){
 180              		.loc 1 62 0 discriminator 1
 181 00c6 FFF7FEFF 		bl	dec_Read
 182              	.LVL25:
 183 00ca 0028     		cmp	r0, #0
 184 00cc FBD0     		beq	.L17
 185 00ce 07E0     		b	.L4
 186              	.L7:
  63:main.c        ****                     }
  64:main.c        ****                 }
  65:main.c        ****                 break;
  66:main.c        ****             case 2:
  67:main.c        ****                 
  68:main.c        ****                 registro_Write(a + (b << 2));
 187              		.loc 1 68 0
 188 00d0 05EB8600 		add	r0, r5, r6, lsl #2
 189 00d4 C0B2     		uxtb	r0, r0
 190 00d6 FFF7FEFF 		bl	registro_Write
 191              	.LVL26:
  69:main.c        ****                 resultado = registro2_Read();
 192              		.loc 1 69 0
 193 00da FFF7FEFF 		bl	registro2_Read
 194              	.LVL27:
 195 00de 0746     		mov	r7, r0
 196              	.LVL28:
 197              	.L4:
  70:main.c        ****                 
  71:main.c        ****                 break;
  72:main.c        ****             
  73:main.c        ****         }
  74:main.c        ****         
  75:main.c        ****             pantallaLCD_ClearDisplay();
 198              		.loc 1 75 0
 199 00e0 0120     		movs	r0, #1
 200 00e2 FFF7FEFF 		bl	pantallaLCD_WriteControl
 201              	.LVL29:
  76:main.c        ****             pantallaLCD_Position(0U,0U);
 202              		.loc 1 76 0
 203 00e6 0020     		movs	r0, #0
 204 00e8 0146     		mov	r1, r0
 205 00ea FFF7FEFF 		bl	pantallaLCD_Position
 206              	.LVL30:
ARM GAS  C:\Users\JOSANT~1\AppData\Local\Temp\ccX0rL0R.s 			page 6


  77:main.c        ****             pantallaLCD_PrintString("A: ");
 207              		.loc 1 77 0
 208 00ee 1048     		ldr	r0, .L20+12
 209 00f0 FFF7FEFF 		bl	pantallaLCD_PrintString
 210              	.LVL31:
  78:main.c        ****             pantallaLCD_PrintDecUint16(a);
 211              		.loc 1 78 0
 212 00f4 2846     		mov	r0, r5
 213 00f6 FFF7FEFF 		bl	pantallaLCD_PrintU32Number
 214              	.LVL32:
  79:main.c        ****             pantallaLCD_PrintString(" * B: ");
 215              		.loc 1 79 0
 216 00fa 0E48     		ldr	r0, .L20+16
 217 00fc FFF7FEFF 		bl	pantallaLCD_PrintString
 218              	.LVL33:
  80:main.c        ****             pantallaLCD_PrintDecUint16(b);
 219              		.loc 1 80 0
 220 0100 3046     		mov	r0, r6
 221 0102 FFF7FEFF 		bl	pantallaLCD_PrintU32Number
 222              	.LVL34:
  81:main.c        ****             pantallaLCD_PrintString(" = ");
 223              		.loc 1 81 0
 224 0106 0C48     		ldr	r0, .L20+20
 225 0108 FFF7FEFF 		bl	pantallaLCD_PrintString
 226              	.LVL35:
  82:main.c        ****             pantallaLCD_Position(1U,0U);
 227              		.loc 1 82 0
 228 010c 0120     		movs	r0, #1
 229 010e 0021     		movs	r1, #0
 230 0110 FFF7FEFF 		bl	pantallaLCD_Position
 231              	.LVL36:
  83:main.c        ****             pantallaLCD_PrintDecUint16(resultado);
 232              		.loc 1 83 0
 233 0114 3846     		mov	r0, r7
 234 0116 FFF7FEFF 		bl	pantallaLCD_PrintU32Number
 235              	.LVL37:
  84:main.c        ****             CyDelay(1000);
 236              		.loc 1 84 0
 237 011a 4FF47A70 		mov	r0, #1000
 238 011e FFF7FEFF 		bl	CyDelay
 239              	.LVL38:
  85:main.c        ****         
  86:main.c        ****         
  87:main.c        ****        
  88:main.c        ****     }
 240              		.loc 1 88 0
 241 0122 83E7     		b	.L18
 242              	.L21:
 243              		.align	2
 244              	.L20:
 245 0124 00000000 		.word	.LC0
 246 0128 56555555 		.word	1431655766
 247 012c 03000080 		.word	-2147483645
 248 0130 1C000000 		.word	.LC1
 249 0134 20000000 		.word	.LC2
 250 0138 28000000 		.word	.LC3
 251              		.cfi_endproc
ARM GAS  C:\Users\JOSANT~1\AppData\Local\Temp\ccX0rL0R.s 			page 7


 252              	.LFE63:
 253              		.size	main, .-main
 254              		.section	.rodata.str1.4,"aMS",%progbits,1
 255              		.align	2
 256              	.LC0:
 257 0000 4269656E 		.ascii	"Bienvenido a la practica 2\000"
 257      76656E69 
 257      646F2061 
 257      206C6120 
 257      70726163 
 258 001b 00       		.space	1
 259              	.LC1:
 260 001c 413A2000 		.ascii	"A: \000"
 261              	.LC2:
 262 0020 202A2042 		.ascii	" * B: \000"
 262      3A2000
 263 0027 00       		.space	1
 264              	.LC3:
 265 0028 203D2000 		.ascii	" = \000"
 266              		.text
 267              	.Letext0:
 268              		.file 2 "c:\\program files (x86)\\cypress\\psoc creator\\4.0\\psoc creator\\import\\gnu\\arm\\4.9.
 269              		.file 3 "c:\\program files (x86)\\cypress\\psoc creator\\4.0\\psoc creator\\import\\gnu\\arm\\4.9.
 270              		.file 4 "Generated_Source\\PSoC5/cytypes.h"
 271              		.file 5 "Generated_Source\\PSoC5/CyLib.h"
 272              		.file 6 "Generated_Source\\PSoC5/pantallaLCD.h"
 273              		.file 7 "Generated_Source\\PSoC5/siguiente.h"
 274              		.file 8 "Generated_Source\\PSoC5/inc.h"
 275              		.file 9 "Generated_Source\\PSoC5/dec.h"
 276              		.file 10 "Generated_Source\\PSoC5/registro.h"
 277              		.file 11 "Generated_Source\\PSoC5/registro2.h"
 278              		.file 12 "Generated_Source\\PSoC5/core_cm3.h"