ARM GAS  C:\Users\JOSANT~1\AppData\Local\Temp\ccICZ6Jc.s 			page 1


   1              		.syntax unified
   2              		.cpu cortex-m3
   3              		.fpu softvfp
   4              		.eabi_attribute 20, 1
   5              		.eabi_attribute 21, 1
   6              		.eabi_attribute 23, 3
   7              		.eabi_attribute 24, 1
   8              		.eabi_attribute 25, 1
   9              		.eabi_attribute 26, 1
  10              		.eabi_attribute 30, 1
  11              		.eabi_attribute 34, 1
  12              		.eabi_attribute 18, 4
  13              		.thumb
  14              		.file	"main.c"
  15              		.text
  16              	.Ltext0:
  17              		.cfi_sections	.debug_frame
  18              		.section	.text.MuestraCadena,"ax",%progbits
  19              		.align	2
  20              		.global	MuestraCadena
  21              		.thumb
  22              		.thumb_func
  23              		.type	MuestraCadena, %function
  24              	MuestraCadena:
  25              	.LFB63:
  26              		.file 1 "main.c"
   1:main.c        **** /* ========================================
   2:main.c        ****  *
   3:main.c        ****  * Copyright YOUR COMPANY, THE YEAR
   4:main.c        ****  * All Rights Reserved
   5:main.c        ****  * UNPUBLISHED, LICENSED SOFTWARE.
   6:main.c        ****  *
   7:main.c        ****  * CONFIDENTIAL AND PROPRIETARY INFORMATION
   8:main.c        ****  * WHICH IS THE PROPERTY OF your company.
   9:main.c        ****  *
  10:main.c        ****  * ========================================
  11:main.c        **** */
  12:main.c        **** #include "project.h"
  13:main.c        **** 
  14:main.c        **** void MuestraCadena(char* linea1,  char* linea2){
  27              		.loc 1 14 0
  28              		.cfi_startproc
  29              		@ args = 0, pretend = 0, frame = 0
  30              		@ frame_needed = 0, uses_anonymous_args = 0
  31              	.LVL0:
  32 0000 38B5     		push	{r3, r4, r5, lr}
  33              		.cfi_def_cfa_offset 16
  34              		.cfi_offset 3, -16
  35              		.cfi_offset 4, -12
  36              		.cfi_offset 5, -8
  37              		.cfi_offset 14, -4
  38 0002 0546     		mov	r5, r0
  39 0004 0C46     		mov	r4, r1
  15:main.c        ****     pantallaLCD_ClearDisplay();
  40              		.loc 1 15 0
  41 0006 0120     		movs	r0, #1
  42              	.LVL1:
ARM GAS  C:\Users\JOSANT~1\AppData\Local\Temp\ccICZ6Jc.s 			page 2


  43 0008 FFF7FEFF 		bl	pantallaLCD_WriteControl
  44              	.LVL2:
  16:main.c        ****     pantallaLCD_Position(0U, 0U);
  45              		.loc 1 16 0
  46 000c 0020     		movs	r0, #0
  47 000e 0146     		mov	r1, r0
  48 0010 FFF7FEFF 		bl	pantallaLCD_Position
  49              	.LVL3:
  17:main.c        ****     pantallaLCD_PrintString(linea1);
  50              		.loc 1 17 0
  51 0014 2846     		mov	r0, r5
  52 0016 FFF7FEFF 		bl	pantallaLCD_PrintString
  53              	.LVL4:
  18:main.c        ****     pantallaLCD_Position(1U, 0U);
  54              		.loc 1 18 0
  55 001a 0120     		movs	r0, #1
  56 001c 0021     		movs	r1, #0
  57 001e FFF7FEFF 		bl	pantallaLCD_Position
  58              	.LVL5:
  19:main.c        ****     pantallaLCD_PrintString(linea2);
  59              		.loc 1 19 0
  60 0022 2046     		mov	r0, r4
  61 0024 FFF7FEFF 		bl	pantallaLCD_PrintString
  62              	.LVL6:
  63 0028 38BD     		pop	{r3, r4, r5, pc}
  64              		.cfi_endproc
  65              	.LFE63:
  66              		.size	MuestraCadena, .-MuestraCadena
  67 002a 00BF     		.section	.text.main,"ax",%progbits
  68              		.align	2
  69              		.global	main
  70              		.thumb
  71              		.thumb_func
  72              		.type	main, %function
  73              	main:
  74              	.LFB64:
  20:main.c        ****     // pantalla_PrintString(linea2);
  21:main.c        ****     
  22:main.c        **** }
  23:main.c        **** 
  24:main.c        **** int main(void)
  25:main.c        **** {
  75              		.loc 1 25 0
  76              		.cfi_startproc
  77              		@ Volatile: function does not return.
  78              		@ args = 0, pretend = 0, frame = 0
  79              		@ frame_needed = 0, uses_anonymous_args = 0
  80 0000 08B5     		push	{r3, lr}
  81              		.cfi_def_cfa_offset 8
  82              		.cfi_offset 3, -8
  83              		.cfi_offset 14, -4
  26:main.c        ****     CyGlobalIntEnable; /* Enable global interrupts. */
  84              		.loc 1 26 0
  85              	@ 26 "main.c" 1
  86 0002 62B6     		CPSIE   i
  87              	@ 0 "" 2
  27:main.c        **** 
ARM GAS  C:\Users\JOSANT~1\AppData\Local\Temp\ccICZ6Jc.s 			page 3


  28:main.c        ****     pantallaLCD_Start();
  88              		.loc 1 28 0
  89              		.thumb
  90 0004 FFF7FEFF 		bl	pantallaLCD_Start
  91              	.LVL7:
  29:main.c        ****     pantallaLCD_PrintNumber(registro_Read());
  92              		.loc 1 29 0
  93 0008 FFF7FEFF 		bl	registro_Read
  94              	.LVL8:
  95 000c FFF7FEFF 		bl	pantallaLCD_PrintU32Number
  96              	.LVL9:
  97              	.L4:
  30:main.c        ****     
  31:main.c        **** 
  32:main.c        ****     /* Place your initialization/startup code here (e.g. MyInst_Start()) */
  33:main.c        **** 
  34:main.c        ****     for(;;)
  35:main.c        ****     {
  36:main.c        ****         pantallaLCD_ClearDisplay();
  98              		.loc 1 36 0 discriminator 1
  99 0010 0120     		movs	r0, #1
 100 0012 FFF7FEFF 		bl	pantallaLCD_WriteControl
 101              	.LVL10:
  37:main.c        ****         pantallaLCD_PrintNumber(registro_Read());
 102              		.loc 1 37 0 discriminator 1
 103 0016 FFF7FEFF 		bl	registro_Read
 104              	.LVL11:
 105 001a FFF7FEFF 		bl	pantallaLCD_PrintU32Number
 106              	.LVL12:
  38:main.c        ****         CyDelay(600);
 107              		.loc 1 38 0 discriminator 1
 108 001e 4FF41670 		mov	r0, #600
 109 0022 FFF7FEFF 		bl	CyDelay
 110              	.LVL13:
  39:main.c        **** 
  40:main.c        ****     }
 111              		.loc 1 40 0 discriminator 1
 112 0026 F3E7     		b	.L4
 113              		.cfi_endproc
 114              	.LFE64:
 115              		.size	main, .-main
 116              		.text
 117              	.Letext0:
 118              		.file 2 "c:\\program files (x86)\\cypress\\psoc creator\\4.0\\psoc creator\\import\\gnu\\arm\\4.9.
 119              		.file 3 "c:\\program files (x86)\\cypress\\psoc creator\\4.0\\psoc creator\\import\\gnu\\arm\\4.9.
 120              		.file 4 "Generated_Source\\PSoC5/cytypes.h"
 121              		.file 5 "Generated_Source\\PSoC5/pantallaLCD.h"
 122              		.file 6 "Generated_Source\\PSoC5/core_cm3.h"
 123              		.file 7 "Generated_Source\\PSoC5/registro.h"
 124              		.file 8 "Generated_Source\\PSoC5/CyLib.h"