ARM GAS  C:\Users\JOSANT~1\AppData\Local\Temp\ccaQKpLH.s 			page 1


   1              		.cpu cortex-m0
   2              		.fpu softvfp
   3              		.eabi_attribute 20, 1
   4              		.eabi_attribute 21, 1
   5              		.eabi_attribute 23, 3
   6              		.eabi_attribute 24, 1
   7              		.eabi_attribute 25, 1
   8              		.eabi_attribute 26, 1
   9              		.eabi_attribute 30, 1
  10              		.eabi_attribute 34, 0
  11              		.eabi_attribute 18, 4
  12              		.code	16
  13              		.file	"main.c"
  14              		.text
  15              	.Ltext0:
  16              		.cfi_sections	.debug_frame
  17              		.section	.text.GPIOIsrHandler,"ax",%progbits
  18              		.align	2
  19              		.global	GPIOIsrHandler
  20              		.code	16
  21              		.thumb_func
  22              		.type	GPIOIsrHandler, %function
  23              	GPIOIsrHandler:
  24              	.LFB35:
  25              		.file 1 "main.c"
   1:main.c        **** /*******************************************************************************
   2:main.c        **** * File Name: main.c
   3:main.c        **** *
   4:main.c        **** * Version: 1.00
   5:main.c        **** *
   6:main.c        **** * Description:
   7:main.c        **** *  This is the source code for the Interrupts example project of the Interrupt
   8:main.c        **** *  and cy_boot components.
   9:main.c        **** *
  10:main.c        **** ********************************************************************************
  11:main.c        **** * Copyright 2015, Cypress Semiconductor Corporation. All rights reserved.
  12:main.c        **** * This software is owned by Cypress Semiconductor Corporation and is protected
  13:main.c        **** * by and subject to worldwide patent and copyright laws and treaties.
  14:main.c        **** * Therefore, you may use this software only as provided in the license agreement
  15:main.c        **** * accompanying the software package from which you obtained this software.
  16:main.c        **** * CYPRESS AND ITS SUPPLIERS MAKE NO WARRANTY OF ANY KIND, EXPRESS OR IMPLIED,
  17:main.c        **** * WITH REGARD TO THIS SOFTWARE, INCLUDING, BUT NOT LIMITED TO, NONINFRINGEMENT,
  18:main.c        **** * IMPLIED WARRANTIES OF MERCHANTABILITY AND FITNESS FOR A PARTICULAR PURPOSE.
  19:main.c        **** *******************************************************************************/
  20:main.c        **** 
  21:main.c        **** #include <project.h>
  22:main.c        **** 
  23:main.c        **** #define NESTED_ISR                          (1u)
  24:main.c        **** #define DEFAULT_PRIORITY                    (3u)
  25:main.c        **** #define HIGHER_PRIORITY                     (2u)
  26:main.c        **** 
  27:main.c        **** #if(CY_PSOC4)
  28:main.c        ****     #define LIGHT_OFF                       (1u)
  29:main.c        ****     #define LIGHT_ON                        (0u)
  30:main.c        **** #else
  31:main.c        ****     #define LIGHT_OFF                       (0u)
  32:main.c        ****     #define LIGHT_ON                        (1u)
ARM GAS  C:\Users\JOSANT~1\AppData\Local\Temp\ccaQKpLH.s 			page 2


  33:main.c        **** #endif /* (CY_PSOC4) */
  34:main.c        **** 
  35:main.c        **** /* Interrupt prototypes */
  36:main.c        **** CY_ISR_PROTO(GPIOIsrHandler);
  37:main.c        **** CY_ISR_PROTO(NestedIsrHandler);
  38:main.c        **** 
  39:main.c        **** 
  40:main.c        **** /*******************************************************************************
  41:main.c        **** * Function Name: main
  42:main.c        **** ********************************************************************************
  43:main.c        **** *
  44:main.c        **** * Summary:
  45:main.c        **** *  At the beginning of the main function, the GPIO interrupt is set up and
  46:main.c        **** *  enabled. After that, initial priority for the GPIO interrupt is changed from
  47:main.c        **** *  1 to 3 (DEFAULT_PRIORITY). The custom interrupt (nested) is configured
  48:main.c        **** *  (sets up, sets priority) and enabled. In GPIOIsrHandler, the isr_GPIO
  49:main.c        **** *  pending interrupt clears, the green LED turns on, the nested software
  50:main.c        **** *  interrupt causes after approximately 1 second delay, green LED turns off.
  51:main.c        **** *
  52:main.c        **** * Parameters:
  53:main.c        **** *  None.
  54:main.c        **** *
  55:main.c        **** * Return:
  56:main.c        **** *  None.
  57:main.c        **** *
  58:main.c        **** *******************************************************************************/
  59:main.c        **** int main()
  60:main.c        **** {
  61:main.c        ****     /* Set initial state (off) for LED */
  62:main.c        ****     LED_Isr_Write(LIGHT_OFF);
  63:main.c        ****     LED_Nested_Write(LIGHT_OFF);
  64:main.c        **** 
  65:main.c        ****     /* Sets up the GPIO interrupt and enables it */
  66:main.c        ****     isr_GPIO_StartEx(GPIOIsrHandler);
  67:main.c        **** 
  68:main.c        ****     /* Changes initial priority for the GPIO interrupt */
  69:main.c        ****     isr_GPIO_SetPriority(DEFAULT_PRIORITY);
  70:main.c        **** 
  71:main.c        ****     /* Sets up the nested interrupt, sets priority and enables it */
  72:main.c        ****     CyIntSetVector(NESTED_ISR,NestedIsrHandler);
  73:main.c        ****     CyIntSetPriority(NESTED_ISR,HIGHER_PRIORITY);
  74:main.c        ****     CyIntEnable(NESTED_ISR);
  75:main.c        **** 
  76:main.c        ****     /* Enable global interrupts */
  77:main.c        ****     CyGlobalIntEnable;
  78:main.c        **** 
  79:main.c        ****     for(;;)
  80:main.c        ****     {
  81:main.c        ****     }
  82:main.c        **** }
  83:main.c        **** 
  84:main.c        **** 
  85:main.c        **** /*******************************************************************************
  86:main.c        **** * Function Name: GPIOIsrHandler
  87:main.c        **** ********************************************************************************
  88:main.c        **** * Summary:
  89:main.c        **** *  The interrupt handler for GPIO interrupts.
ARM GAS  C:\Users\JOSANT~1\AppData\Local\Temp\ccaQKpLH.s 			page 3


  90:main.c        **** *  Clears a pending Interrupt.
  91:main.c        **** *  Clears a pin Interrupt.
  92:main.c        **** *  Blinks the LED with the LED_Isr pin.
  93:main.c        **** *  Calls nested interrupt.
  94:main.c        **** 
  95:main.c        **** *
  96:main.c        **** * Parameters:
  97:main.c        **** *  None
  98:main.c        **** *
  99:main.c        **** * Return:
 100:main.c        **** *  None
 101:main.c        **** *
 102:main.c        **** *******************************************************************************/
 103:main.c        **** CY_ISR(GPIOIsrHandler)
 104:main.c        **** {
  26              		.loc 1 104 0
  27              		.cfi_startproc
  28 0000 08B5     		push	{r3, lr}
  29              		.cfi_def_cfa_offset 8
  30              		.cfi_offset 3, -8
  31              		.cfi_offset 14, -4
 105:main.c        ****     /* Clear pending Interrupt */
 106:main.c        ****     isr_GPIO_ClearPending();
  32              		.loc 1 106 0
  33 0002 FFF7FEFF 		bl	isr_GPIO_ClearPending
  34              	.LVL0:
 107:main.c        ****     
 108:main.c        ****     /* Clear pin Interrupt */
 109:main.c        ****     Pin_Sw_ClearInterrupt();
  35              		.loc 1 109 0
  36 0006 FFF7FEFF 		bl	Pin_Sw_ClearInterrupt
  37              	.LVL1:
 110:main.c        ****     
 111:main.c        ****     /* Turn On the LED */
 112:main.c        ****     LED_Isr_Write(LIGHT_ON);
  38              		.loc 1 112 0
  39 000a 0020     		mov	r0, #0
  40 000c FFF7FEFF 		bl	LED_Isr_Write
  41              	.LVL2:
 113:main.c        **** 
 114:main.c        ****     /* Cause nested software interrupt after 1000 ms */
 115:main.c        ****     CyDelay(1000u);
  42              		.loc 1 115 0
  43 0010 FA20     		mov	r0, #250
  44 0012 8000     		lsl	r0, r0, #2
  45 0014 FFF7FEFF 		bl	CyDelay
  46              	.LVL3:
 116:main.c        ****     CyIntSetPending(NESTED_ISR);
  47              		.loc 1 116 0
  48 0018 0120     		mov	r0, #1
  49 001a FFF7FEFF 		bl	CyIntSetPending
  50              	.LVL4:
 117:main.c        **** 
 118:main.c        ****     /* Turn Off the LED */
 119:main.c        ****     LED_Isr_Write(LIGHT_OFF);
  51              		.loc 1 119 0
  52 001e 0120     		mov	r0, #1
ARM GAS  C:\Users\JOSANT~1\AppData\Local\Temp\ccaQKpLH.s 			page 4


  53 0020 FFF7FEFF 		bl	LED_Isr_Write
  54              	.LVL5:
 120:main.c        **** }
  55              		.loc 1 120 0
  56              		@ sp needed
  57 0024 08BD     		pop	{r3, pc}
  58              		.cfi_endproc
  59              	.LFE35:
  60              		.size	GPIOIsrHandler, .-GPIOIsrHandler
  61 0026 C046     		.section	.text.NestedIsrHandler,"ax",%progbits
  62              		.align	2
  63              		.global	NestedIsrHandler
  64              		.code	16
  65              		.thumb_func
  66              		.type	NestedIsrHandler, %function
  67              	NestedIsrHandler:
  68              	.LFB36:
 121:main.c        **** 
 122:main.c        **** 
 123:main.c        **** /*******************************************************************************
 124:main.c        **** * Function Name: NestedIsrHandler
 125:main.c        **** ********************************************************************************
 126:main.c        **** * Summary:
 127:main.c        **** *  The interrupt handler for nested interrupt.
 128:main.c        **** *  Blinks the LED with the LED_Nested pin.
 129:main.c        **** *
 130:main.c        **** * Parameters:
 131:main.c        **** *  None
 132:main.c        **** *
 133:main.c        **** * Return:
 134:main.c        **** *  None
 135:main.c        **** *
 136:main.c        **** *******************************************************************************/
 137:main.c        **** CY_ISR(NestedIsrHandler)
 138:main.c        **** {
  69              		.loc 1 138 0
  70              		.cfi_startproc
  71 0000 10B5     		push	{r4, lr}
  72              		.cfi_def_cfa_offset 8
  73              		.cfi_offset 4, -8
  74              		.cfi_offset 14, -4
 139:main.c        ****     /* Clear pending Interrupt */
 140:main.c        ****     CyIntClearPending(NESTED_ISR);
  75              		.loc 1 140 0
  76 0002 0120     		mov	r0, #1
  77 0004 FFF7FEFF 		bl	CyIntClearPending
  78              	.LVL6:
 141:main.c        **** 
 142:main.c        ****     /* Turn On the LED for 1000 ms */
 143:main.c        ****     LED_Nested_Write(LIGHT_ON);
  79              		.loc 1 143 0
  80 0008 0020     		mov	r0, #0
  81 000a FFF7FEFF 		bl	LED_Nested_Write
  82              	.LVL7:
 144:main.c        ****     CyDelay(1000u);
  83              		.loc 1 144 0
  84 000e FA24     		mov	r4, #250
ARM GAS  C:\Users\JOSANT~1\AppData\Local\Temp\ccaQKpLH.s 			page 5


  85 0010 A400     		lsl	r4, r4, #2
  86 0012 201C     		mov	r0, r4
  87 0014 FFF7FEFF 		bl	CyDelay
  88              	.LVL8:
 145:main.c        **** 
 146:main.c        ****     /* Turn Off the LED and wait for 1000 ms */
 147:main.c        ****     LED_Nested_Write(LIGHT_OFF);
  89              		.loc 1 147 0
  90 0018 0120     		mov	r0, #1
  91 001a FFF7FEFF 		bl	LED_Nested_Write
  92              	.LVL9:
 148:main.c        ****     CyDelay(1000u);
  93              		.loc 1 148 0
  94 001e 201C     		mov	r0, r4
  95 0020 FFF7FEFF 		bl	CyDelay
  96              	.LVL10:
 149:main.c        **** }
  97              		.loc 1 149 0
  98              		@ sp needed
  99 0024 10BD     		pop	{r4, pc}
 100              		.cfi_endproc
 101              	.LFE36:
 102              		.size	NestedIsrHandler, .-NestedIsrHandler
 103 0026 C046     		.section	.text.main,"ax",%progbits
 104              		.align	2
 105              		.global	main
 106              		.code	16
 107              		.thumb_func
 108              		.type	main, %function
 109              	main:
 110              	.LFB34:
  60:main.c        ****     /* Set initial state (off) for LED */
 111              		.loc 1 60 0
 112              		.cfi_startproc
 113 0000 08B5     		push	{r3, lr}
 114              		.cfi_def_cfa_offset 8
 115              		.cfi_offset 3, -8
 116              		.cfi_offset 14, -4
  62:main.c        ****     LED_Nested_Write(LIGHT_OFF);
 117              		.loc 1 62 0
 118 0002 0120     		mov	r0, #1
 119 0004 FFF7FEFF 		bl	LED_Isr_Write
 120              	.LVL11:
  63:main.c        **** 
 121              		.loc 1 63 0
 122 0008 0120     		mov	r0, #1
 123 000a FFF7FEFF 		bl	LED_Nested_Write
 124              	.LVL12:
  66:main.c        **** 
 125              		.loc 1 66 0
 126 000e 0948     		ldr	r0, .L5
 127 0010 FFF7FEFF 		bl	isr_GPIO_StartEx
 128              	.LVL13:
  69:main.c        **** 
 129              		.loc 1 69 0
 130 0014 0320     		mov	r0, #3
 131 0016 FFF7FEFF 		bl	isr_GPIO_SetPriority
ARM GAS  C:\Users\JOSANT~1\AppData\Local\Temp\ccaQKpLH.s 			page 6


 132              	.LVL14:
  72:main.c        ****     CyIntSetPriority(NESTED_ISR,HIGHER_PRIORITY);
 133              		.loc 1 72 0
 134 001a 0120     		mov	r0, #1
 135 001c 0649     		ldr	r1, .L5+4
 136 001e FFF7FEFF 		bl	CyIntSetVector
 137              	.LVL15:
  73:main.c        ****     CyIntEnable(NESTED_ISR);
 138              		.loc 1 73 0
 139 0022 0120     		mov	r0, #1
 140 0024 0221     		mov	r1, #2
 141 0026 FFF7FEFF 		bl	CyIntSetPriority
 142              	.LVL16:
  74:main.c        **** 
 143              		.loc 1 74 0
 144 002a 0120     		mov	r0, #1
 145 002c FFF7FEFF 		bl	CyIntEnable
 146              	.LVL17:
  77:main.c        **** 
 147              		.loc 1 77 0
 148              	@ 77 "main.c" 1
 149 0030 62B6     		CPSIE   i
 150              	@ 0 "" 2
 151              		.code	16
 152              	.L4:
  81:main.c        **** }
 153              		.loc 1 81 0 discriminator 1
 154 0032 FEE7     		b	.L4
 155              	.L6:
 156              		.align	2
 157              	.L5:
 158 0034 00000000 		.word	GPIOIsrHandler
 159 0038 00000000 		.word	NestedIsrHandler
 160              		.cfi_endproc
 161              	.LFE34:
 162              		.size	main, .-main
 163              		.text
 164              	.Letext0:
 165              		.file 2 "Generated_Source\\PSoC4/cytypes.h"
 166              		.file 3 "Generated_Source\\PSoC4/LED_Isr.h"
 167              		.file 4 "Generated_Source\\PSoC4/CyLib.h"
 168              		.file 5 "Generated_Source\\PSoC4/LED_Nested.h"
 169              		.file 6 "Generated_Source\\PSoC4/isr_GPIO.h"
 170              		.file 7 "Generated_Source\\PSoC4/Pin_Sw.h"