ARM GAS  C:\Users\JOSANT~1\AppData\Local\Temp\ccUpMVQj.s 			page 1


   1              		.syntax unified
   2              		.cpu cortex-m3
   3              		.fpu softvfp
   4              		.eabi_attribute 20, 1
   5              		.eabi_attribute 21, 1
   6              		.eabi_attribute 23, 3
   7              		.eabi_attribute 24, 1
   8              		.eabi_attribute 25, 1
   9              		.eabi_attribute 26, 1
  10              		.eabi_attribute 30, 1
  11              		.eabi_attribute 34, 1
  12              		.eabi_attribute 18, 4
  13              		.thumb
  14              		.file	"main.c"
  15              		.text
  16              	.Ltext0:
  17              		.cfi_sections	.debug_frame
  18              		.section	.text.GPIOIsrHandler,"ax",%progbits
  19              		.align	2
  20              		.global	GPIOIsrHandler
  21              		.thumb
  22              		.thumb_func
  23              		.type	GPIOIsrHandler, %function
  24              	GPIOIsrHandler:
  25              	.LFB64:
  26              		.file 1 "main.c"
   1:main.c        **** /*******************************************************************************
   2:main.c        **** * File Name: main.c
   3:main.c        **** *
   4:main.c        **** * Version: 1.00
   5:main.c        **** *
   6:main.c        **** * Description:
   7:main.c        **** *  This is the source code for the Interrupts example project of the Interrupt
   8:main.c        **** *  and cy_boot components.
   9:main.c        **** *
  10:main.c        **** ********************************************************************************
  11:main.c        **** * Copyright 2015, Cypress Semiconductor Corporation. All rights reserved.
  12:main.c        **** * This software is owned by Cypress Semiconductor Corporation and is protected
  13:main.c        **** * by and subject to worldwide patent and copyright laws and treaties.
  14:main.c        **** * Therefore, you may use this software only as provided in the license agreement
  15:main.c        **** * accompanying the software package from which you obtained this software.
  16:main.c        **** * CYPRESS AND ITS SUPPLIERS MAKE NO WARRANTY OF ANY KIND, EXPRESS OR IMPLIED,
  17:main.c        **** * WITH REGARD TO THIS SOFTWARE, INCLUDING, BUT NOT LIMITED TO, NONINFRINGEMENT,
  18:main.c        **** * IMPLIED WARRANTIES OF MERCHANTABILITY AND FITNESS FOR A PARTICULAR PURPOSE.
  19:main.c        **** *******************************************************************************/
  20:main.c        **** 
  21:main.c        **** #include <project.h>
  22:main.c        **** 
  23:main.c        **** #define NESTED_ISR                          (1u)
  24:main.c        **** #define DEFAULT_PRIORITY                    (3u)
  25:main.c        **** #define HIGHER_PRIORITY                     (2u)
  26:main.c        **** 
  27:main.c        **** #if(CY_PSOC4)
  28:main.c        ****     #define LIGHT_OFF                       (1u)
  29:main.c        ****     #define LIGHT_ON                        (0u)
  30:main.c        **** #else
  31:main.c        ****     #define LIGHT_OFF                       (0u)
ARM GAS  C:\Users\JOSANT~1\AppData\Local\Temp\ccUpMVQj.s 			page 2


  32:main.c        ****     #define LIGHT_ON                        (1u)
  33:main.c        **** #endif /* (CY_PSOC4) */
  34:main.c        **** 
  35:main.c        **** /* Interrupt prototypes */
  36:main.c        **** CY_ISR_PROTO(GPIOIsrHandler);
  37:main.c        **** CY_ISR_PROTO(NestedIsrHandler);
  38:main.c        **** 
  39:main.c        **** 
  40:main.c        **** /*******************************************************************************
  41:main.c        **** * Function Name: main
  42:main.c        **** ********************************************************************************
  43:main.c        **** *
  44:main.c        **** * Summary:
  45:main.c        **** *  At the beginning of the main function, the GPIO interrupt is set up and
  46:main.c        **** *  enabled. After that, initial priority for the GPIO interrupt is changed from
  47:main.c        **** *  1 to 3 (DEFAULT_PRIORITY). The custom interrupt (nested) is configured
  48:main.c        **** *  (sets up, sets priority) and enabled. In GPIOIsrHandler, the isr_GPIO
  49:main.c        **** *  pending interrupt clears, the green LED turns on, the nested software
  50:main.c        **** *  interrupt causes after approximately 1 second delay, green LED turns off.
  51:main.c        **** *
  52:main.c        **** * Parameters:
  53:main.c        **** *  None.
  54:main.c        **** *
  55:main.c        **** * Return:
  56:main.c        **** *  None.
  57:main.c        **** *
  58:main.c        **** *******************************************************************************/
  59:main.c        **** int main()
  60:main.c        **** {
  61:main.c        ****     /* Set initial state (off) for LED */
  62:main.c        ****     LED_Isr_Write(LIGHT_OFF);
  63:main.c        ****     LED_Nested_Write(LIGHT_OFF);
  64:main.c        **** 
  65:main.c        ****     /* Sets up the GPIO interrupt and enables it */
  66:main.c        ****     isr_GPIO_StartEx(GPIOIsrHandler);
  67:main.c        **** 
  68:main.c        ****     /* Changes initial priority for the GPIO interrupt */
  69:main.c        ****     isr_GPIO_SetPriority(DEFAULT_PRIORITY);
  70:main.c        **** 
  71:main.c        ****     /* Sets up the nested interrupt, sets priority and enables it */
  72:main.c        ****     CyIntSetVector(NESTED_ISR,NestedIsrHandler);
  73:main.c        ****     CyIntSetPriority(NESTED_ISR,HIGHER_PRIORITY);
  74:main.c        ****     CyIntEnable(NESTED_ISR);
  75:main.c        **** 
  76:main.c        ****     /* Enable global interrupts */
  77:main.c        ****     CyGlobalIntEnable;
  78:main.c        **** 
  79:main.c        ****     for(;;)
  80:main.c        ****     {
  81:main.c        ****     }
  82:main.c        **** }
  83:main.c        **** 
  84:main.c        **** 
  85:main.c        **** /*******************************************************************************
  86:main.c        **** * Function Name: GPIOIsrHandler
  87:main.c        **** ********************************************************************************
  88:main.c        **** * Summary:
ARM GAS  C:\Users\JOSANT~1\AppData\Local\Temp\ccUpMVQj.s 			page 3


  89:main.c        **** *  The interrupt handler for GPIO interrupts.
  90:main.c        **** *  Clears a pending Interrupt.
  91:main.c        **** *  Clears a pin Interrupt.
  92:main.c        **** *  Blinks the LED with the LED_Isr pin.
  93:main.c        **** *  Calls nested interrupt.
  94:main.c        **** 
  95:main.c        **** *
  96:main.c        **** * Parameters:
  97:main.c        **** *  None
  98:main.c        **** *
  99:main.c        **** * Return:
 100:main.c        **** *  None
 101:main.c        **** *
 102:main.c        **** *******************************************************************************/
 103:main.c        **** CY_ISR(GPIOIsrHandler)
 104:main.c        **** {
  27              		.loc 1 104 0
  28              		.cfi_startproc
  29              		@ args = 0, pretend = 0, frame = 0
  30              		@ frame_needed = 0, uses_anonymous_args = 0
  31 0000 08B5     		push	{r3, lr}
  32              		.cfi_def_cfa_offset 8
  33              		.cfi_offset 3, -8
  34              		.cfi_offset 14, -4
 105:main.c        ****     /* Clear pending Interrupt */
 106:main.c        ****     isr_GPIO_ClearPending();
  35              		.loc 1 106 0
  36 0002 FFF7FEFF 		bl	isr_GPIO_ClearPending
  37              	.LVL0:
 107:main.c        ****     
 108:main.c        ****     /* Clear pin Interrupt */
 109:main.c        ****     Pin_Sw_ClearInterrupt();
  38              		.loc 1 109 0
  39 0006 FFF7FEFF 		bl	Pin_Sw_ClearInterrupt
  40              	.LVL1:
 110:main.c        ****     
 111:main.c        ****     /* Turn On the LED */
 112:main.c        ****     LED_Isr_Write(LIGHT_ON);
  41              		.loc 1 112 0
  42 000a 0120     		movs	r0, #1
  43 000c FFF7FEFF 		bl	LED_Isr_Write
  44              	.LVL2:
 113:main.c        **** 
 114:main.c        ****     /* Cause nested software interrupt after 1000 ms */
 115:main.c        ****     CyDelay(1000u);
  45              		.loc 1 115 0
  46 0010 4FF47A70 		mov	r0, #1000
  47 0014 FFF7FEFF 		bl	CyDelay
  48              	.LVL3:
 116:main.c        ****     CyIntSetPending(NESTED_ISR);
  49              		.loc 1 116 0
  50 0018 0222     		movs	r2, #2
  51 001a 034B     		ldr	r3, .L3
  52 001c 1A60     		str	r2, [r3]
 117:main.c        **** 
 118:main.c        ****     /* Turn Off the LED */
 119:main.c        ****     LED_Isr_Write(LIGHT_OFF);
ARM GAS  C:\Users\JOSANT~1\AppData\Local\Temp\ccUpMVQj.s 			page 4


  53              		.loc 1 119 0
  54 001e 0020     		movs	r0, #0
  55 0020 FFF7FEFF 		bl	LED_Isr_Write
  56              	.LVL4:
  57 0024 08BD     		pop	{r3, pc}
  58              	.L4:
  59 0026 00BF     		.align	2
  60              	.L3:
  61 0028 00E200E0 		.word	-536813056
  62              		.cfi_endproc
  63              	.LFE64:
  64              		.size	GPIOIsrHandler, .-GPIOIsrHandler
  65              		.section	.text.NestedIsrHandler,"ax",%progbits
  66              		.align	2
  67              		.global	NestedIsrHandler
  68              		.thumb
  69              		.thumb_func
  70              		.type	NestedIsrHandler, %function
  71              	NestedIsrHandler:
  72              	.LFB65:
 120:main.c        **** }
 121:main.c        **** 
 122:main.c        **** 
 123:main.c        **** /*******************************************************************************
 124:main.c        **** * Function Name: NestedIsrHandler
 125:main.c        **** ********************************************************************************
 126:main.c        **** * Summary:
 127:main.c        **** *  The interrupt handler for nested interrupt.
 128:main.c        **** *  Blinks the LED with the LED_Nested pin.
 129:main.c        **** *
 130:main.c        **** * Parameters:
 131:main.c        **** *  None
 132:main.c        **** *
 133:main.c        **** * Return:
 134:main.c        **** *  None
 135:main.c        **** *
 136:main.c        **** *******************************************************************************/
 137:main.c        **** CY_ISR(NestedIsrHandler)
 138:main.c        **** {
  73              		.loc 1 138 0
  74              		.cfi_startproc
  75              		@ args = 0, pretend = 0, frame = 0
  76              		@ frame_needed = 0, uses_anonymous_args = 0
  77 0000 08B5     		push	{r3, lr}
  78              		.cfi_def_cfa_offset 8
  79              		.cfi_offset 3, -8
  80              		.cfi_offset 14, -4
 139:main.c        ****     /* Clear pending Interrupt */
 140:main.c        ****     CyIntClearPending(NESTED_ISR);
  81              		.loc 1 140 0
  82 0002 0222     		movs	r2, #2
  83 0004 084B     		ldr	r3, .L7
  84 0006 1A60     		str	r2, [r3]
 141:main.c        **** 
 142:main.c        ****     /* Turn On the LED for 1000 ms */
 143:main.c        ****     LED_Nested_Write(LIGHT_ON);
  85              		.loc 1 143 0
ARM GAS  C:\Users\JOSANT~1\AppData\Local\Temp\ccUpMVQj.s 			page 5


  86 0008 0120     		movs	r0, #1
  87 000a FFF7FEFF 		bl	LED_Nested_Write
  88              	.LVL5:
 144:main.c        ****     CyDelay(1000u);
  89              		.loc 1 144 0
  90 000e 4FF47A70 		mov	r0, #1000
  91 0012 FFF7FEFF 		bl	CyDelay
  92              	.LVL6:
 145:main.c        **** 
 146:main.c        ****     /* Turn Off the LED and wait for 1000 ms */
 147:main.c        ****     LED_Nested_Write(LIGHT_OFF);
  93              		.loc 1 147 0
  94 0016 0020     		movs	r0, #0
  95 0018 FFF7FEFF 		bl	LED_Nested_Write
  96              	.LVL7:
 148:main.c        ****     CyDelay(1000u);
  97              		.loc 1 148 0
  98 001c 4FF47A70 		mov	r0, #1000
  99 0020 FFF7FEFF 		bl	CyDelay
 100              	.LVL8:
 101 0024 08BD     		pop	{r3, pc}
 102              	.L8:
 103 0026 00BF     		.align	2
 104              	.L7:
 105 0028 80E200E0 		.word	-536812928
 106              		.cfi_endproc
 107              	.LFE65:
 108              		.size	NestedIsrHandler, .-NestedIsrHandler
 109              		.section	.text.main,"ax",%progbits
 110              		.align	2
 111              		.global	main
 112              		.thumb
 113              		.thumb_func
 114              		.type	main, %function
 115              	main:
 116              	.LFB63:
  60:main.c        ****     /* Set initial state (off) for LED */
 117              		.loc 1 60 0
 118              		.cfi_startproc
 119              		@ Volatile: function does not return.
 120              		@ args = 0, pretend = 0, frame = 0
 121              		@ frame_needed = 0, uses_anonymous_args = 0
 122 0000 08B5     		push	{r3, lr}
 123              		.cfi_def_cfa_offset 8
 124              		.cfi_offset 3, -8
 125              		.cfi_offset 14, -4
  62:main.c        ****     LED_Nested_Write(LIGHT_OFF);
 126              		.loc 1 62 0
 127 0002 0020     		movs	r0, #0
 128 0004 FFF7FEFF 		bl	LED_Isr_Write
 129              	.LVL9:
  63:main.c        **** 
 130              		.loc 1 63 0
 131 0008 0020     		movs	r0, #0
 132 000a FFF7FEFF 		bl	LED_Nested_Write
 133              	.LVL10:
  66:main.c        **** 
ARM GAS  C:\Users\JOSANT~1\AppData\Local\Temp\ccUpMVQj.s 			page 6


 134              		.loc 1 66 0
 135 000e 0948     		ldr	r0, .L12
 136 0010 FFF7FEFF 		bl	isr_GPIO_StartEx
 137              	.LVL11:
  69:main.c        **** 
 138              		.loc 1 69 0
 139 0014 0320     		movs	r0, #3
 140 0016 FFF7FEFF 		bl	isr_GPIO_SetPriority
 141              	.LVL12:
  72:main.c        ****     CyIntSetPriority(NESTED_ISR,HIGHER_PRIORITY);
 142              		.loc 1 72 0
 143 001a 0120     		movs	r0, #1
 144 001c 0649     		ldr	r1, .L12+4
 145 001e FFF7FEFF 		bl	CyIntSetVector
 146              	.LVL13:
  73:main.c        ****     CyIntEnable(NESTED_ISR);
 147              		.loc 1 73 0
 148 0022 0120     		movs	r0, #1
 149 0024 0221     		movs	r1, #2
 150 0026 FFF7FEFF 		bl	CyIntSetPriority
 151              	.LVL14:
  74:main.c        **** 
 152              		.loc 1 74 0
 153 002a 0222     		movs	r2, #2
 154 002c 034B     		ldr	r3, .L12+8
 155 002e 1A60     		str	r2, [r3]
  77:main.c        **** 
 156              		.loc 1 77 0
 157              	@ 77 "main.c" 1
 158 0030 62B6     		CPSIE   i
 159              	@ 0 "" 2
 160              		.thumb
 161              	.L10:
  81:main.c        **** }
 162              		.loc 1 81 0 discriminator 1
 163 0032 FEE7     		b	.L10
 164              	.L13:
 165              		.align	2
 166              	.L12:
 167 0034 00000000 		.word	GPIOIsrHandler
 168 0038 00000000 		.word	NestedIsrHandler
 169 003c 00E100E0 		.word	-536813312
 170              		.cfi_endproc
 171              	.LFE63:
 172              		.size	main, .-main
 173              		.text
 174              	.Letext0:
 175              		.file 2 "c:\\program files (x86)\\cypress\\psoc creator\\4.0\\psoc creator\\import\\gnu\\arm\\4.9.
 176              		.file 3 "c:\\program files (x86)\\cypress\\psoc creator\\4.0\\psoc creator\\import\\gnu\\arm\\4.9.
 177              		.file 4 "Generated_Source\\PSoC5/cytypes.h"
 178              		.file 5 "Generated_Source\\PSoC5/LED_Isr.h"
 179              		.file 6 "Generated_Source\\PSoC5/CyLib.h"
 180              		.file 7 "Generated_Source\\PSoC5/LED_Nested.h"
 181              		.file 8 "Generated_Source\\PSoC5/isr_GPIO.h"
 182              		.file 9 "Generated_Source\\PSoC5/core_cm3.h"
 183              		.file 10 "Generated_Source\\PSoC5/Pin_Sw.h"