ARM GAS  C:\Users\JOSANT~1\AppData\Local\Temp\ccKCgxLc.s 			page 1


   1              		.syntax unified
   2              		.cpu cortex-m3
   3              		.fpu softvfp
   4              		.eabi_attribute 20, 1
   5              		.eabi_attribute 21, 1
   6              		.eabi_attribute 23, 3
   7              		.eabi_attribute 24, 1
   8              		.eabi_attribute 25, 1
   9              		.eabi_attribute 26, 1
  10              		.eabi_attribute 30, 6
  11              		.eabi_attribute 34, 1
  12              		.eabi_attribute 18, 4
  13              		.thumb
  14              		.file	"UART_1.c"
  15              		.text
  16              	.Ltext0:
  17              		.cfi_sections	.debug_frame
  18              		.global	UART_1_initVar
  19              		.bss
  20              		.type	UART_1_initVar, %object
  21              		.size	UART_1_initVar, 1
  22              	UART_1_initVar:
  23 0000 00       		.space	1
  24              		.section	.text.UART_1_Start,"ax",%progbits
  25              		.align	2
  26              		.global	UART_1_Start
  27              		.thumb
  28              		.thumb_func
  29              		.type	UART_1_Start, %function
  30              	UART_1_Start:
  31              	.LFB0:
  32              		.file 1 "Generated_Source\\PSoC5\\UART_1.c"
   1:Generated_Source\PSoC5/UART_1.c **** /*******************************************************************************
   2:Generated_Source\PSoC5/UART_1.c **** * File Name: UART_1.c
   3:Generated_Source\PSoC5/UART_1.c **** * Version 2.50
   4:Generated_Source\PSoC5/UART_1.c **** *
   5:Generated_Source\PSoC5/UART_1.c **** * Description:
   6:Generated_Source\PSoC5/UART_1.c **** *  This file provides all API functionality of the UART component
   7:Generated_Source\PSoC5/UART_1.c **** *
   8:Generated_Source\PSoC5/UART_1.c **** * Note:
   9:Generated_Source\PSoC5/UART_1.c **** *
  10:Generated_Source\PSoC5/UART_1.c **** ********************************************************************************
  11:Generated_Source\PSoC5/UART_1.c **** * Copyright 2008-2015, Cypress Semiconductor Corporation.  All rights reserved.
  12:Generated_Source\PSoC5/UART_1.c **** * You may use this file only in accordance with the license, terms, conditions,
  13:Generated_Source\PSoC5/UART_1.c **** * disclaimers, and limitations in the end user license agreement accompanying
  14:Generated_Source\PSoC5/UART_1.c **** * the software package with which this file was provided.
  15:Generated_Source\PSoC5/UART_1.c **** *******************************************************************************/
  16:Generated_Source\PSoC5/UART_1.c **** 
  17:Generated_Source\PSoC5/UART_1.c **** #include "UART_1.h"
  18:Generated_Source\PSoC5/UART_1.c **** #if (UART_1_INTERNAL_CLOCK_USED)
  19:Generated_Source\PSoC5/UART_1.c ****     #include "UART_1_IntClock.h"
  20:Generated_Source\PSoC5/UART_1.c **** #endif /* End UART_1_INTERNAL_CLOCK_USED */
  21:Generated_Source\PSoC5/UART_1.c **** 
  22:Generated_Source\PSoC5/UART_1.c **** 
  23:Generated_Source\PSoC5/UART_1.c **** /***************************************
  24:Generated_Source\PSoC5/UART_1.c **** * Global data allocation
  25:Generated_Source\PSoC5/UART_1.c **** ***************************************/
ARM GAS  C:\Users\JOSANT~1\AppData\Local\Temp\ccKCgxLc.s 			page 2


  26:Generated_Source\PSoC5/UART_1.c **** 
  27:Generated_Source\PSoC5/UART_1.c **** uint8 UART_1_initVar = 0u;
  28:Generated_Source\PSoC5/UART_1.c **** 
  29:Generated_Source\PSoC5/UART_1.c **** #if (UART_1_TX_INTERRUPT_ENABLED && UART_1_TX_ENABLED)
  30:Generated_Source\PSoC5/UART_1.c ****     volatile uint8 UART_1_txBuffer[UART_1_TX_BUFFER_SIZE];
  31:Generated_Source\PSoC5/UART_1.c ****     volatile uint8 UART_1_txBufferRead = 0u;
  32:Generated_Source\PSoC5/UART_1.c ****     uint8 UART_1_txBufferWrite = 0u;
  33:Generated_Source\PSoC5/UART_1.c **** #endif /* (UART_1_TX_INTERRUPT_ENABLED && UART_1_TX_ENABLED) */
  34:Generated_Source\PSoC5/UART_1.c **** 
  35:Generated_Source\PSoC5/UART_1.c **** #if (UART_1_RX_INTERRUPT_ENABLED && (UART_1_RX_ENABLED || UART_1_HD_ENABLED))
  36:Generated_Source\PSoC5/UART_1.c ****     uint8 UART_1_errorStatus = 0u;
  37:Generated_Source\PSoC5/UART_1.c ****     volatile uint8 UART_1_rxBuffer[UART_1_RX_BUFFER_SIZE];
  38:Generated_Source\PSoC5/UART_1.c ****     volatile uint8 UART_1_rxBufferRead  = 0u;
  39:Generated_Source\PSoC5/UART_1.c ****     volatile uint8 UART_1_rxBufferWrite = 0u;
  40:Generated_Source\PSoC5/UART_1.c ****     volatile uint8 UART_1_rxBufferLoopDetect = 0u;
  41:Generated_Source\PSoC5/UART_1.c ****     volatile uint8 UART_1_rxBufferOverflow   = 0u;
  42:Generated_Source\PSoC5/UART_1.c ****     #if (UART_1_RXHW_ADDRESS_ENABLED)
  43:Generated_Source\PSoC5/UART_1.c ****         volatile uint8 UART_1_rxAddressMode = UART_1_RX_ADDRESS_MODE;
  44:Generated_Source\PSoC5/UART_1.c ****         volatile uint8 UART_1_rxAddressDetected = 0u;
  45:Generated_Source\PSoC5/UART_1.c ****     #endif /* (UART_1_RXHW_ADDRESS_ENABLED) */
  46:Generated_Source\PSoC5/UART_1.c **** #endif /* (UART_1_RX_INTERRUPT_ENABLED && (UART_1_RX_ENABLED || UART_1_HD_ENABLED)) */
  47:Generated_Source\PSoC5/UART_1.c **** 
  48:Generated_Source\PSoC5/UART_1.c **** 
  49:Generated_Source\PSoC5/UART_1.c **** /*******************************************************************************
  50:Generated_Source\PSoC5/UART_1.c **** * Function Name: UART_1_Start
  51:Generated_Source\PSoC5/UART_1.c **** ********************************************************************************
  52:Generated_Source\PSoC5/UART_1.c **** *
  53:Generated_Source\PSoC5/UART_1.c **** * Summary:
  54:Generated_Source\PSoC5/UART_1.c **** *  This is the preferred method to begin component operation.
  55:Generated_Source\PSoC5/UART_1.c **** *  UART_1_Start() sets the initVar variable, calls the
  56:Generated_Source\PSoC5/UART_1.c **** *  UART_1_Init() function, and then calls the
  57:Generated_Source\PSoC5/UART_1.c **** *  UART_1_Enable() function.
  58:Generated_Source\PSoC5/UART_1.c **** *
  59:Generated_Source\PSoC5/UART_1.c **** * Parameters:
  60:Generated_Source\PSoC5/UART_1.c **** *  None.
  61:Generated_Source\PSoC5/UART_1.c **** *
  62:Generated_Source\PSoC5/UART_1.c **** * Return:
  63:Generated_Source\PSoC5/UART_1.c **** *  None.
  64:Generated_Source\PSoC5/UART_1.c **** *
  65:Generated_Source\PSoC5/UART_1.c **** * Global variables:
  66:Generated_Source\PSoC5/UART_1.c **** *  The UART_1_intiVar variable is used to indicate initial
  67:Generated_Source\PSoC5/UART_1.c **** *  configuration of this component. The variable is initialized to zero (0u)
  68:Generated_Source\PSoC5/UART_1.c **** *  and set to one (1u) the first time UART_1_Start() is called. This
  69:Generated_Source\PSoC5/UART_1.c **** *  allows for component initialization without re-initialization in all
  70:Generated_Source\PSoC5/UART_1.c **** *  subsequent calls to the UART_1_Start() routine.
  71:Generated_Source\PSoC5/UART_1.c **** *
  72:Generated_Source\PSoC5/UART_1.c **** * Reentrant:
  73:Generated_Source\PSoC5/UART_1.c **** *  No.
  74:Generated_Source\PSoC5/UART_1.c **** *
  75:Generated_Source\PSoC5/UART_1.c **** *******************************************************************************/
  76:Generated_Source\PSoC5/UART_1.c **** void UART_1_Start(void) 
  77:Generated_Source\PSoC5/UART_1.c **** {
  33              		.loc 1 77 0
  34              		.cfi_startproc
  35              		@ args = 0, pretend = 0, frame = 0
  36              		@ frame_needed = 1, uses_anonymous_args = 0
  37 0000 80B5     		push	{r7, lr}
ARM GAS  C:\Users\JOSANT~1\AppData\Local\Temp\ccKCgxLc.s 			page 3


  38              		.cfi_def_cfa_offset 8
  39              		.cfi_offset 7, -8
  40              		.cfi_offset 14, -4
  41 0002 00AF     		add	r7, sp, #0
  42              		.cfi_def_cfa_register 7
  78:Generated_Source\PSoC5/UART_1.c ****     /* If not initialized then initialize all required hardware and software */
  79:Generated_Source\PSoC5/UART_1.c ****     if(UART_1_initVar == 0u)
  43              		.loc 1 79 0
  44 0004 054B     		ldr	r3, .L3
  45 0006 1B78     		ldrb	r3, [r3]	@ zero_extendqisi2
  46 0008 002B     		cmp	r3, #0
  47 000a 04D1     		bne	.L2
  80:Generated_Source\PSoC5/UART_1.c ****     {
  81:Generated_Source\PSoC5/UART_1.c ****         UART_1_Init();
  48              		.loc 1 81 0
  49 000c FFF7FEFF 		bl	UART_1_Init
  82:Generated_Source\PSoC5/UART_1.c ****         UART_1_initVar = 1u;
  50              		.loc 1 82 0
  51 0010 024B     		ldr	r3, .L3
  52 0012 0122     		movs	r2, #1
  53 0014 1A70     		strb	r2, [r3]
  54              	.L2:
  83:Generated_Source\PSoC5/UART_1.c ****     }
  84:Generated_Source\PSoC5/UART_1.c **** 
  85:Generated_Source\PSoC5/UART_1.c ****     UART_1_Enable();
  55              		.loc 1 85 0
  56 0016 FFF7FEFF 		bl	UART_1_Enable
  86:Generated_Source\PSoC5/UART_1.c **** }
  57              		.loc 1 86 0
  58 001a 80BD     		pop	{r7, pc}
  59              	.L4:
  60              		.align	2
  61              	.L3:
  62 001c 00000000 		.word	UART_1_initVar
  63              		.cfi_endproc
  64              	.LFE0:
  65              		.size	UART_1_Start, .-UART_1_Start
  66              		.section	.text.UART_1_Init,"ax",%progbits
  67              		.align	2
  68              		.global	UART_1_Init
  69              		.thumb
  70              		.thumb_func
  71              		.type	UART_1_Init, %function
  72              	UART_1_Init:
  73              	.LFB1:
  87:Generated_Source\PSoC5/UART_1.c **** 
  88:Generated_Source\PSoC5/UART_1.c **** 
  89:Generated_Source\PSoC5/UART_1.c **** /*******************************************************************************
  90:Generated_Source\PSoC5/UART_1.c **** * Function Name: UART_1_Init
  91:Generated_Source\PSoC5/UART_1.c **** ********************************************************************************
  92:Generated_Source\PSoC5/UART_1.c **** *
  93:Generated_Source\PSoC5/UART_1.c **** * Summary:
  94:Generated_Source\PSoC5/UART_1.c **** *  Initializes or restores the component according to the customizer Configure
  95:Generated_Source\PSoC5/UART_1.c **** *  dialog settings. It is not necessary to call UART_1_Init() because
  96:Generated_Source\PSoC5/UART_1.c **** *  the UART_1_Start() API calls this function and is the preferred
  97:Generated_Source\PSoC5/UART_1.c **** *  method to begin component operation.
  98:Generated_Source\PSoC5/UART_1.c **** *
ARM GAS  C:\Users\JOSANT~1\AppData\Local\Temp\ccKCgxLc.s 			page 4


  99:Generated_Source\PSoC5/UART_1.c **** * Parameters:
 100:Generated_Source\PSoC5/UART_1.c **** *  None.
 101:Generated_Source\PSoC5/UART_1.c **** *
 102:Generated_Source\PSoC5/UART_1.c **** * Return:
 103:Generated_Source\PSoC5/UART_1.c **** *  None.
 104:Generated_Source\PSoC5/UART_1.c **** *
 105:Generated_Source\PSoC5/UART_1.c **** *******************************************************************************/
 106:Generated_Source\PSoC5/UART_1.c **** void UART_1_Init(void) 
 107:Generated_Source\PSoC5/UART_1.c **** {
  74              		.loc 1 107 0
  75              		.cfi_startproc
  76              		@ args = 0, pretend = 0, frame = 0
  77              		@ frame_needed = 1, uses_anonymous_args = 0
  78              		@ link register save eliminated.
  79 0000 80B4     		push	{r7}
  80              		.cfi_def_cfa_offset 4
  81              		.cfi_offset 7, -4
  82 0002 00AF     		add	r7, sp, #0
  83              		.cfi_def_cfa_register 7
 108:Generated_Source\PSoC5/UART_1.c ****     #if(UART_1_RX_ENABLED || UART_1_HD_ENABLED)
 109:Generated_Source\PSoC5/UART_1.c **** 
 110:Generated_Source\PSoC5/UART_1.c ****         #if (UART_1_RX_INTERRUPT_ENABLED)
 111:Generated_Source\PSoC5/UART_1.c ****             /* Set RX interrupt vector and priority */
 112:Generated_Source\PSoC5/UART_1.c ****             (void) CyIntSetVector(UART_1_RX_VECT_NUM, &UART_1_RXISR);
 113:Generated_Source\PSoC5/UART_1.c ****             CyIntSetPriority(UART_1_RX_VECT_NUM, UART_1_RX_PRIOR_NUM);
 114:Generated_Source\PSoC5/UART_1.c ****             UART_1_errorStatus = 0u;
 115:Generated_Source\PSoC5/UART_1.c ****         #endif /* (UART_1_RX_INTERRUPT_ENABLED) */
 116:Generated_Source\PSoC5/UART_1.c **** 
 117:Generated_Source\PSoC5/UART_1.c ****         #if (UART_1_RXHW_ADDRESS_ENABLED)
 118:Generated_Source\PSoC5/UART_1.c ****             UART_1_SetRxAddressMode(UART_1_RX_ADDRESS_MODE);
 119:Generated_Source\PSoC5/UART_1.c ****             UART_1_SetRxAddress1(UART_1_RX_HW_ADDRESS1);
 120:Generated_Source\PSoC5/UART_1.c ****             UART_1_SetRxAddress2(UART_1_RX_HW_ADDRESS2);
 121:Generated_Source\PSoC5/UART_1.c ****         #endif /* End UART_1_RXHW_ADDRESS_ENABLED */
 122:Generated_Source\PSoC5/UART_1.c **** 
 123:Generated_Source\PSoC5/UART_1.c ****         /* Init Count7 period */
 124:Generated_Source\PSoC5/UART_1.c ****         UART_1_RXBITCTR_PERIOD_REG = UART_1_RXBITCTR_INIT;
  84              		.loc 1 124 0
  85 0004 044B     		ldr	r3, .L6
  86 0006 7222     		movs	r2, #114
  87 0008 1A70     		strb	r2, [r3]
 125:Generated_Source\PSoC5/UART_1.c ****         /* Configure the Initial RX interrupt mask */
 126:Generated_Source\PSoC5/UART_1.c ****         UART_1_RXSTATUS_MASK_REG  = UART_1_INIT_RX_INTERRUPTS_MASK;
  88              		.loc 1 126 0
  89 000a 044B     		ldr	r3, .L6+4
  90 000c 2022     		movs	r2, #32
  91 000e 1A70     		strb	r2, [r3]
 127:Generated_Source\PSoC5/UART_1.c ****     #endif /* End UART_1_RX_ENABLED || UART_1_HD_ENABLED*/
 128:Generated_Source\PSoC5/UART_1.c **** 
 129:Generated_Source\PSoC5/UART_1.c ****     #if(UART_1_TX_ENABLED)
 130:Generated_Source\PSoC5/UART_1.c ****         #if (UART_1_TX_INTERRUPT_ENABLED)
 131:Generated_Source\PSoC5/UART_1.c ****             /* Set TX interrupt vector and priority */
 132:Generated_Source\PSoC5/UART_1.c ****             (void) CyIntSetVector(UART_1_TX_VECT_NUM, &UART_1_TXISR);
 133:Generated_Source\PSoC5/UART_1.c ****             CyIntSetPriority(UART_1_TX_VECT_NUM, UART_1_TX_PRIOR_NUM);
 134:Generated_Source\PSoC5/UART_1.c ****         #endif /* (UART_1_TX_INTERRUPT_ENABLED) */
 135:Generated_Source\PSoC5/UART_1.c **** 
 136:Generated_Source\PSoC5/UART_1.c ****         /* Write Counter Value for TX Bit Clk Generator*/
 137:Generated_Source\PSoC5/UART_1.c ****         #if (UART_1_TXCLKGEN_DP)
ARM GAS  C:\Users\JOSANT~1\AppData\Local\Temp\ccKCgxLc.s 			page 5


 138:Generated_Source\PSoC5/UART_1.c ****             UART_1_TXBITCLKGEN_CTR_REG = UART_1_BIT_CENTER;
 139:Generated_Source\PSoC5/UART_1.c ****             UART_1_TXBITCLKTX_COMPLETE_REG = ((UART_1_NUMBER_OF_DATA_BITS +
 140:Generated_Source\PSoC5/UART_1.c ****                         UART_1_NUMBER_OF_START_BIT) * UART_1_OVER_SAMPLE_COUNT) - 1u;
 141:Generated_Source\PSoC5/UART_1.c ****         #else
 142:Generated_Source\PSoC5/UART_1.c ****             UART_1_TXBITCTR_PERIOD_REG = ((UART_1_NUMBER_OF_DATA_BITS +
 143:Generated_Source\PSoC5/UART_1.c ****                         UART_1_NUMBER_OF_START_BIT) * UART_1_OVER_SAMPLE_8) - 1u;
 144:Generated_Source\PSoC5/UART_1.c ****         #endif /* End UART_1_TXCLKGEN_DP */
 145:Generated_Source\PSoC5/UART_1.c **** 
 146:Generated_Source\PSoC5/UART_1.c ****         /* Configure the Initial TX interrupt mask */
 147:Generated_Source\PSoC5/UART_1.c ****         #if (UART_1_TX_INTERRUPT_ENABLED)
 148:Generated_Source\PSoC5/UART_1.c ****             UART_1_TXSTATUS_MASK_REG = UART_1_TX_STS_FIFO_EMPTY;
 149:Generated_Source\PSoC5/UART_1.c ****         #else
 150:Generated_Source\PSoC5/UART_1.c ****             UART_1_TXSTATUS_MASK_REG = UART_1_INIT_TX_INTERRUPTS_MASK;
 151:Generated_Source\PSoC5/UART_1.c ****         #endif /*End UART_1_TX_INTERRUPT_ENABLED*/
 152:Generated_Source\PSoC5/UART_1.c **** 
 153:Generated_Source\PSoC5/UART_1.c ****     #endif /* End UART_1_TX_ENABLED */
 154:Generated_Source\PSoC5/UART_1.c **** 
 155:Generated_Source\PSoC5/UART_1.c ****     #if(UART_1_PARITY_TYPE_SW)  /* Write Parity to Control Register */
 156:Generated_Source\PSoC5/UART_1.c ****         UART_1_WriteControlRegister( \
 157:Generated_Source\PSoC5/UART_1.c ****             (UART_1_ReadControlRegister() & (uint8)~UART_1_CTRL_PARITY_TYPE_MASK) | \
 158:Generated_Source\PSoC5/UART_1.c ****             (uint8)(UART_1_PARITY_TYPE << UART_1_CTRL_PARITY_TYPE0_SHIFT) );
 159:Generated_Source\PSoC5/UART_1.c ****     #endif /* End UART_1_PARITY_TYPE_SW */
 160:Generated_Source\PSoC5/UART_1.c **** }
  92              		.loc 1 160 0
  93 0010 BD46     		mov	sp, r7
  94              		.cfi_def_cfa_register 13
  95              		@ sp needed
  96 0012 5DF8047B 		ldr	r7, [sp], #4
  97              		.cfi_restore 7
  98              		.cfi_def_cfa_offset 0
  99 0016 7047     		bx	lr
 100              	.L7:
 101              		.align	2
 102              	.L6:
 103 0018 8C640040 		.word	1073767564
 104 001c 8F640040 		.word	1073767567
 105              		.cfi_endproc
 106              	.LFE1:
 107              		.size	UART_1_Init, .-UART_1_Init
 108              		.section	.text.UART_1_Enable,"ax",%progbits
 109              		.align	2
 110              		.global	UART_1_Enable
 111              		.thumb
 112              		.thumb_func
 113              		.type	UART_1_Enable, %function
 114              	UART_1_Enable:
 115              	.LFB2:
 161:Generated_Source\PSoC5/UART_1.c **** 
 162:Generated_Source\PSoC5/UART_1.c **** 
 163:Generated_Source\PSoC5/UART_1.c **** /*******************************************************************************
 164:Generated_Source\PSoC5/UART_1.c **** * Function Name: UART_1_Enable
 165:Generated_Source\PSoC5/UART_1.c **** ********************************************************************************
 166:Generated_Source\PSoC5/UART_1.c **** *
 167:Generated_Source\PSoC5/UART_1.c **** * Summary:
 168:Generated_Source\PSoC5/UART_1.c **** *  Activates the hardware and begins component operation. It is not necessary
 169:Generated_Source\PSoC5/UART_1.c **** *  to call UART_1_Enable() because the UART_1_Start() API
 170:Generated_Source\PSoC5/UART_1.c **** *  calls this function, which is the preferred method to begin component
ARM GAS  C:\Users\JOSANT~1\AppData\Local\Temp\ccKCgxLc.s 			page 6


 171:Generated_Source\PSoC5/UART_1.c **** *  operation.
 172:Generated_Source\PSoC5/UART_1.c **** 
 173:Generated_Source\PSoC5/UART_1.c **** * Parameters:
 174:Generated_Source\PSoC5/UART_1.c **** *  None.
 175:Generated_Source\PSoC5/UART_1.c **** *
 176:Generated_Source\PSoC5/UART_1.c **** * Return:
 177:Generated_Source\PSoC5/UART_1.c **** *  None.
 178:Generated_Source\PSoC5/UART_1.c **** *
 179:Generated_Source\PSoC5/UART_1.c **** * Global Variables:
 180:Generated_Source\PSoC5/UART_1.c **** *  UART_1_rxAddressDetected - set to initial state (0).
 181:Generated_Source\PSoC5/UART_1.c **** *
 182:Generated_Source\PSoC5/UART_1.c **** *******************************************************************************/
 183:Generated_Source\PSoC5/UART_1.c **** void UART_1_Enable(void) 
 184:Generated_Source\PSoC5/UART_1.c **** {
 116              		.loc 1 184 0
 117              		.cfi_startproc
 118              		@ args = 0, pretend = 0, frame = 8
 119              		@ frame_needed = 1, uses_anonymous_args = 0
 120 0000 80B5     		push	{r7, lr}
 121              		.cfi_def_cfa_offset 8
 122              		.cfi_offset 7, -8
 123              		.cfi_offset 14, -4
 124 0002 82B0     		sub	sp, sp, #8
 125              		.cfi_def_cfa_offset 16
 126 0004 00AF     		add	r7, sp, #0
 127              		.cfi_def_cfa_register 7
 185:Generated_Source\PSoC5/UART_1.c ****     uint8 enableInterrupts;
 186:Generated_Source\PSoC5/UART_1.c ****     enableInterrupts = CyEnterCriticalSection();
 128              		.loc 1 186 0
 129 0006 FFF7FEFF 		bl	CyEnterCriticalSection
 130 000a 0346     		mov	r3, r0
 131 000c FB71     		strb	r3, [r7, #7]
 187:Generated_Source\PSoC5/UART_1.c **** 
 188:Generated_Source\PSoC5/UART_1.c ****     #if (UART_1_RX_ENABLED || UART_1_HD_ENABLED)
 189:Generated_Source\PSoC5/UART_1.c ****         /* RX Counter (Count7) Enable */
 190:Generated_Source\PSoC5/UART_1.c ****         UART_1_RXBITCTR_CONTROL_REG |= UART_1_CNTR_ENABLE;
 132              		.loc 1 190 0
 133 000e 0C4A     		ldr	r2, .L9
 134 0010 0B4B     		ldr	r3, .L9
 135 0012 1B78     		ldrb	r3, [r3]
 136 0014 DBB2     		uxtb	r3, r3
 137 0016 43F02003 		orr	r3, r3, #32
 138 001a DBB2     		uxtb	r3, r3
 139 001c 1370     		strb	r3, [r2]
 191:Generated_Source\PSoC5/UART_1.c **** 
 192:Generated_Source\PSoC5/UART_1.c ****         /* Enable the RX Interrupt */
 193:Generated_Source\PSoC5/UART_1.c ****         UART_1_RXSTATUS_ACTL_REG  |= UART_1_INT_ENABLE;
 140              		.loc 1 193 0
 141 001e 094A     		ldr	r2, .L9+4
 142 0020 084B     		ldr	r3, .L9+4
 143 0022 1B78     		ldrb	r3, [r3]
 144 0024 DBB2     		uxtb	r3, r3
 145 0026 43F01003 		orr	r3, r3, #16
 146 002a DBB2     		uxtb	r3, r3
 147 002c 1370     		strb	r3, [r2]
 194:Generated_Source\PSoC5/UART_1.c **** 
 195:Generated_Source\PSoC5/UART_1.c ****         #if (UART_1_RX_INTERRUPT_ENABLED)
ARM GAS  C:\Users\JOSANT~1\AppData\Local\Temp\ccKCgxLc.s 			page 7


 196:Generated_Source\PSoC5/UART_1.c ****             UART_1_EnableRxInt();
 197:Generated_Source\PSoC5/UART_1.c **** 
 198:Generated_Source\PSoC5/UART_1.c ****             #if (UART_1_RXHW_ADDRESS_ENABLED)
 199:Generated_Source\PSoC5/UART_1.c ****                 UART_1_rxAddressDetected = 0u;
 200:Generated_Source\PSoC5/UART_1.c ****             #endif /* (UART_1_RXHW_ADDRESS_ENABLED) */
 201:Generated_Source\PSoC5/UART_1.c ****         #endif /* (UART_1_RX_INTERRUPT_ENABLED) */
 202:Generated_Source\PSoC5/UART_1.c ****     #endif /* (UART_1_RX_ENABLED || UART_1_HD_ENABLED) */
 203:Generated_Source\PSoC5/UART_1.c **** 
 204:Generated_Source\PSoC5/UART_1.c ****     #if(UART_1_TX_ENABLED)
 205:Generated_Source\PSoC5/UART_1.c ****         /* TX Counter (DP/Count7) Enable */
 206:Generated_Source\PSoC5/UART_1.c ****         #if(!UART_1_TXCLKGEN_DP)
 207:Generated_Source\PSoC5/UART_1.c ****             UART_1_TXBITCTR_CONTROL_REG |= UART_1_CNTR_ENABLE;
 208:Generated_Source\PSoC5/UART_1.c ****         #endif /* End UART_1_TXCLKGEN_DP */
 209:Generated_Source\PSoC5/UART_1.c **** 
 210:Generated_Source\PSoC5/UART_1.c ****         /* Enable the TX Interrupt */
 211:Generated_Source\PSoC5/UART_1.c ****         UART_1_TXSTATUS_ACTL_REG |= UART_1_INT_ENABLE;
 212:Generated_Source\PSoC5/UART_1.c ****         #if (UART_1_TX_INTERRUPT_ENABLED)
 213:Generated_Source\PSoC5/UART_1.c ****             UART_1_ClearPendingTxInt(); /* Clear history of TX_NOT_EMPTY */
 214:Generated_Source\PSoC5/UART_1.c ****             UART_1_EnableTxInt();
 215:Generated_Source\PSoC5/UART_1.c ****         #endif /* (UART_1_TX_INTERRUPT_ENABLED) */
 216:Generated_Source\PSoC5/UART_1.c ****      #endif /* (UART_1_TX_INTERRUPT_ENABLED) */
 217:Generated_Source\PSoC5/UART_1.c **** 
 218:Generated_Source\PSoC5/UART_1.c ****     #if (UART_1_INTERNAL_CLOCK_USED)
 219:Generated_Source\PSoC5/UART_1.c ****         UART_1_IntClock_Start();  /* Enable the clock */
 148              		.loc 1 219 0
 149 002e FFF7FEFF 		bl	UART_1_IntClock_Start
 220:Generated_Source\PSoC5/UART_1.c ****     #endif /* (UART_1_INTERNAL_CLOCK_USED) */
 221:Generated_Source\PSoC5/UART_1.c **** 
 222:Generated_Source\PSoC5/UART_1.c ****     CyExitCriticalSection(enableInterrupts);
 150              		.loc 1 222 0
 151 0032 FB79     		ldrb	r3, [r7, #7]	@ zero_extendqisi2
 152 0034 1846     		mov	r0, r3
 153 0036 FFF7FEFF 		bl	CyExitCriticalSection
 223:Generated_Source\PSoC5/UART_1.c **** }
 154              		.loc 1 223 0
 155 003a 0837     		adds	r7, r7, #8
 156              		.cfi_def_cfa_offset 8
 157 003c BD46     		mov	sp, r7
 158              		.cfi_def_cfa_register 13
 159              		@ sp needed
 160 003e 80BD     		pop	{r7, pc}
 161              	.L10:
 162              		.align	2
 163              	.L9:
 164 0040 9C640040 		.word	1073767580
 165 0044 9F640040 		.word	1073767583
 166              		.cfi_endproc
 167              	.LFE2:
 168              		.size	UART_1_Enable, .-UART_1_Enable
 169              		.section	.text.UART_1_Stop,"ax",%progbits
 170              		.align	2
 171              		.global	UART_1_Stop
 172              		.thumb
 173              		.thumb_func
 174              		.type	UART_1_Stop, %function
 175              	UART_1_Stop:
 176              	.LFB3:
ARM GAS  C:\Users\JOSANT~1\AppData\Local\Temp\ccKCgxLc.s 			page 8


 224:Generated_Source\PSoC5/UART_1.c **** 
 225:Generated_Source\PSoC5/UART_1.c **** 
 226:Generated_Source\PSoC5/UART_1.c **** /*******************************************************************************
 227:Generated_Source\PSoC5/UART_1.c **** * Function Name: UART_1_Stop
 228:Generated_Source\PSoC5/UART_1.c **** ********************************************************************************
 229:Generated_Source\PSoC5/UART_1.c **** *
 230:Generated_Source\PSoC5/UART_1.c **** * Summary:
 231:Generated_Source\PSoC5/UART_1.c **** *  Disables the UART operation.
 232:Generated_Source\PSoC5/UART_1.c **** *
 233:Generated_Source\PSoC5/UART_1.c **** * Parameters:
 234:Generated_Source\PSoC5/UART_1.c **** *  None.
 235:Generated_Source\PSoC5/UART_1.c **** *
 236:Generated_Source\PSoC5/UART_1.c **** * Return:
 237:Generated_Source\PSoC5/UART_1.c **** *  None.
 238:Generated_Source\PSoC5/UART_1.c **** *
 239:Generated_Source\PSoC5/UART_1.c **** *******************************************************************************/
 240:Generated_Source\PSoC5/UART_1.c **** void UART_1_Stop(void) 
 241:Generated_Source\PSoC5/UART_1.c **** {
 177              		.loc 1 241 0
 178              		.cfi_startproc
 179              		@ args = 0, pretend = 0, frame = 8
 180              		@ frame_needed = 1, uses_anonymous_args = 0
 181 0000 80B5     		push	{r7, lr}
 182              		.cfi_def_cfa_offset 8
 183              		.cfi_offset 7, -8
 184              		.cfi_offset 14, -4
 185 0002 82B0     		sub	sp, sp, #8
 186              		.cfi_def_cfa_offset 16
 187 0004 00AF     		add	r7, sp, #0
 188              		.cfi_def_cfa_register 7
 242:Generated_Source\PSoC5/UART_1.c ****     uint8 enableInterrupts;
 243:Generated_Source\PSoC5/UART_1.c ****     enableInterrupts = CyEnterCriticalSection();
 189              		.loc 1 243 0
 190 0006 FFF7FEFF 		bl	CyEnterCriticalSection
 191 000a 0346     		mov	r3, r0
 192 000c FB71     		strb	r3, [r7, #7]
 244:Generated_Source\PSoC5/UART_1.c **** 
 245:Generated_Source\PSoC5/UART_1.c ****     /* Write Bit Counter Disable */
 246:Generated_Source\PSoC5/UART_1.c ****     #if (UART_1_RX_ENABLED || UART_1_HD_ENABLED)
 247:Generated_Source\PSoC5/UART_1.c ****         UART_1_RXBITCTR_CONTROL_REG &= (uint8) ~UART_1_CNTR_ENABLE;
 193              		.loc 1 247 0
 194 000e 0C4A     		ldr	r2, .L12
 195 0010 0B4B     		ldr	r3, .L12
 196 0012 1B78     		ldrb	r3, [r3]
 197 0014 DBB2     		uxtb	r3, r3
 198 0016 23F02003 		bic	r3, r3, #32
 199 001a DBB2     		uxtb	r3, r3
 200 001c 1370     		strb	r3, [r2]
 248:Generated_Source\PSoC5/UART_1.c ****     #endif /* (UART_1_RX_ENABLED || UART_1_HD_ENABLED) */
 249:Generated_Source\PSoC5/UART_1.c **** 
 250:Generated_Source\PSoC5/UART_1.c ****     #if (UART_1_TX_ENABLED)
 251:Generated_Source\PSoC5/UART_1.c ****         #if(!UART_1_TXCLKGEN_DP)
 252:Generated_Source\PSoC5/UART_1.c ****             UART_1_TXBITCTR_CONTROL_REG &= (uint8) ~UART_1_CNTR_ENABLE;
 253:Generated_Source\PSoC5/UART_1.c ****         #endif /* (!UART_1_TXCLKGEN_DP) */
 254:Generated_Source\PSoC5/UART_1.c ****     #endif /* (UART_1_TX_ENABLED) */
 255:Generated_Source\PSoC5/UART_1.c **** 
 256:Generated_Source\PSoC5/UART_1.c ****     #if (UART_1_INTERNAL_CLOCK_USED)
ARM GAS  C:\Users\JOSANT~1\AppData\Local\Temp\ccKCgxLc.s 			page 9


 257:Generated_Source\PSoC5/UART_1.c ****         UART_1_IntClock_Stop();   /* Disable the clock */
 201              		.loc 1 257 0
 202 001e FFF7FEFF 		bl	UART_1_IntClock_Stop
 258:Generated_Source\PSoC5/UART_1.c ****     #endif /* (UART_1_INTERNAL_CLOCK_USED) */
 259:Generated_Source\PSoC5/UART_1.c **** 
 260:Generated_Source\PSoC5/UART_1.c ****     /* Disable internal interrupt component */
 261:Generated_Source\PSoC5/UART_1.c ****     #if (UART_1_RX_ENABLED || UART_1_HD_ENABLED)
 262:Generated_Source\PSoC5/UART_1.c ****         UART_1_RXSTATUS_ACTL_REG  &= (uint8) ~UART_1_INT_ENABLE;
 203              		.loc 1 262 0
 204 0022 084A     		ldr	r2, .L12+4
 205 0024 074B     		ldr	r3, .L12+4
 206 0026 1B78     		ldrb	r3, [r3]
 207 0028 DBB2     		uxtb	r3, r3
 208 002a 23F01003 		bic	r3, r3, #16
 209 002e DBB2     		uxtb	r3, r3
 210 0030 1370     		strb	r3, [r2]
 263:Generated_Source\PSoC5/UART_1.c **** 
 264:Generated_Source\PSoC5/UART_1.c ****         #if (UART_1_RX_INTERRUPT_ENABLED)
 265:Generated_Source\PSoC5/UART_1.c ****             UART_1_DisableRxInt();
 266:Generated_Source\PSoC5/UART_1.c ****         #endif /* (UART_1_RX_INTERRUPT_ENABLED) */
 267:Generated_Source\PSoC5/UART_1.c ****     #endif /* (UART_1_RX_ENABLED || UART_1_HD_ENABLED) */
 268:Generated_Source\PSoC5/UART_1.c **** 
 269:Generated_Source\PSoC5/UART_1.c ****     #if (UART_1_TX_ENABLED)
 270:Generated_Source\PSoC5/UART_1.c ****         UART_1_TXSTATUS_ACTL_REG &= (uint8) ~UART_1_INT_ENABLE;
 271:Generated_Source\PSoC5/UART_1.c **** 
 272:Generated_Source\PSoC5/UART_1.c ****         #if (UART_1_TX_INTERRUPT_ENABLED)
 273:Generated_Source\PSoC5/UART_1.c ****             UART_1_DisableTxInt();
 274:Generated_Source\PSoC5/UART_1.c ****         #endif /* (UART_1_TX_INTERRUPT_ENABLED) */
 275:Generated_Source\PSoC5/UART_1.c ****     #endif /* (UART_1_TX_ENABLED) */
 276:Generated_Source\PSoC5/UART_1.c **** 
 277:Generated_Source\PSoC5/UART_1.c ****     CyExitCriticalSection(enableInterrupts);
 211              		.loc 1 277 0
 212 0032 FB79     		ldrb	r3, [r7, #7]	@ zero_extendqisi2
 213 0034 1846     		mov	r0, r3
 214 0036 FFF7FEFF 		bl	CyExitCriticalSection
 278:Generated_Source\PSoC5/UART_1.c **** }
 215              		.loc 1 278 0
 216 003a 0837     		adds	r7, r7, #8
 217              		.cfi_def_cfa_offset 8
 218 003c BD46     		mov	sp, r7
 219              		.cfi_def_cfa_register 13
 220              		@ sp needed
 221 003e 80BD     		pop	{r7, pc}
 222              	.L13:
 223              		.align	2
 224              	.L12:
 225 0040 9C640040 		.word	1073767580
 226 0044 9F640040 		.word	1073767583
 227              		.cfi_endproc
 228              	.LFE3:
 229              		.size	UART_1_Stop, .-UART_1_Stop
 230              		.section	.text.UART_1_ReadControlRegister,"ax",%progbits
 231              		.align	2
 232              		.global	UART_1_ReadControlRegister
 233              		.thumb
 234              		.thumb_func
 235              		.type	UART_1_ReadControlRegister, %function
ARM GAS  C:\Users\JOSANT~1\AppData\Local\Temp\ccKCgxLc.s 			page 10


 236              	UART_1_ReadControlRegister:
 237              	.LFB4:
 279:Generated_Source\PSoC5/UART_1.c **** 
 280:Generated_Source\PSoC5/UART_1.c **** 
 281:Generated_Source\PSoC5/UART_1.c **** /*******************************************************************************
 282:Generated_Source\PSoC5/UART_1.c **** * Function Name: UART_1_ReadControlRegister
 283:Generated_Source\PSoC5/UART_1.c **** ********************************************************************************
 284:Generated_Source\PSoC5/UART_1.c **** *
 285:Generated_Source\PSoC5/UART_1.c **** * Summary:
 286:Generated_Source\PSoC5/UART_1.c **** *  Returns the current value of the control register.
 287:Generated_Source\PSoC5/UART_1.c **** *
 288:Generated_Source\PSoC5/UART_1.c **** * Parameters:
 289:Generated_Source\PSoC5/UART_1.c **** *  None.
 290:Generated_Source\PSoC5/UART_1.c **** *
 291:Generated_Source\PSoC5/UART_1.c **** * Return:
 292:Generated_Source\PSoC5/UART_1.c **** *  Contents of the control register.
 293:Generated_Source\PSoC5/UART_1.c **** *
 294:Generated_Source\PSoC5/UART_1.c **** *******************************************************************************/
 295:Generated_Source\PSoC5/UART_1.c **** uint8 UART_1_ReadControlRegister(void) 
 296:Generated_Source\PSoC5/UART_1.c **** {
 238              		.loc 1 296 0
 239              		.cfi_startproc
 240              		@ args = 0, pretend = 0, frame = 0
 241              		@ frame_needed = 1, uses_anonymous_args = 0
 242              		@ link register save eliminated.
 243 0000 80B4     		push	{r7}
 244              		.cfi_def_cfa_offset 4
 245              		.cfi_offset 7, -4
 246 0002 00AF     		add	r7, sp, #0
 247              		.cfi_def_cfa_register 7
 297:Generated_Source\PSoC5/UART_1.c ****     #if (UART_1_CONTROL_REG_REMOVED)
 298:Generated_Source\PSoC5/UART_1.c ****         return(0u);
 248              		.loc 1 298 0
 249 0004 0023     		movs	r3, #0
 299:Generated_Source\PSoC5/UART_1.c ****     #else
 300:Generated_Source\PSoC5/UART_1.c ****         return(UART_1_CONTROL_REG);
 301:Generated_Source\PSoC5/UART_1.c ****     #endif /* (UART_1_CONTROL_REG_REMOVED) */
 302:Generated_Source\PSoC5/UART_1.c **** }
 250              		.loc 1 302 0
 251 0006 1846     		mov	r0, r3
 252 0008 BD46     		mov	sp, r7
 253              		.cfi_def_cfa_register 13
 254              		@ sp needed
 255 000a 5DF8047B 		ldr	r7, [sp], #4
 256              		.cfi_restore 7
 257              		.cfi_def_cfa_offset 0
 258 000e 7047     		bx	lr
 259              		.cfi_endproc
 260              	.LFE4:
 261              		.size	UART_1_ReadControlRegister, .-UART_1_ReadControlRegister
 262              		.section	.text.UART_1_WriteControlRegister,"ax",%progbits
 263              		.align	2
 264              		.global	UART_1_WriteControlRegister
 265              		.thumb
 266              		.thumb_func
 267              		.type	UART_1_WriteControlRegister, %function
 268              	UART_1_WriteControlRegister:
ARM GAS  C:\Users\JOSANT~1\AppData\Local\Temp\ccKCgxLc.s 			page 11


 269              	.LFB5:
 303:Generated_Source\PSoC5/UART_1.c **** 
 304:Generated_Source\PSoC5/UART_1.c **** 
 305:Generated_Source\PSoC5/UART_1.c **** /*******************************************************************************
 306:Generated_Source\PSoC5/UART_1.c **** * Function Name: UART_1_WriteControlRegister
 307:Generated_Source\PSoC5/UART_1.c **** ********************************************************************************
 308:Generated_Source\PSoC5/UART_1.c **** *
 309:Generated_Source\PSoC5/UART_1.c **** * Summary:
 310:Generated_Source\PSoC5/UART_1.c **** *  Writes an 8-bit value into the control register
 311:Generated_Source\PSoC5/UART_1.c **** *
 312:Generated_Source\PSoC5/UART_1.c **** * Parameters:
 313:Generated_Source\PSoC5/UART_1.c **** *  control:  control register value
 314:Generated_Source\PSoC5/UART_1.c **** *
 315:Generated_Source\PSoC5/UART_1.c **** * Return:
 316:Generated_Source\PSoC5/UART_1.c **** *  None.
 317:Generated_Source\PSoC5/UART_1.c **** *
 318:Generated_Source\PSoC5/UART_1.c **** *******************************************************************************/
 319:Generated_Source\PSoC5/UART_1.c **** void  UART_1_WriteControlRegister(uint8 control) 
 320:Generated_Source\PSoC5/UART_1.c **** {
 270              		.loc 1 320 0
 271              		.cfi_startproc
 272              		@ args = 0, pretend = 0, frame = 8
 273              		@ frame_needed = 1, uses_anonymous_args = 0
 274              		@ link register save eliminated.
 275 0000 80B4     		push	{r7}
 276              		.cfi_def_cfa_offset 4
 277              		.cfi_offset 7, -4
 278 0002 83B0     		sub	sp, sp, #12
 279              		.cfi_def_cfa_offset 16
 280 0004 00AF     		add	r7, sp, #0
 281              		.cfi_def_cfa_register 7
 282 0006 0346     		mov	r3, r0
 283 0008 FB71     		strb	r3, [r7, #7]
 321:Generated_Source\PSoC5/UART_1.c ****     #if (UART_1_CONTROL_REG_REMOVED)
 322:Generated_Source\PSoC5/UART_1.c ****         if(0u != control)
 323:Generated_Source\PSoC5/UART_1.c ****         {
 324:Generated_Source\PSoC5/UART_1.c ****             /* Suppress compiler warning */
 325:Generated_Source\PSoC5/UART_1.c ****         }
 326:Generated_Source\PSoC5/UART_1.c ****     #else
 327:Generated_Source\PSoC5/UART_1.c ****        UART_1_CONTROL_REG = control;
 328:Generated_Source\PSoC5/UART_1.c ****     #endif /* (UART_1_CONTROL_REG_REMOVED) */
 329:Generated_Source\PSoC5/UART_1.c **** }
 284              		.loc 1 329 0
 285 000a 0C37     		adds	r7, r7, #12
 286              		.cfi_def_cfa_offset 4
 287 000c BD46     		mov	sp, r7
 288              		.cfi_def_cfa_register 13
 289              		@ sp needed
 290 000e 5DF8047B 		ldr	r7, [sp], #4
 291              		.cfi_restore 7
 292              		.cfi_def_cfa_offset 0
 293 0012 7047     		bx	lr
 294              		.cfi_endproc
 295              	.LFE5:
 296              		.size	UART_1_WriteControlRegister, .-UART_1_WriteControlRegister
 297              		.section	.text.UART_1_SetRxInterruptMode,"ax",%progbits
 298              		.align	2
ARM GAS  C:\Users\JOSANT~1\AppData\Local\Temp\ccKCgxLc.s 			page 12


 299              		.global	UART_1_SetRxInterruptMode
 300              		.thumb
 301              		.thumb_func
 302              		.type	UART_1_SetRxInterruptMode, %function
 303              	UART_1_SetRxInterruptMode:
 304              	.LFB6:
 330:Generated_Source\PSoC5/UART_1.c **** 
 331:Generated_Source\PSoC5/UART_1.c **** 
 332:Generated_Source\PSoC5/UART_1.c **** #if(UART_1_RX_ENABLED || UART_1_HD_ENABLED)
 333:Generated_Source\PSoC5/UART_1.c ****     /*******************************************************************************
 334:Generated_Source\PSoC5/UART_1.c ****     * Function Name: UART_1_SetRxInterruptMode
 335:Generated_Source\PSoC5/UART_1.c ****     ********************************************************************************
 336:Generated_Source\PSoC5/UART_1.c ****     *
 337:Generated_Source\PSoC5/UART_1.c ****     * Summary:
 338:Generated_Source\PSoC5/UART_1.c ****     *  Configures the RX interrupt sources enabled.
 339:Generated_Source\PSoC5/UART_1.c ****     *
 340:Generated_Source\PSoC5/UART_1.c ****     * Parameters:
 341:Generated_Source\PSoC5/UART_1.c ****     *  IntSrc:  Bit field containing the RX interrupts to enable. Based on the 
 342:Generated_Source\PSoC5/UART_1.c ****     *  bit-field arrangement of the status register. This value must be a 
 343:Generated_Source\PSoC5/UART_1.c ****     *  combination of status register bit-masks shown below:
 344:Generated_Source\PSoC5/UART_1.c ****     *      UART_1_RX_STS_FIFO_NOTEMPTY    Interrupt on byte received.
 345:Generated_Source\PSoC5/UART_1.c ****     *      UART_1_RX_STS_PAR_ERROR        Interrupt on parity error.
 346:Generated_Source\PSoC5/UART_1.c ****     *      UART_1_RX_STS_STOP_ERROR       Interrupt on stop error.
 347:Generated_Source\PSoC5/UART_1.c ****     *      UART_1_RX_STS_BREAK            Interrupt on break.
 348:Generated_Source\PSoC5/UART_1.c ****     *      UART_1_RX_STS_OVERRUN          Interrupt on overrun error.
 349:Generated_Source\PSoC5/UART_1.c ****     *      UART_1_RX_STS_ADDR_MATCH       Interrupt on address match.
 350:Generated_Source\PSoC5/UART_1.c ****     *      UART_1_RX_STS_MRKSPC           Interrupt on address detect.
 351:Generated_Source\PSoC5/UART_1.c ****     *
 352:Generated_Source\PSoC5/UART_1.c ****     * Return:
 353:Generated_Source\PSoC5/UART_1.c ****     *  None.
 354:Generated_Source\PSoC5/UART_1.c ****     *
 355:Generated_Source\PSoC5/UART_1.c ****     * Theory:
 356:Generated_Source\PSoC5/UART_1.c ****     *  Enables the output of specific status bits to the interrupt controller
 357:Generated_Source\PSoC5/UART_1.c ****     *
 358:Generated_Source\PSoC5/UART_1.c ****     *******************************************************************************/
 359:Generated_Source\PSoC5/UART_1.c ****     void UART_1_SetRxInterruptMode(uint8 intSrc) 
 360:Generated_Source\PSoC5/UART_1.c ****     {
 305              		.loc 1 360 0
 306              		.cfi_startproc
 307              		@ args = 0, pretend = 0, frame = 8
 308              		@ frame_needed = 1, uses_anonymous_args = 0
 309              		@ link register save eliminated.
 310 0000 80B4     		push	{r7}
 311              		.cfi_def_cfa_offset 4
 312              		.cfi_offset 7, -4
 313 0002 83B0     		sub	sp, sp, #12
 314              		.cfi_def_cfa_offset 16
 315 0004 00AF     		add	r7, sp, #0
 316              		.cfi_def_cfa_register 7
 317 0006 0346     		mov	r3, r0
 318 0008 FB71     		strb	r3, [r7, #7]
 361:Generated_Source\PSoC5/UART_1.c ****         UART_1_RXSTATUS_MASK_REG  = intSrc;
 319              		.loc 1 361 0
 320 000a 044A     		ldr	r2, .L18
 321 000c FB79     		ldrb	r3, [r7, #7]
 322 000e 1370     		strb	r3, [r2]
 362:Generated_Source\PSoC5/UART_1.c ****     }
ARM GAS  C:\Users\JOSANT~1\AppData\Local\Temp\ccKCgxLc.s 			page 13


 323              		.loc 1 362 0
 324 0010 0C37     		adds	r7, r7, #12
 325              		.cfi_def_cfa_offset 4
 326 0012 BD46     		mov	sp, r7
 327              		.cfi_def_cfa_register 13
 328              		@ sp needed
 329 0014 5DF8047B 		ldr	r7, [sp], #4
 330              		.cfi_restore 7
 331              		.cfi_def_cfa_offset 0
 332 0018 7047     		bx	lr
 333              	.L19:
 334 001a 00BF     		.align	2
 335              	.L18:
 336 001c 8F640040 		.word	1073767567
 337              		.cfi_endproc
 338              	.LFE6:
 339              		.size	UART_1_SetRxInterruptMode, .-UART_1_SetRxInterruptMode
 340              		.section	.text.UART_1_ReadRxData,"ax",%progbits
 341              		.align	2
 342              		.global	UART_1_ReadRxData
 343              		.thumb
 344              		.thumb_func
 345              		.type	UART_1_ReadRxData, %function
 346              	UART_1_ReadRxData:
 347              	.LFB7:
 363:Generated_Source\PSoC5/UART_1.c **** 
 364:Generated_Source\PSoC5/UART_1.c **** 
 365:Generated_Source\PSoC5/UART_1.c ****     /*******************************************************************************
 366:Generated_Source\PSoC5/UART_1.c ****     * Function Name: UART_1_ReadRxData
 367:Generated_Source\PSoC5/UART_1.c ****     ********************************************************************************
 368:Generated_Source\PSoC5/UART_1.c ****     *
 369:Generated_Source\PSoC5/UART_1.c ****     * Summary:
 370:Generated_Source\PSoC5/UART_1.c ****     *  Returns the next byte of received data. This function returns data without
 371:Generated_Source\PSoC5/UART_1.c ****     *  checking the status. You must check the status separately.
 372:Generated_Source\PSoC5/UART_1.c ****     *
 373:Generated_Source\PSoC5/UART_1.c ****     * Parameters:
 374:Generated_Source\PSoC5/UART_1.c ****     *  None.
 375:Generated_Source\PSoC5/UART_1.c ****     *
 376:Generated_Source\PSoC5/UART_1.c ****     * Return:
 377:Generated_Source\PSoC5/UART_1.c ****     *  Received data from RX register
 378:Generated_Source\PSoC5/UART_1.c ****     *
 379:Generated_Source\PSoC5/UART_1.c ****     * Global Variables:
 380:Generated_Source\PSoC5/UART_1.c ****     *  UART_1_rxBuffer - RAM buffer pointer for save received data.
 381:Generated_Source\PSoC5/UART_1.c ****     *  UART_1_rxBufferWrite - cyclic index for write to rxBuffer,
 382:Generated_Source\PSoC5/UART_1.c ****     *     checked to identify new data.
 383:Generated_Source\PSoC5/UART_1.c ****     *  UART_1_rxBufferRead - cyclic index for read from rxBuffer,
 384:Generated_Source\PSoC5/UART_1.c ****     *     incremented after each byte has been read from buffer.
 385:Generated_Source\PSoC5/UART_1.c ****     *  UART_1_rxBufferLoopDetect - cleared if loop condition was detected
 386:Generated_Source\PSoC5/UART_1.c ****     *     in RX ISR.
 387:Generated_Source\PSoC5/UART_1.c ****     *
 388:Generated_Source\PSoC5/UART_1.c ****     * Reentrant:
 389:Generated_Source\PSoC5/UART_1.c ****     *  No.
 390:Generated_Source\PSoC5/UART_1.c ****     *
 391:Generated_Source\PSoC5/UART_1.c ****     *******************************************************************************/
 392:Generated_Source\PSoC5/UART_1.c ****     uint8 UART_1_ReadRxData(void) 
 393:Generated_Source\PSoC5/UART_1.c ****     {
 348              		.loc 1 393 0
ARM GAS  C:\Users\JOSANT~1\AppData\Local\Temp\ccKCgxLc.s 			page 14


 349              		.cfi_startproc
 350              		@ args = 0, pretend = 0, frame = 8
 351              		@ frame_needed = 1, uses_anonymous_args = 0
 352              		@ link register save eliminated.
 353 0000 80B4     		push	{r7}
 354              		.cfi_def_cfa_offset 4
 355              		.cfi_offset 7, -4
 356 0002 83B0     		sub	sp, sp, #12
 357              		.cfi_def_cfa_offset 16
 358 0004 00AF     		add	r7, sp, #0
 359              		.cfi_def_cfa_register 7
 394:Generated_Source\PSoC5/UART_1.c ****         uint8 rxData;
 395:Generated_Source\PSoC5/UART_1.c **** 
 396:Generated_Source\PSoC5/UART_1.c ****     #if (UART_1_RX_INTERRUPT_ENABLED)
 397:Generated_Source\PSoC5/UART_1.c **** 
 398:Generated_Source\PSoC5/UART_1.c ****         uint8 locRxBufferRead;
 399:Generated_Source\PSoC5/UART_1.c ****         uint8 locRxBufferWrite;
 400:Generated_Source\PSoC5/UART_1.c **** 
 401:Generated_Source\PSoC5/UART_1.c ****         /* Protect variables that could change on interrupt */
 402:Generated_Source\PSoC5/UART_1.c ****         UART_1_DisableRxInt();
 403:Generated_Source\PSoC5/UART_1.c **** 
 404:Generated_Source\PSoC5/UART_1.c ****         locRxBufferRead  = UART_1_rxBufferRead;
 405:Generated_Source\PSoC5/UART_1.c ****         locRxBufferWrite = UART_1_rxBufferWrite;
 406:Generated_Source\PSoC5/UART_1.c **** 
 407:Generated_Source\PSoC5/UART_1.c ****         if( (UART_1_rxBufferLoopDetect != 0u) || (locRxBufferRead != locRxBufferWrite) )
 408:Generated_Source\PSoC5/UART_1.c ****         {
 409:Generated_Source\PSoC5/UART_1.c ****             rxData = UART_1_rxBuffer[locRxBufferRead];
 410:Generated_Source\PSoC5/UART_1.c ****             locRxBufferRead++;
 411:Generated_Source\PSoC5/UART_1.c **** 
 412:Generated_Source\PSoC5/UART_1.c ****             if(locRxBufferRead >= UART_1_RX_BUFFER_SIZE)
 413:Generated_Source\PSoC5/UART_1.c ****             {
 414:Generated_Source\PSoC5/UART_1.c ****                 locRxBufferRead = 0u;
 415:Generated_Source\PSoC5/UART_1.c ****             }
 416:Generated_Source\PSoC5/UART_1.c ****             /* Update the real pointer */
 417:Generated_Source\PSoC5/UART_1.c ****             UART_1_rxBufferRead = locRxBufferRead;
 418:Generated_Source\PSoC5/UART_1.c **** 
 419:Generated_Source\PSoC5/UART_1.c ****             if(UART_1_rxBufferLoopDetect != 0u)
 420:Generated_Source\PSoC5/UART_1.c ****             {
 421:Generated_Source\PSoC5/UART_1.c ****                 UART_1_rxBufferLoopDetect = 0u;
 422:Generated_Source\PSoC5/UART_1.c ****                 #if ((UART_1_RX_INTERRUPT_ENABLED) && (UART_1_FLOW_CONTROL != 0u))
 423:Generated_Source\PSoC5/UART_1.c ****                     /* When Hardware Flow Control selected - return RX mask */
 424:Generated_Source\PSoC5/UART_1.c ****                     #if( UART_1_HD_ENABLED )
 425:Generated_Source\PSoC5/UART_1.c ****                         if((UART_1_CONTROL_REG & UART_1_CTRL_HD_SEND) == 0u)
 426:Generated_Source\PSoC5/UART_1.c ****                         {   /* In Half duplex mode return RX mask only in RX
 427:Generated_Source\PSoC5/UART_1.c ****                             *  configuration set, otherwise
 428:Generated_Source\PSoC5/UART_1.c ****                             *  mask will be returned in LoadRxConfig() API.
 429:Generated_Source\PSoC5/UART_1.c ****                             */
 430:Generated_Source\PSoC5/UART_1.c ****                             UART_1_RXSTATUS_MASK_REG  |= UART_1_RX_STS_FIFO_NOTEMPTY;
 431:Generated_Source\PSoC5/UART_1.c ****                         }
 432:Generated_Source\PSoC5/UART_1.c ****                     #else
 433:Generated_Source\PSoC5/UART_1.c ****                         UART_1_RXSTATUS_MASK_REG  |= UART_1_RX_STS_FIFO_NOTEMPTY;
 434:Generated_Source\PSoC5/UART_1.c ****                     #endif /* end UART_1_HD_ENABLED */
 435:Generated_Source\PSoC5/UART_1.c ****                 #endif /* ((UART_1_RX_INTERRUPT_ENABLED) && (UART_1_FLOW_CONTROL != 0u)) */
 436:Generated_Source\PSoC5/UART_1.c ****             }
 437:Generated_Source\PSoC5/UART_1.c ****         }
 438:Generated_Source\PSoC5/UART_1.c ****         else
 439:Generated_Source\PSoC5/UART_1.c ****         {   /* Needs to check status for RX_STS_FIFO_NOTEMPTY bit */
ARM GAS  C:\Users\JOSANT~1\AppData\Local\Temp\ccKCgxLc.s 			page 15


 440:Generated_Source\PSoC5/UART_1.c ****             rxData = UART_1_RXDATA_REG;
 441:Generated_Source\PSoC5/UART_1.c ****         }
 442:Generated_Source\PSoC5/UART_1.c **** 
 443:Generated_Source\PSoC5/UART_1.c ****         UART_1_EnableRxInt();
 444:Generated_Source\PSoC5/UART_1.c **** 
 445:Generated_Source\PSoC5/UART_1.c ****     #else
 446:Generated_Source\PSoC5/UART_1.c **** 
 447:Generated_Source\PSoC5/UART_1.c ****         /* Needs to check status for RX_STS_FIFO_NOTEMPTY bit */
 448:Generated_Source\PSoC5/UART_1.c ****         rxData = UART_1_RXDATA_REG;
 360              		.loc 1 448 0
 361 0006 054B     		ldr	r3, .L22
 362 0008 1B78     		ldrb	r3, [r3]
 363 000a FB71     		strb	r3, [r7, #7]
 449:Generated_Source\PSoC5/UART_1.c **** 
 450:Generated_Source\PSoC5/UART_1.c ****     #endif /* (UART_1_RX_INTERRUPT_ENABLED) */
 451:Generated_Source\PSoC5/UART_1.c **** 
 452:Generated_Source\PSoC5/UART_1.c ****         return(rxData);
 364              		.loc 1 452 0
 365 000c FB79     		ldrb	r3, [r7, #7]	@ zero_extendqisi2
 453:Generated_Source\PSoC5/UART_1.c ****     }
 366              		.loc 1 453 0
 367 000e 1846     		mov	r0, r3
 368 0010 0C37     		adds	r7, r7, #12
 369              		.cfi_def_cfa_offset 4
 370 0012 BD46     		mov	sp, r7
 371              		.cfi_def_cfa_register 13
 372              		@ sp needed
 373 0014 5DF8047B 		ldr	r7, [sp], #4
 374              		.cfi_restore 7
 375              		.cfi_def_cfa_offset 0
 376 0018 7047     		bx	lr
 377              	.L23:
 378 001a 00BF     		.align	2
 379              	.L22:
 380 001c 4C640040 		.word	1073767500
 381              		.cfi_endproc
 382              	.LFE7:
 383              		.size	UART_1_ReadRxData, .-UART_1_ReadRxData
 384              		.section	.text.UART_1_ReadRxStatus,"ax",%progbits
 385              		.align	2
 386              		.global	UART_1_ReadRxStatus
 387              		.thumb
 388              		.thumb_func
 389              		.type	UART_1_ReadRxStatus, %function
 390              	UART_1_ReadRxStatus:
 391              	.LFB8:
 454:Generated_Source\PSoC5/UART_1.c **** 
 455:Generated_Source\PSoC5/UART_1.c **** 
 456:Generated_Source\PSoC5/UART_1.c ****     /*******************************************************************************
 457:Generated_Source\PSoC5/UART_1.c ****     * Function Name: UART_1_ReadRxStatus
 458:Generated_Source\PSoC5/UART_1.c ****     ********************************************************************************
 459:Generated_Source\PSoC5/UART_1.c ****     *
 460:Generated_Source\PSoC5/UART_1.c ****     * Summary:
 461:Generated_Source\PSoC5/UART_1.c ****     *  Returns the current state of the receiver status register and the software
 462:Generated_Source\PSoC5/UART_1.c ****     *  buffer overflow status.
 463:Generated_Source\PSoC5/UART_1.c ****     *
 464:Generated_Source\PSoC5/UART_1.c ****     * Parameters:
ARM GAS  C:\Users\JOSANT~1\AppData\Local\Temp\ccKCgxLc.s 			page 16


 465:Generated_Source\PSoC5/UART_1.c ****     *  None.
 466:Generated_Source\PSoC5/UART_1.c ****     *
 467:Generated_Source\PSoC5/UART_1.c ****     * Return:
 468:Generated_Source\PSoC5/UART_1.c ****     *  Current state of the status register.
 469:Generated_Source\PSoC5/UART_1.c ****     *
 470:Generated_Source\PSoC5/UART_1.c ****     * Side Effect:
 471:Generated_Source\PSoC5/UART_1.c ****     *  All status register bits are clear-on-read except
 472:Generated_Source\PSoC5/UART_1.c ****     *  UART_1_RX_STS_FIFO_NOTEMPTY.
 473:Generated_Source\PSoC5/UART_1.c ****     *  UART_1_RX_STS_FIFO_NOTEMPTY clears immediately after RX data
 474:Generated_Source\PSoC5/UART_1.c ****     *  register read.
 475:Generated_Source\PSoC5/UART_1.c ****     *
 476:Generated_Source\PSoC5/UART_1.c ****     * Global Variables:
 477:Generated_Source\PSoC5/UART_1.c ****     *  UART_1_rxBufferOverflow - used to indicate overload condition.
 478:Generated_Source\PSoC5/UART_1.c ****     *   It set to one in RX interrupt when there isn't free space in
 479:Generated_Source\PSoC5/UART_1.c ****     *   UART_1_rxBufferRead to write new data. This condition returned
 480:Generated_Source\PSoC5/UART_1.c ****     *   and cleared to zero by this API as an
 481:Generated_Source\PSoC5/UART_1.c ****     *   UART_1_RX_STS_SOFT_BUFF_OVER bit along with RX Status register
 482:Generated_Source\PSoC5/UART_1.c ****     *   bits.
 483:Generated_Source\PSoC5/UART_1.c ****     *
 484:Generated_Source\PSoC5/UART_1.c ****     *******************************************************************************/
 485:Generated_Source\PSoC5/UART_1.c ****     uint8 UART_1_ReadRxStatus(void) 
 486:Generated_Source\PSoC5/UART_1.c ****     {
 392              		.loc 1 486 0
 393              		.cfi_startproc
 394              		@ args = 0, pretend = 0, frame = 8
 395              		@ frame_needed = 1, uses_anonymous_args = 0
 396              		@ link register save eliminated.
 397 0000 80B4     		push	{r7}
 398              		.cfi_def_cfa_offset 4
 399              		.cfi_offset 7, -4
 400 0002 83B0     		sub	sp, sp, #12
 401              		.cfi_def_cfa_offset 16
 402 0004 00AF     		add	r7, sp, #0
 403              		.cfi_def_cfa_register 7
 487:Generated_Source\PSoC5/UART_1.c ****         uint8 status;
 488:Generated_Source\PSoC5/UART_1.c **** 
 489:Generated_Source\PSoC5/UART_1.c ****         status = UART_1_RXSTATUS_REG & UART_1_RX_HW_MASK;
 404              		.loc 1 489 0
 405 0006 064B     		ldr	r3, .L26
 406 0008 1B78     		ldrb	r3, [r3]
 407 000a DBB2     		uxtb	r3, r3
 408 000c 03F07F03 		and	r3, r3, #127
 409 0010 FB71     		strb	r3, [r7, #7]
 490:Generated_Source\PSoC5/UART_1.c **** 
 491:Generated_Source\PSoC5/UART_1.c ****     #if (UART_1_RX_INTERRUPT_ENABLED)
 492:Generated_Source\PSoC5/UART_1.c ****         if(UART_1_rxBufferOverflow != 0u)
 493:Generated_Source\PSoC5/UART_1.c ****         {
 494:Generated_Source\PSoC5/UART_1.c ****             status |= UART_1_RX_STS_SOFT_BUFF_OVER;
 495:Generated_Source\PSoC5/UART_1.c ****             UART_1_rxBufferOverflow = 0u;
 496:Generated_Source\PSoC5/UART_1.c ****         }
 497:Generated_Source\PSoC5/UART_1.c ****     #endif /* (UART_1_RX_INTERRUPT_ENABLED) */
 498:Generated_Source\PSoC5/UART_1.c **** 
 499:Generated_Source\PSoC5/UART_1.c ****         return(status);
 410              		.loc 1 499 0
 411 0012 FB79     		ldrb	r3, [r7, #7]	@ zero_extendqisi2
 500:Generated_Source\PSoC5/UART_1.c ****     }
 412              		.loc 1 500 0
ARM GAS  C:\Users\JOSANT~1\AppData\Local\Temp\ccKCgxLc.s 			page 17


 413 0014 1846     		mov	r0, r3
 414 0016 0C37     		adds	r7, r7, #12
 415              		.cfi_def_cfa_offset 4
 416 0018 BD46     		mov	sp, r7
 417              		.cfi_def_cfa_register 13
 418              		@ sp needed
 419 001a 5DF8047B 		ldr	r7, [sp], #4
 420              		.cfi_restore 7
 421              		.cfi_def_cfa_offset 0
 422 001e 7047     		bx	lr
 423              	.L27:
 424              		.align	2
 425              	.L26:
 426 0020 6F640040 		.word	1073767535
 427              		.cfi_endproc
 428              	.LFE8:
 429              		.size	UART_1_ReadRxStatus, .-UART_1_ReadRxStatus
 430              		.section	.text.UART_1_GetChar,"ax",%progbits
 431              		.align	2
 432              		.global	UART_1_GetChar
 433              		.thumb
 434              		.thumb_func
 435              		.type	UART_1_GetChar, %function
 436              	UART_1_GetChar:
 437              	.LFB9:
 501:Generated_Source\PSoC5/UART_1.c **** 
 502:Generated_Source\PSoC5/UART_1.c **** 
 503:Generated_Source\PSoC5/UART_1.c ****     /*******************************************************************************
 504:Generated_Source\PSoC5/UART_1.c ****     * Function Name: UART_1_GetChar
 505:Generated_Source\PSoC5/UART_1.c ****     ********************************************************************************
 506:Generated_Source\PSoC5/UART_1.c ****     *
 507:Generated_Source\PSoC5/UART_1.c ****     * Summary:
 508:Generated_Source\PSoC5/UART_1.c ****     *  Returns the last received byte of data. UART_1_GetChar() is
 509:Generated_Source\PSoC5/UART_1.c ****     *  designed for ASCII characters and returns a uint8 where 1 to 255 are values
 510:Generated_Source\PSoC5/UART_1.c ****     *  for valid characters and 0 indicates an error occurred or no data is present.
 511:Generated_Source\PSoC5/UART_1.c ****     *
 512:Generated_Source\PSoC5/UART_1.c ****     * Parameters:
 513:Generated_Source\PSoC5/UART_1.c ****     *  None.
 514:Generated_Source\PSoC5/UART_1.c ****     *
 515:Generated_Source\PSoC5/UART_1.c ****     * Return:
 516:Generated_Source\PSoC5/UART_1.c ****     *  Character read from UART RX buffer. ASCII characters from 1 to 255 are valid.
 517:Generated_Source\PSoC5/UART_1.c ****     *  A returned zero signifies an error condition or no data available.
 518:Generated_Source\PSoC5/UART_1.c ****     *
 519:Generated_Source\PSoC5/UART_1.c ****     * Global Variables:
 520:Generated_Source\PSoC5/UART_1.c ****     *  UART_1_rxBuffer - RAM buffer pointer for save received data.
 521:Generated_Source\PSoC5/UART_1.c ****     *  UART_1_rxBufferWrite - cyclic index for write to rxBuffer,
 522:Generated_Source\PSoC5/UART_1.c ****     *     checked to identify new data.
 523:Generated_Source\PSoC5/UART_1.c ****     *  UART_1_rxBufferRead - cyclic index for read from rxBuffer,
 524:Generated_Source\PSoC5/UART_1.c ****     *     incremented after each byte has been read from buffer.
 525:Generated_Source\PSoC5/UART_1.c ****     *  UART_1_rxBufferLoopDetect - cleared if loop condition was detected
 526:Generated_Source\PSoC5/UART_1.c ****     *     in RX ISR.
 527:Generated_Source\PSoC5/UART_1.c ****     *
 528:Generated_Source\PSoC5/UART_1.c ****     * Reentrant:
 529:Generated_Source\PSoC5/UART_1.c ****     *  No.
 530:Generated_Source\PSoC5/UART_1.c ****     *
 531:Generated_Source\PSoC5/UART_1.c ****     *******************************************************************************/
 532:Generated_Source\PSoC5/UART_1.c ****     uint8 UART_1_GetChar(void) 
ARM GAS  C:\Users\JOSANT~1\AppData\Local\Temp\ccKCgxLc.s 			page 18


 533:Generated_Source\PSoC5/UART_1.c ****     {
 438              		.loc 1 533 0
 439              		.cfi_startproc
 440              		@ args = 0, pretend = 0, frame = 8
 441              		@ frame_needed = 1, uses_anonymous_args = 0
 442              		@ link register save eliminated.
 443 0000 80B4     		push	{r7}
 444              		.cfi_def_cfa_offset 4
 445              		.cfi_offset 7, -4
 446 0002 83B0     		sub	sp, sp, #12
 447              		.cfi_def_cfa_offset 16
 448 0004 00AF     		add	r7, sp, #0
 449              		.cfi_def_cfa_register 7
 534:Generated_Source\PSoC5/UART_1.c ****         uint8 rxData = 0u;
 450              		.loc 1 534 0
 451 0006 0023     		movs	r3, #0
 452 0008 FB71     		strb	r3, [r7, #7]
 535:Generated_Source\PSoC5/UART_1.c ****         uint8 rxStatus;
 536:Generated_Source\PSoC5/UART_1.c **** 
 537:Generated_Source\PSoC5/UART_1.c ****     #if (UART_1_RX_INTERRUPT_ENABLED)
 538:Generated_Source\PSoC5/UART_1.c ****         uint8 locRxBufferRead;
 539:Generated_Source\PSoC5/UART_1.c ****         uint8 locRxBufferWrite;
 540:Generated_Source\PSoC5/UART_1.c **** 
 541:Generated_Source\PSoC5/UART_1.c ****         /* Protect variables that could change on interrupt */
 542:Generated_Source\PSoC5/UART_1.c ****         UART_1_DisableRxInt();
 543:Generated_Source\PSoC5/UART_1.c **** 
 544:Generated_Source\PSoC5/UART_1.c ****         locRxBufferRead  = UART_1_rxBufferRead;
 545:Generated_Source\PSoC5/UART_1.c ****         locRxBufferWrite = UART_1_rxBufferWrite;
 546:Generated_Source\PSoC5/UART_1.c **** 
 547:Generated_Source\PSoC5/UART_1.c ****         if( (UART_1_rxBufferLoopDetect != 0u) || (locRxBufferRead != locRxBufferWrite) )
 548:Generated_Source\PSoC5/UART_1.c ****         {
 549:Generated_Source\PSoC5/UART_1.c ****             rxData = UART_1_rxBuffer[locRxBufferRead];
 550:Generated_Source\PSoC5/UART_1.c ****             locRxBufferRead++;
 551:Generated_Source\PSoC5/UART_1.c ****             if(locRxBufferRead >= UART_1_RX_BUFFER_SIZE)
 552:Generated_Source\PSoC5/UART_1.c ****             {
 553:Generated_Source\PSoC5/UART_1.c ****                 locRxBufferRead = 0u;
 554:Generated_Source\PSoC5/UART_1.c ****             }
 555:Generated_Source\PSoC5/UART_1.c ****             /* Update the real pointer */
 556:Generated_Source\PSoC5/UART_1.c ****             UART_1_rxBufferRead = locRxBufferRead;
 557:Generated_Source\PSoC5/UART_1.c **** 
 558:Generated_Source\PSoC5/UART_1.c ****             if(UART_1_rxBufferLoopDetect != 0u)
 559:Generated_Source\PSoC5/UART_1.c ****             {
 560:Generated_Source\PSoC5/UART_1.c ****                 UART_1_rxBufferLoopDetect = 0u;
 561:Generated_Source\PSoC5/UART_1.c ****                 #if( (UART_1_RX_INTERRUPT_ENABLED) && (UART_1_FLOW_CONTROL != 0u) )
 562:Generated_Source\PSoC5/UART_1.c ****                     /* When Hardware Flow Control selected - return RX mask */
 563:Generated_Source\PSoC5/UART_1.c ****                     #if( UART_1_HD_ENABLED )
 564:Generated_Source\PSoC5/UART_1.c ****                         if((UART_1_CONTROL_REG & UART_1_CTRL_HD_SEND) == 0u)
 565:Generated_Source\PSoC5/UART_1.c ****                         {   /* In Half duplex mode return RX mask only if
 566:Generated_Source\PSoC5/UART_1.c ****                             *  RX configuration set, otherwise
 567:Generated_Source\PSoC5/UART_1.c ****                             *  mask will be returned in LoadRxConfig() API.
 568:Generated_Source\PSoC5/UART_1.c ****                             */
 569:Generated_Source\PSoC5/UART_1.c ****                             UART_1_RXSTATUS_MASK_REG |= UART_1_RX_STS_FIFO_NOTEMPTY;
 570:Generated_Source\PSoC5/UART_1.c ****                         }
 571:Generated_Source\PSoC5/UART_1.c ****                     #else
 572:Generated_Source\PSoC5/UART_1.c ****                         UART_1_RXSTATUS_MASK_REG |= UART_1_RX_STS_FIFO_NOTEMPTY;
 573:Generated_Source\PSoC5/UART_1.c ****                     #endif /* end UART_1_HD_ENABLED */
 574:Generated_Source\PSoC5/UART_1.c ****                 #endif /* UART_1_RX_INTERRUPT_ENABLED and Hardware flow control*/
ARM GAS  C:\Users\JOSANT~1\AppData\Local\Temp\ccKCgxLc.s 			page 19


 575:Generated_Source\PSoC5/UART_1.c ****             }
 576:Generated_Source\PSoC5/UART_1.c **** 
 577:Generated_Source\PSoC5/UART_1.c ****         }
 578:Generated_Source\PSoC5/UART_1.c ****         else
 579:Generated_Source\PSoC5/UART_1.c ****         {   rxStatus = UART_1_RXSTATUS_REG;
 580:Generated_Source\PSoC5/UART_1.c ****             if((rxStatus & UART_1_RX_STS_FIFO_NOTEMPTY) != 0u)
 581:Generated_Source\PSoC5/UART_1.c ****             {   /* Read received data from FIFO */
 582:Generated_Source\PSoC5/UART_1.c ****                 rxData = UART_1_RXDATA_REG;
 583:Generated_Source\PSoC5/UART_1.c ****                 /*Check status on error*/
 584:Generated_Source\PSoC5/UART_1.c ****                 if((rxStatus & (UART_1_RX_STS_BREAK | UART_1_RX_STS_PAR_ERROR |
 585:Generated_Source\PSoC5/UART_1.c ****                                 UART_1_RX_STS_STOP_ERROR | UART_1_RX_STS_OVERRUN)) != 0u)
 586:Generated_Source\PSoC5/UART_1.c ****                 {
 587:Generated_Source\PSoC5/UART_1.c ****                     rxData = 0u;
 588:Generated_Source\PSoC5/UART_1.c ****                 }
 589:Generated_Source\PSoC5/UART_1.c ****             }
 590:Generated_Source\PSoC5/UART_1.c ****         }
 591:Generated_Source\PSoC5/UART_1.c **** 
 592:Generated_Source\PSoC5/UART_1.c ****         UART_1_EnableRxInt();
 593:Generated_Source\PSoC5/UART_1.c **** 
 594:Generated_Source\PSoC5/UART_1.c ****     #else
 595:Generated_Source\PSoC5/UART_1.c **** 
 596:Generated_Source\PSoC5/UART_1.c ****         rxStatus =UART_1_RXSTATUS_REG;
 453              		.loc 1 596 0
 454 000a 0C4B     		ldr	r3, .L31
 455 000c 1B78     		ldrb	r3, [r3]
 456 000e BB71     		strb	r3, [r7, #6]
 597:Generated_Source\PSoC5/UART_1.c ****         if((rxStatus & UART_1_RX_STS_FIFO_NOTEMPTY) != 0u)
 457              		.loc 1 597 0
 458 0010 BB79     		ldrb	r3, [r7, #6]	@ zero_extendqisi2
 459 0012 03F02003 		and	r3, r3, #32
 460 0016 002B     		cmp	r3, #0
 461 0018 09D0     		beq	.L29
 598:Generated_Source\PSoC5/UART_1.c ****         {
 599:Generated_Source\PSoC5/UART_1.c ****             /* Read received data from FIFO */
 600:Generated_Source\PSoC5/UART_1.c ****             rxData = UART_1_RXDATA_REG;
 462              		.loc 1 600 0
 463 001a 094B     		ldr	r3, .L31+4
 464 001c 1B78     		ldrb	r3, [r3]
 465 001e FB71     		strb	r3, [r7, #7]
 601:Generated_Source\PSoC5/UART_1.c **** 
 602:Generated_Source\PSoC5/UART_1.c ****             /*Check status on error*/
 603:Generated_Source\PSoC5/UART_1.c ****             if((rxStatus & (UART_1_RX_STS_BREAK | UART_1_RX_STS_PAR_ERROR |
 604:Generated_Source\PSoC5/UART_1.c ****                             UART_1_RX_STS_STOP_ERROR | UART_1_RX_STS_OVERRUN)) != 0u)
 466              		.loc 1 604 0
 467 0020 BB79     		ldrb	r3, [r7, #6]	@ zero_extendqisi2
 468 0022 03F01E03 		and	r3, r3, #30
 603:Generated_Source\PSoC5/UART_1.c ****                             UART_1_RX_STS_STOP_ERROR | UART_1_RX_STS_OVERRUN)) != 0u)
 469              		.loc 1 603 0
 470 0026 002B     		cmp	r3, #0
 471 0028 01D0     		beq	.L29
 605:Generated_Source\PSoC5/UART_1.c ****             {
 606:Generated_Source\PSoC5/UART_1.c ****                 rxData = 0u;
 472              		.loc 1 606 0
 473 002a 0023     		movs	r3, #0
 474 002c FB71     		strb	r3, [r7, #7]
 475              	.L29:
 607:Generated_Source\PSoC5/UART_1.c ****             }
ARM GAS  C:\Users\JOSANT~1\AppData\Local\Temp\ccKCgxLc.s 			page 20


 608:Generated_Source\PSoC5/UART_1.c ****         }
 609:Generated_Source\PSoC5/UART_1.c ****     #endif /* (UART_1_RX_INTERRUPT_ENABLED) */
 610:Generated_Source\PSoC5/UART_1.c **** 
 611:Generated_Source\PSoC5/UART_1.c ****         return(rxData);
 476              		.loc 1 611 0
 477 002e FB79     		ldrb	r3, [r7, #7]	@ zero_extendqisi2
 612:Generated_Source\PSoC5/UART_1.c ****     }
 478              		.loc 1 612 0
 479 0030 1846     		mov	r0, r3
 480 0032 0C37     		adds	r7, r7, #12
 481              		.cfi_def_cfa_offset 4
 482 0034 BD46     		mov	sp, r7
 483              		.cfi_def_cfa_register 13
 484              		@ sp needed
 485 0036 5DF8047B 		ldr	r7, [sp], #4
 486              		.cfi_restore 7
 487              		.cfi_def_cfa_offset 0
 488 003a 7047     		bx	lr
 489              	.L32:
 490              		.align	2
 491              	.L31:
 492 003c 6F640040 		.word	1073767535
 493 0040 4C640040 		.word	1073767500
 494              		.cfi_endproc
 495              	.LFE9:
 496              		.size	UART_1_GetChar, .-UART_1_GetChar
 497              		.section	.text.UART_1_GetByte,"ax",%progbits
 498              		.align	2
 499              		.global	UART_1_GetByte
 500              		.thumb
 501              		.thumb_func
 502              		.type	UART_1_GetByte, %function
 503              	UART_1_GetByte:
 504              	.LFB10:
 613:Generated_Source\PSoC5/UART_1.c **** 
 614:Generated_Source\PSoC5/UART_1.c **** 
 615:Generated_Source\PSoC5/UART_1.c ****     /*******************************************************************************
 616:Generated_Source\PSoC5/UART_1.c ****     * Function Name: UART_1_GetByte
 617:Generated_Source\PSoC5/UART_1.c ****     ********************************************************************************
 618:Generated_Source\PSoC5/UART_1.c ****     *
 619:Generated_Source\PSoC5/UART_1.c ****     * Summary:
 620:Generated_Source\PSoC5/UART_1.c ****     *  Reads UART RX buffer immediately, returns received character and error
 621:Generated_Source\PSoC5/UART_1.c ****     *  condition.
 622:Generated_Source\PSoC5/UART_1.c ****     *
 623:Generated_Source\PSoC5/UART_1.c ****     * Parameters:
 624:Generated_Source\PSoC5/UART_1.c ****     *  None.
 625:Generated_Source\PSoC5/UART_1.c ****     *
 626:Generated_Source\PSoC5/UART_1.c ****     * Return:
 627:Generated_Source\PSoC5/UART_1.c ****     *  MSB contains status and LSB contains UART RX data. If the MSB is nonzero,
 628:Generated_Source\PSoC5/UART_1.c ****     *  an error has occurred.
 629:Generated_Source\PSoC5/UART_1.c ****     *
 630:Generated_Source\PSoC5/UART_1.c ****     * Reentrant:
 631:Generated_Source\PSoC5/UART_1.c ****     *  No.
 632:Generated_Source\PSoC5/UART_1.c ****     *
 633:Generated_Source\PSoC5/UART_1.c ****     *******************************************************************************/
 634:Generated_Source\PSoC5/UART_1.c ****     uint16 UART_1_GetByte(void) 
 635:Generated_Source\PSoC5/UART_1.c ****     {
ARM GAS  C:\Users\JOSANT~1\AppData\Local\Temp\ccKCgxLc.s 			page 21


 505              		.loc 1 635 0
 506              		.cfi_startproc
 507              		@ args = 0, pretend = 0, frame = 0
 508              		@ frame_needed = 1, uses_anonymous_args = 0
 509 0000 98B5     		push	{r3, r4, r7, lr}
 510              		.cfi_def_cfa_offset 16
 511              		.cfi_offset 3, -16
 512              		.cfi_offset 4, -12
 513              		.cfi_offset 7, -8
 514              		.cfi_offset 14, -4
 515 0002 00AF     		add	r7, sp, #0
 516              		.cfi_def_cfa_register 7
 636:Generated_Source\PSoC5/UART_1.c ****         
 637:Generated_Source\PSoC5/UART_1.c ****     #if (UART_1_RX_INTERRUPT_ENABLED)
 638:Generated_Source\PSoC5/UART_1.c ****         uint16 locErrorStatus;
 639:Generated_Source\PSoC5/UART_1.c ****         /* Protect variables that could change on interrupt */
 640:Generated_Source\PSoC5/UART_1.c ****         UART_1_DisableRxInt();
 641:Generated_Source\PSoC5/UART_1.c ****         locErrorStatus = (uint16)UART_1_errorStatus;
 642:Generated_Source\PSoC5/UART_1.c ****         UART_1_errorStatus = 0u;
 643:Generated_Source\PSoC5/UART_1.c ****         UART_1_EnableRxInt();
 644:Generated_Source\PSoC5/UART_1.c ****         return ( (uint16)(locErrorStatus << 8u) | UART_1_ReadRxData() );
 645:Generated_Source\PSoC5/UART_1.c ****     #else
 646:Generated_Source\PSoC5/UART_1.c ****         return ( ((uint16)UART_1_ReadRxStatus() << 8u) | UART_1_ReadRxData() );
 517              		.loc 1 646 0
 518 0004 FFF7FEFF 		bl	UART_1_ReadRxStatus
 519 0008 0346     		mov	r3, r0
 520 000a 1B02     		lsls	r3, r3, #8
 521 000c 9CB2     		uxth	r4, r3
 522 000e FFF7FEFF 		bl	UART_1_ReadRxData
 523 0012 0346     		mov	r3, r0
 524 0014 9BB2     		uxth	r3, r3
 525 0016 2246     		mov	r2, r4	@ movhi
 526 0018 1343     		orrs	r3, r3, r2
 527 001a 9BB2     		uxth	r3, r3
 528 001c 9BB2     		uxth	r3, r3
 647:Generated_Source\PSoC5/UART_1.c ****     #endif /* UART_1_RX_INTERRUPT_ENABLED */
 648:Generated_Source\PSoC5/UART_1.c ****         
 649:Generated_Source\PSoC5/UART_1.c ****     }
 529              		.loc 1 649 0
 530 001e 1846     		mov	r0, r3
 531 0020 98BD     		pop	{r3, r4, r7, pc}
 532              		.cfi_endproc
 533              	.LFE10:
 534              		.size	UART_1_GetByte, .-UART_1_GetByte
 535 0022 00BF     		.section	.text.UART_1_GetRxBufferSize,"ax",%progbits
 536              		.align	2
 537              		.global	UART_1_GetRxBufferSize
 538              		.thumb
 539              		.thumb_func
 540              		.type	UART_1_GetRxBufferSize, %function
 541              	UART_1_GetRxBufferSize:
 542              	.LFB11:
 650:Generated_Source\PSoC5/UART_1.c **** 
 651:Generated_Source\PSoC5/UART_1.c **** 
 652:Generated_Source\PSoC5/UART_1.c ****     /*******************************************************************************
 653:Generated_Source\PSoC5/UART_1.c ****     * Function Name: UART_1_GetRxBufferSize
 654:Generated_Source\PSoC5/UART_1.c ****     ********************************************************************************
ARM GAS  C:\Users\JOSANT~1\AppData\Local\Temp\ccKCgxLc.s 			page 22


 655:Generated_Source\PSoC5/UART_1.c ****     *
 656:Generated_Source\PSoC5/UART_1.c ****     * Summary:
 657:Generated_Source\PSoC5/UART_1.c ****     *  Returns the number of received bytes available in the RX buffer.
 658:Generated_Source\PSoC5/UART_1.c ****     *  * RX software buffer is disabled (RX Buffer Size parameter is equal to 4): 
 659:Generated_Source\PSoC5/UART_1.c ****     *    returns 0 for empty RX FIFO or 1 for not empty RX FIFO.
 660:Generated_Source\PSoC5/UART_1.c ****     *  * RX software buffer is enabled: returns the number of bytes available in 
 661:Generated_Source\PSoC5/UART_1.c ****     *    the RX software buffer. Bytes available in the RX FIFO do not take to 
 662:Generated_Source\PSoC5/UART_1.c ****     *    account.
 663:Generated_Source\PSoC5/UART_1.c ****     *
 664:Generated_Source\PSoC5/UART_1.c ****     * Parameters:
 665:Generated_Source\PSoC5/UART_1.c ****     *  None.
 666:Generated_Source\PSoC5/UART_1.c ****     *
 667:Generated_Source\PSoC5/UART_1.c ****     * Return:
 668:Generated_Source\PSoC5/UART_1.c ****     *  uint8: Number of bytes in the RX buffer. 
 669:Generated_Source\PSoC5/UART_1.c ****     *    Return value type depends on RX Buffer Size parameter.
 670:Generated_Source\PSoC5/UART_1.c ****     *
 671:Generated_Source\PSoC5/UART_1.c ****     * Global Variables:
 672:Generated_Source\PSoC5/UART_1.c ****     *  UART_1_rxBufferWrite - used to calculate left bytes.
 673:Generated_Source\PSoC5/UART_1.c ****     *  UART_1_rxBufferRead - used to calculate left bytes.
 674:Generated_Source\PSoC5/UART_1.c ****     *  UART_1_rxBufferLoopDetect - checked to decide left bytes amount.
 675:Generated_Source\PSoC5/UART_1.c ****     *
 676:Generated_Source\PSoC5/UART_1.c ****     * Reentrant:
 677:Generated_Source\PSoC5/UART_1.c ****     *  No.
 678:Generated_Source\PSoC5/UART_1.c ****     *
 679:Generated_Source\PSoC5/UART_1.c ****     * Theory:
 680:Generated_Source\PSoC5/UART_1.c ****     *  Allows the user to find out how full the RX Buffer is.
 681:Generated_Source\PSoC5/UART_1.c ****     *
 682:Generated_Source\PSoC5/UART_1.c ****     *******************************************************************************/
 683:Generated_Source\PSoC5/UART_1.c ****     uint8 UART_1_GetRxBufferSize(void)
 684:Generated_Source\PSoC5/UART_1.c ****                                                             
 685:Generated_Source\PSoC5/UART_1.c ****     {
 543              		.loc 1 685 0
 544              		.cfi_startproc
 545              		@ args = 0, pretend = 0, frame = 8
 546              		@ frame_needed = 1, uses_anonymous_args = 0
 547              		@ link register save eliminated.
 548 0000 80B4     		push	{r7}
 549              		.cfi_def_cfa_offset 4
 550              		.cfi_offset 7, -4
 551 0002 83B0     		sub	sp, sp, #12
 552              		.cfi_def_cfa_offset 16
 553 0004 00AF     		add	r7, sp, #0
 554              		.cfi_def_cfa_register 7
 686:Generated_Source\PSoC5/UART_1.c ****         uint8 size;
 687:Generated_Source\PSoC5/UART_1.c **** 
 688:Generated_Source\PSoC5/UART_1.c ****     #if (UART_1_RX_INTERRUPT_ENABLED)
 689:Generated_Source\PSoC5/UART_1.c **** 
 690:Generated_Source\PSoC5/UART_1.c ****         /* Protect variables that could change on interrupt */
 691:Generated_Source\PSoC5/UART_1.c ****         UART_1_DisableRxInt();
 692:Generated_Source\PSoC5/UART_1.c **** 
 693:Generated_Source\PSoC5/UART_1.c ****         if(UART_1_rxBufferRead == UART_1_rxBufferWrite)
 694:Generated_Source\PSoC5/UART_1.c ****         {
 695:Generated_Source\PSoC5/UART_1.c ****             if(UART_1_rxBufferLoopDetect != 0u)
 696:Generated_Source\PSoC5/UART_1.c ****             {
 697:Generated_Source\PSoC5/UART_1.c ****                 size = UART_1_RX_BUFFER_SIZE;
 698:Generated_Source\PSoC5/UART_1.c ****             }
 699:Generated_Source\PSoC5/UART_1.c ****             else
ARM GAS  C:\Users\JOSANT~1\AppData\Local\Temp\ccKCgxLc.s 			page 23


 700:Generated_Source\PSoC5/UART_1.c ****             {
 701:Generated_Source\PSoC5/UART_1.c ****                 size = 0u;
 702:Generated_Source\PSoC5/UART_1.c ****             }
 703:Generated_Source\PSoC5/UART_1.c ****         }
 704:Generated_Source\PSoC5/UART_1.c ****         else if(UART_1_rxBufferRead < UART_1_rxBufferWrite)
 705:Generated_Source\PSoC5/UART_1.c ****         {
 706:Generated_Source\PSoC5/UART_1.c ****             size = (UART_1_rxBufferWrite - UART_1_rxBufferRead);
 707:Generated_Source\PSoC5/UART_1.c ****         }
 708:Generated_Source\PSoC5/UART_1.c ****         else
 709:Generated_Source\PSoC5/UART_1.c ****         {
 710:Generated_Source\PSoC5/UART_1.c ****             size = (UART_1_RX_BUFFER_SIZE - UART_1_rxBufferRead) + UART_1_rxBufferWrite;
 711:Generated_Source\PSoC5/UART_1.c ****         }
 712:Generated_Source\PSoC5/UART_1.c **** 
 713:Generated_Source\PSoC5/UART_1.c ****         UART_1_EnableRxInt();
 714:Generated_Source\PSoC5/UART_1.c **** 
 715:Generated_Source\PSoC5/UART_1.c ****     #else
 716:Generated_Source\PSoC5/UART_1.c **** 
 717:Generated_Source\PSoC5/UART_1.c ****         /* We can only know if there is data in the fifo. */
 718:Generated_Source\PSoC5/UART_1.c ****         size = ((UART_1_RXSTATUS_REG & UART_1_RX_STS_FIFO_NOTEMPTY) != 0u) ? 1u : 0u;
 555              		.loc 1 718 0
 556 0006 094B     		ldr	r3, .L39
 557 0008 1B78     		ldrb	r3, [r3]
 558 000a DBB2     		uxtb	r3, r3
 559 000c 03F02003 		and	r3, r3, #32
 560 0010 002B     		cmp	r3, #0
 561 0012 01D0     		beq	.L36
 562              		.loc 1 718 0 is_stmt 0 discriminator 1
 563 0014 0123     		movs	r3, #1
 564 0016 00E0     		b	.L37
 565              	.L36:
 566              		.loc 1 718 0 discriminator 2
 567 0018 0023     		movs	r3, #0
 568              	.L37:
 569              		.loc 1 718 0 discriminator 4
 570 001a FB71     		strb	r3, [r7, #7]
 719:Generated_Source\PSoC5/UART_1.c **** 
 720:Generated_Source\PSoC5/UART_1.c ****     #endif /* (UART_1_RX_INTERRUPT_ENABLED) */
 721:Generated_Source\PSoC5/UART_1.c **** 
 722:Generated_Source\PSoC5/UART_1.c ****         return(size);
 571              		.loc 1 722 0 is_stmt 1 discriminator 4
 572 001c FB79     		ldrb	r3, [r7, #7]	@ zero_extendqisi2
 723:Generated_Source\PSoC5/UART_1.c ****     }
 573              		.loc 1 723 0 discriminator 4
 574 001e 1846     		mov	r0, r3
 575 0020 0C37     		adds	r7, r7, #12
 576              		.cfi_def_cfa_offset 4
 577 0022 BD46     		mov	sp, r7
 578              		.cfi_def_cfa_register 13
 579              		@ sp needed
 580 0024 5DF8047B 		ldr	r7, [sp], #4
 581              		.cfi_restore 7
 582              		.cfi_def_cfa_offset 0
 583 0028 7047     		bx	lr
 584              	.L40:
 585 002a 00BF     		.align	2
 586              	.L39:
 587 002c 6F640040 		.word	1073767535
ARM GAS  C:\Users\JOSANT~1\AppData\Local\Temp\ccKCgxLc.s 			page 24


 588              		.cfi_endproc
 589              	.LFE11:
 590              		.size	UART_1_GetRxBufferSize, .-UART_1_GetRxBufferSize
 591              		.section	.text.UART_1_ClearRxBuffer,"ax",%progbits
 592              		.align	2
 593              		.global	UART_1_ClearRxBuffer
 594              		.thumb
 595              		.thumb_func
 596              		.type	UART_1_ClearRxBuffer, %function
 597              	UART_1_ClearRxBuffer:
 598              	.LFB12:
 724:Generated_Source\PSoC5/UART_1.c **** 
 725:Generated_Source\PSoC5/UART_1.c **** 
 726:Generated_Source\PSoC5/UART_1.c ****     /*******************************************************************************
 727:Generated_Source\PSoC5/UART_1.c ****     * Function Name: UART_1_ClearRxBuffer
 728:Generated_Source\PSoC5/UART_1.c ****     ********************************************************************************
 729:Generated_Source\PSoC5/UART_1.c ****     *
 730:Generated_Source\PSoC5/UART_1.c ****     * Summary:
 731:Generated_Source\PSoC5/UART_1.c ****     *  Clears the receiver memory buffer and hardware RX FIFO of all received data.
 732:Generated_Source\PSoC5/UART_1.c ****     *
 733:Generated_Source\PSoC5/UART_1.c ****     * Parameters:
 734:Generated_Source\PSoC5/UART_1.c ****     *  None.
 735:Generated_Source\PSoC5/UART_1.c ****     *
 736:Generated_Source\PSoC5/UART_1.c ****     * Return:
 737:Generated_Source\PSoC5/UART_1.c ****     *  None.
 738:Generated_Source\PSoC5/UART_1.c ****     *
 739:Generated_Source\PSoC5/UART_1.c ****     * Global Variables:
 740:Generated_Source\PSoC5/UART_1.c ****     *  UART_1_rxBufferWrite - cleared to zero.
 741:Generated_Source\PSoC5/UART_1.c ****     *  UART_1_rxBufferRead - cleared to zero.
 742:Generated_Source\PSoC5/UART_1.c ****     *  UART_1_rxBufferLoopDetect - cleared to zero.
 743:Generated_Source\PSoC5/UART_1.c ****     *  UART_1_rxBufferOverflow - cleared to zero.
 744:Generated_Source\PSoC5/UART_1.c ****     *
 745:Generated_Source\PSoC5/UART_1.c ****     * Reentrant:
 746:Generated_Source\PSoC5/UART_1.c ****     *  No.
 747:Generated_Source\PSoC5/UART_1.c ****     *
 748:Generated_Source\PSoC5/UART_1.c ****     * Theory:
 749:Generated_Source\PSoC5/UART_1.c ****     *  Setting the pointers to zero makes the system believe there is no data to
 750:Generated_Source\PSoC5/UART_1.c ****     *  read and writing will resume at address 0 overwriting any data that may
 751:Generated_Source\PSoC5/UART_1.c ****     *  have remained in the RAM.
 752:Generated_Source\PSoC5/UART_1.c ****     *
 753:Generated_Source\PSoC5/UART_1.c ****     * Side Effects:
 754:Generated_Source\PSoC5/UART_1.c ****     *  Any received data not read from the RAM or FIFO buffer will be lost.
 755:Generated_Source\PSoC5/UART_1.c ****     *
 756:Generated_Source\PSoC5/UART_1.c ****     *******************************************************************************/
 757:Generated_Source\PSoC5/UART_1.c ****     void UART_1_ClearRxBuffer(void) 
 758:Generated_Source\PSoC5/UART_1.c ****     {
 599              		.loc 1 758 0
 600              		.cfi_startproc
 601              		@ args = 0, pretend = 0, frame = 8
 602              		@ frame_needed = 1, uses_anonymous_args = 0
 603 0000 80B5     		push	{r7, lr}
 604              		.cfi_def_cfa_offset 8
 605              		.cfi_offset 7, -8
 606              		.cfi_offset 14, -4
 607 0002 82B0     		sub	sp, sp, #8
 608              		.cfi_def_cfa_offset 16
 609 0004 00AF     		add	r7, sp, #0
ARM GAS  C:\Users\JOSANT~1\AppData\Local\Temp\ccKCgxLc.s 			page 25


 610              		.cfi_def_cfa_register 7
 759:Generated_Source\PSoC5/UART_1.c ****         uint8 enableInterrupts;
 760:Generated_Source\PSoC5/UART_1.c **** 
 761:Generated_Source\PSoC5/UART_1.c ****         /* Clear the HW FIFO */
 762:Generated_Source\PSoC5/UART_1.c ****         enableInterrupts = CyEnterCriticalSection();
 611              		.loc 1 762 0
 612 0006 FFF7FEFF 		bl	CyEnterCriticalSection
 613 000a 0346     		mov	r3, r0
 614 000c FB71     		strb	r3, [r7, #7]
 763:Generated_Source\PSoC5/UART_1.c ****         UART_1_RXDATA_AUX_CTL_REG |= (uint8)  UART_1_RX_FIFO_CLR;
 615              		.loc 1 763 0
 616 000e 0B4A     		ldr	r2, .L42
 617 0010 0A4B     		ldr	r3, .L42
 618 0012 1B78     		ldrb	r3, [r3]
 619 0014 DBB2     		uxtb	r3, r3
 620 0016 43F00103 		orr	r3, r3, #1
 621 001a DBB2     		uxtb	r3, r3
 622 001c 1370     		strb	r3, [r2]
 764:Generated_Source\PSoC5/UART_1.c ****         UART_1_RXDATA_AUX_CTL_REG &= (uint8) ~UART_1_RX_FIFO_CLR;
 623              		.loc 1 764 0
 624 001e 074A     		ldr	r2, .L42
 625 0020 064B     		ldr	r3, .L42
 626 0022 1B78     		ldrb	r3, [r3]
 627 0024 DBB2     		uxtb	r3, r3
 628 0026 23F00103 		bic	r3, r3, #1
 629 002a DBB2     		uxtb	r3, r3
 630 002c 1370     		strb	r3, [r2]
 765:Generated_Source\PSoC5/UART_1.c ****         CyExitCriticalSection(enableInterrupts);
 631              		.loc 1 765 0
 632 002e FB79     		ldrb	r3, [r7, #7]	@ zero_extendqisi2
 633 0030 1846     		mov	r0, r3
 634 0032 FFF7FEFF 		bl	CyExitCriticalSection
 766:Generated_Source\PSoC5/UART_1.c **** 
 767:Generated_Source\PSoC5/UART_1.c ****     #if (UART_1_RX_INTERRUPT_ENABLED)
 768:Generated_Source\PSoC5/UART_1.c **** 
 769:Generated_Source\PSoC5/UART_1.c ****         /* Protect variables that could change on interrupt. */
 770:Generated_Source\PSoC5/UART_1.c ****         UART_1_DisableRxInt();
 771:Generated_Source\PSoC5/UART_1.c **** 
 772:Generated_Source\PSoC5/UART_1.c ****         UART_1_rxBufferRead = 0u;
 773:Generated_Source\PSoC5/UART_1.c ****         UART_1_rxBufferWrite = 0u;
 774:Generated_Source\PSoC5/UART_1.c ****         UART_1_rxBufferLoopDetect = 0u;
 775:Generated_Source\PSoC5/UART_1.c ****         UART_1_rxBufferOverflow = 0u;
 776:Generated_Source\PSoC5/UART_1.c **** 
 777:Generated_Source\PSoC5/UART_1.c ****         UART_1_EnableRxInt();
 778:Generated_Source\PSoC5/UART_1.c **** 
 779:Generated_Source\PSoC5/UART_1.c ****     #endif /* (UART_1_RX_INTERRUPT_ENABLED) */
 780:Generated_Source\PSoC5/UART_1.c **** 
 781:Generated_Source\PSoC5/UART_1.c ****     }
 635              		.loc 1 781 0
 636 0036 0837     		adds	r7, r7, #8
 637              		.cfi_def_cfa_offset 8
 638 0038 BD46     		mov	sp, r7
 639              		.cfi_def_cfa_register 13
 640              		@ sp needed
 641 003a 80BD     		pop	{r7, pc}
 642              	.L43:
 643              		.align	2
ARM GAS  C:\Users\JOSANT~1\AppData\Local\Temp\ccKCgxLc.s 			page 26


 644              	.L42:
 645 003c 9C640040 		.word	1073767580
 646              		.cfi_endproc
 647              	.LFE12:
 648              		.size	UART_1_ClearRxBuffer, .-UART_1_ClearRxBuffer
 649              		.section	.text.UART_1_SetRxAddressMode,"ax",%progbits
 650              		.align	2
 651              		.global	UART_1_SetRxAddressMode
 652              		.thumb
 653              		.thumb_func
 654              		.type	UART_1_SetRxAddressMode, %function
 655              	UART_1_SetRxAddressMode:
 656              	.LFB13:
 782:Generated_Source\PSoC5/UART_1.c **** 
 783:Generated_Source\PSoC5/UART_1.c **** 
 784:Generated_Source\PSoC5/UART_1.c ****     /*******************************************************************************
 785:Generated_Source\PSoC5/UART_1.c ****     * Function Name: UART_1_SetRxAddressMode
 786:Generated_Source\PSoC5/UART_1.c ****     ********************************************************************************
 787:Generated_Source\PSoC5/UART_1.c ****     *
 788:Generated_Source\PSoC5/UART_1.c ****     * Summary:
 789:Generated_Source\PSoC5/UART_1.c ****     *  Sets the software controlled Addressing mode used by the RX portion of the
 790:Generated_Source\PSoC5/UART_1.c ****     *  UART.
 791:Generated_Source\PSoC5/UART_1.c ****     *
 792:Generated_Source\PSoC5/UART_1.c ****     * Parameters:
 793:Generated_Source\PSoC5/UART_1.c ****     *  addressMode: Enumerated value indicating the mode of RX addressing
 794:Generated_Source\PSoC5/UART_1.c ****     *  UART_1__B_UART__AM_SW_BYTE_BYTE -  Software Byte-by-Byte address
 795:Generated_Source\PSoC5/UART_1.c ****     *                                               detection
 796:Generated_Source\PSoC5/UART_1.c ****     *  UART_1__B_UART__AM_SW_DETECT_TO_BUFFER - Software Detect to Buffer
 797:Generated_Source\PSoC5/UART_1.c ****     *                                               address detection
 798:Generated_Source\PSoC5/UART_1.c ****     *  UART_1__B_UART__AM_HW_BYTE_BY_BYTE - Hardware Byte-by-Byte address
 799:Generated_Source\PSoC5/UART_1.c ****     *                                               detection
 800:Generated_Source\PSoC5/UART_1.c ****     *  UART_1__B_UART__AM_HW_DETECT_TO_BUFFER - Hardware Detect to Buffer
 801:Generated_Source\PSoC5/UART_1.c ****     *                                               address detection
 802:Generated_Source\PSoC5/UART_1.c ****     *  UART_1__B_UART__AM_NONE - No address detection
 803:Generated_Source\PSoC5/UART_1.c ****     *
 804:Generated_Source\PSoC5/UART_1.c ****     * Return:
 805:Generated_Source\PSoC5/UART_1.c ****     *  None.
 806:Generated_Source\PSoC5/UART_1.c ****     *
 807:Generated_Source\PSoC5/UART_1.c ****     * Global Variables:
 808:Generated_Source\PSoC5/UART_1.c ****     *  UART_1_rxAddressMode - the parameter stored in this variable for
 809:Generated_Source\PSoC5/UART_1.c ****     *   the farther usage in RX ISR.
 810:Generated_Source\PSoC5/UART_1.c ****     *  UART_1_rxAddressDetected - set to initial state (0).
 811:Generated_Source\PSoC5/UART_1.c ****     *
 812:Generated_Source\PSoC5/UART_1.c ****     *******************************************************************************/
 813:Generated_Source\PSoC5/UART_1.c ****     void UART_1_SetRxAddressMode(uint8 addressMode)
 814:Generated_Source\PSoC5/UART_1.c ****                                                         
 815:Generated_Source\PSoC5/UART_1.c ****     {
 657              		.loc 1 815 0
 658              		.cfi_startproc
 659              		@ args = 0, pretend = 0, frame = 8
 660              		@ frame_needed = 1, uses_anonymous_args = 0
 661              		@ link register save eliminated.
 662 0000 80B4     		push	{r7}
 663              		.cfi_def_cfa_offset 4
 664              		.cfi_offset 7, -4
 665 0002 83B0     		sub	sp, sp, #12
 666              		.cfi_def_cfa_offset 16
ARM GAS  C:\Users\JOSANT~1\AppData\Local\Temp\ccKCgxLc.s 			page 27


 667 0004 00AF     		add	r7, sp, #0
 668              		.cfi_def_cfa_register 7
 669 0006 0346     		mov	r3, r0
 670 0008 FB71     		strb	r3, [r7, #7]
 816:Generated_Source\PSoC5/UART_1.c ****         #if(UART_1_RXHW_ADDRESS_ENABLED)
 817:Generated_Source\PSoC5/UART_1.c ****             #if(UART_1_CONTROL_REG_REMOVED)
 818:Generated_Source\PSoC5/UART_1.c ****                 if(0u != addressMode)
 819:Generated_Source\PSoC5/UART_1.c ****                 {
 820:Generated_Source\PSoC5/UART_1.c ****                     /* Suppress compiler warning */
 821:Generated_Source\PSoC5/UART_1.c ****                 }
 822:Generated_Source\PSoC5/UART_1.c ****             #else /* UART_1_CONTROL_REG_REMOVED */
 823:Generated_Source\PSoC5/UART_1.c ****                 uint8 tmpCtrl;
 824:Generated_Source\PSoC5/UART_1.c ****                 tmpCtrl = UART_1_CONTROL_REG & (uint8)~UART_1_CTRL_RXADDR_MODE_MASK;
 825:Generated_Source\PSoC5/UART_1.c ****                 tmpCtrl |= (uint8)(addressMode << UART_1_CTRL_RXADDR_MODE0_SHIFT);
 826:Generated_Source\PSoC5/UART_1.c ****                 UART_1_CONTROL_REG = tmpCtrl;
 827:Generated_Source\PSoC5/UART_1.c **** 
 828:Generated_Source\PSoC5/UART_1.c ****                 #if(UART_1_RX_INTERRUPT_ENABLED && \
 829:Generated_Source\PSoC5/UART_1.c ****                    (UART_1_RXBUFFERSIZE > UART_1_FIFO_LENGTH) )
 830:Generated_Source\PSoC5/UART_1.c ****                     UART_1_rxAddressMode = addressMode;
 831:Generated_Source\PSoC5/UART_1.c ****                     UART_1_rxAddressDetected = 0u;
 832:Generated_Source\PSoC5/UART_1.c ****                 #endif /* End UART_1_RXBUFFERSIZE > UART_1_FIFO_LENGTH*/
 833:Generated_Source\PSoC5/UART_1.c ****             #endif /* End UART_1_CONTROL_REG_REMOVED */
 834:Generated_Source\PSoC5/UART_1.c ****         #else /* UART_1_RXHW_ADDRESS_ENABLED */
 835:Generated_Source\PSoC5/UART_1.c ****             if(0u != addressMode)
 836:Generated_Source\PSoC5/UART_1.c ****             {
 837:Generated_Source\PSoC5/UART_1.c ****                 /* Suppress compiler warning */
 838:Generated_Source\PSoC5/UART_1.c ****             }
 839:Generated_Source\PSoC5/UART_1.c ****         #endif /* End UART_1_RXHW_ADDRESS_ENABLED */
 840:Generated_Source\PSoC5/UART_1.c ****     }
 671              		.loc 1 840 0
 672 000a 0C37     		adds	r7, r7, #12
 673              		.cfi_def_cfa_offset 4
 674 000c BD46     		mov	sp, r7
 675              		.cfi_def_cfa_register 13
 676              		@ sp needed
 677 000e 5DF8047B 		ldr	r7, [sp], #4
 678              		.cfi_restore 7
 679              		.cfi_def_cfa_offset 0
 680 0012 7047     		bx	lr
 681              		.cfi_endproc
 682              	.LFE13:
 683              		.size	UART_1_SetRxAddressMode, .-UART_1_SetRxAddressMode
 684              		.section	.text.UART_1_SetRxAddress1,"ax",%progbits
 685              		.align	2
 686              		.global	UART_1_SetRxAddress1
 687              		.thumb
 688              		.thumb_func
 689              		.type	UART_1_SetRxAddress1, %function
 690              	UART_1_SetRxAddress1:
 691              	.LFB14:
 841:Generated_Source\PSoC5/UART_1.c **** 
 842:Generated_Source\PSoC5/UART_1.c **** 
 843:Generated_Source\PSoC5/UART_1.c ****     /*******************************************************************************
 844:Generated_Source\PSoC5/UART_1.c ****     * Function Name: UART_1_SetRxAddress1
 845:Generated_Source\PSoC5/UART_1.c ****     ********************************************************************************
 846:Generated_Source\PSoC5/UART_1.c ****     *
 847:Generated_Source\PSoC5/UART_1.c ****     * Summary:
ARM GAS  C:\Users\JOSANT~1\AppData\Local\Temp\ccKCgxLc.s 			page 28


 848:Generated_Source\PSoC5/UART_1.c ****     *  Sets the first of two hardware-detectable receiver addresses.
 849:Generated_Source\PSoC5/UART_1.c ****     *
 850:Generated_Source\PSoC5/UART_1.c ****     * Parameters:
 851:Generated_Source\PSoC5/UART_1.c ****     *  address: Address #1 for hardware address detection.
 852:Generated_Source\PSoC5/UART_1.c ****     *
 853:Generated_Source\PSoC5/UART_1.c ****     * Return:
 854:Generated_Source\PSoC5/UART_1.c ****     *  None.
 855:Generated_Source\PSoC5/UART_1.c ****     *
 856:Generated_Source\PSoC5/UART_1.c ****     *******************************************************************************/
 857:Generated_Source\PSoC5/UART_1.c ****     void UART_1_SetRxAddress1(uint8 address) 
 858:Generated_Source\PSoC5/UART_1.c ****     {
 692              		.loc 1 858 0
 693              		.cfi_startproc
 694              		@ args = 0, pretend = 0, frame = 8
 695              		@ frame_needed = 1, uses_anonymous_args = 0
 696              		@ link register save eliminated.
 697 0000 80B4     		push	{r7}
 698              		.cfi_def_cfa_offset 4
 699              		.cfi_offset 7, -4
 700 0002 83B0     		sub	sp, sp, #12
 701              		.cfi_def_cfa_offset 16
 702 0004 00AF     		add	r7, sp, #0
 703              		.cfi_def_cfa_register 7
 704 0006 0346     		mov	r3, r0
 705 0008 FB71     		strb	r3, [r7, #7]
 859:Generated_Source\PSoC5/UART_1.c ****         UART_1_RXADDRESS1_REG = address;
 706              		.loc 1 859 0
 707 000a 044A     		ldr	r2, .L46
 708 000c FB79     		ldrb	r3, [r7, #7]
 709 000e 1370     		strb	r3, [r2]
 860:Generated_Source\PSoC5/UART_1.c ****     }
 710              		.loc 1 860 0
 711 0010 0C37     		adds	r7, r7, #12
 712              		.cfi_def_cfa_offset 4
 713 0012 BD46     		mov	sp, r7
 714              		.cfi_def_cfa_register 13
 715              		@ sp needed
 716 0014 5DF8047B 		ldr	r7, [sp], #4
 717              		.cfi_restore 7
 718              		.cfi_def_cfa_offset 0
 719 0018 7047     		bx	lr
 720              	.L47:
 721 001a 00BF     		.align	2
 722              	.L46:
 723 001c 2C640040 		.word	1073767468
 724              		.cfi_endproc
 725              	.LFE14:
 726              		.size	UART_1_SetRxAddress1, .-UART_1_SetRxAddress1
 727              		.section	.text.UART_1_SetRxAddress2,"ax",%progbits
 728              		.align	2
 729              		.global	UART_1_SetRxAddress2
 730              		.thumb
 731              		.thumb_func
 732              		.type	UART_1_SetRxAddress2, %function
 733              	UART_1_SetRxAddress2:
 734              	.LFB15:
 861:Generated_Source\PSoC5/UART_1.c **** 
ARM GAS  C:\Users\JOSANT~1\AppData\Local\Temp\ccKCgxLc.s 			page 29


 862:Generated_Source\PSoC5/UART_1.c **** 
 863:Generated_Source\PSoC5/UART_1.c ****     /*******************************************************************************
 864:Generated_Source\PSoC5/UART_1.c ****     * Function Name: UART_1_SetRxAddress2
 865:Generated_Source\PSoC5/UART_1.c ****     ********************************************************************************
 866:Generated_Source\PSoC5/UART_1.c ****     *
 867:Generated_Source\PSoC5/UART_1.c ****     * Summary:
 868:Generated_Source\PSoC5/UART_1.c ****     *  Sets the second of two hardware-detectable receiver addresses.
 869:Generated_Source\PSoC5/UART_1.c ****     *
 870:Generated_Source\PSoC5/UART_1.c ****     * Parameters:
 871:Generated_Source\PSoC5/UART_1.c ****     *  address: Address #2 for hardware address detection.
 872:Generated_Source\PSoC5/UART_1.c ****     *
 873:Generated_Source\PSoC5/UART_1.c ****     * Return:
 874:Generated_Source\PSoC5/UART_1.c ****     *  None.
 875:Generated_Source\PSoC5/UART_1.c ****     *
 876:Generated_Source\PSoC5/UART_1.c ****     *******************************************************************************/
 877:Generated_Source\PSoC5/UART_1.c ****     void UART_1_SetRxAddress2(uint8 address) 
 878:Generated_Source\PSoC5/UART_1.c ****     {
 735              		.loc 1 878 0
 736              		.cfi_startproc
 737              		@ args = 0, pretend = 0, frame = 8
 738              		@ frame_needed = 1, uses_anonymous_args = 0
 739              		@ link register save eliminated.
 740 0000 80B4     		push	{r7}
 741              		.cfi_def_cfa_offset 4
 742              		.cfi_offset 7, -4
 743 0002 83B0     		sub	sp, sp, #12
 744              		.cfi_def_cfa_offset 16
 745 0004 00AF     		add	r7, sp, #0
 746              		.cfi_def_cfa_register 7
 747 0006 0346     		mov	r3, r0
 748 0008 FB71     		strb	r3, [r7, #7]
 879:Generated_Source\PSoC5/UART_1.c ****         UART_1_RXADDRESS2_REG = address;
 749              		.loc 1 879 0
 750 000a 044A     		ldr	r2, .L49
 751 000c FB79     		ldrb	r3, [r7, #7]
 752 000e 1370     		strb	r3, [r2]
 880:Generated_Source\PSoC5/UART_1.c ****     }
 753              		.loc 1 880 0
 754 0010 0C37     		adds	r7, r7, #12
 755              		.cfi_def_cfa_offset 4
 756 0012 BD46     		mov	sp, r7
 757              		.cfi_def_cfa_register 13
 758              		@ sp needed
 759 0014 5DF8047B 		ldr	r7, [sp], #4
 760              		.cfi_restore 7
 761              		.cfi_def_cfa_offset 0
 762 0018 7047     		bx	lr
 763              	.L50:
 764 001a 00BF     		.align	2
 765              	.L49:
 766 001c 3C640040 		.word	1073767484
 767              		.cfi_endproc
 768              	.LFE15:
 769              		.size	UART_1_SetRxAddress2, .-UART_1_SetRxAddress2
 770              		.text
 771              	.Letext0:
 772              		.file 2 "Generated_Source\\PSoC5\\cytypes.h"
ARM GAS  C:\Users\JOSANT~1\AppData\Local\Temp\ccKCgxLc.s 			page 30

