ARM GAS  C:\Users\JOSANT~1\AppData\Local\Temp\ccpsY3Vk.s 			page 1


   1              		.syntax unified
   2              		.cpu cortex-m3
   3              		.fpu softvfp
   4              		.eabi_attribute 20, 1
   5              		.eabi_attribute 21, 1
   6              		.eabi_attribute 23, 3
   7              		.eabi_attribute 24, 1
   8              		.eabi_attribute 25, 1
   9              		.eabi_attribute 26, 1
  10              		.eabi_attribute 30, 6
  11              		.eabi_attribute 34, 1
  12              		.eabi_attribute 18, 4
  13              		.thumb
  14              		.file	"USBFS_audio.c"
  15              		.text
  16              	.Ltext0:
  17              		.cfi_sections	.debug_frame
  18              		.comm	USBFS_currentSampleFrequency,27,4
  19              		.comm	USBFS_frequencyChanged,1,1
  20              		.comm	USBFS_currentMute,1,1
  21              		.comm	USBFS_currentVolume,2,4
  22              		.global	USBFS_minimumVolume
  23              		.data
  24              		.align	2
  25              		.type	USBFS_minimumVolume, %object
  26              		.size	USBFS_minimumVolume, 2
  27              	USBFS_minimumVolume:
  28 0000 01       		.byte	1
  29 0001 80       		.byte	-128
  30              		.global	USBFS_maximumVolume
  31 0002 0000     		.align	2
  32              		.type	USBFS_maximumVolume, %object
  33              		.size	USBFS_maximumVolume, 2
  34              	USBFS_maximumVolume:
  35 0004 FF       		.byte	-1
  36 0005 7F       		.byte	127
  37              		.global	USBFS_resolutionVolume
  38 0006 0000     		.align	2
  39              		.type	USBFS_resolutionVolume, %object
  40              		.size	USBFS_resolutionVolume, 2
  41              	USBFS_resolutionVolume:
  42 0008 01       		.byte	1
  43 0009 00       		.byte	0
  44 000a 0000     		.section	.text.USBFS_DispatchAUDIOClassRqst,"ax",%progbits
  45              		.align	2
  46              		.global	USBFS_DispatchAUDIOClassRqst
  47              		.thumb
  48              		.thumb_func
  49              		.type	USBFS_DispatchAUDIOClassRqst, %function
  50              	USBFS_DispatchAUDIOClassRqst:
  51              	.LFB0:
  52              		.file 1 "Generated_Source\\PSoC5\\USBFS_audio.c"
   1:Generated_Source\PSoC5/USBFS_audio.c **** /*******************************************************************************
   2:Generated_Source\PSoC5/USBFS_audio.c **** * File Name: USBFS_audio.c
   3:Generated_Source\PSoC5/USBFS_audio.c **** * Version 2.70
   4:Generated_Source\PSoC5/USBFS_audio.c **** *
   5:Generated_Source\PSoC5/USBFS_audio.c **** * Description:
ARM GAS  C:\Users\JOSANT~1\AppData\Local\Temp\ccpsY3Vk.s 			page 2


   6:Generated_Source\PSoC5/USBFS_audio.c **** *  USB AUDIO Class request handler.
   7:Generated_Source\PSoC5/USBFS_audio.c **** *
   8:Generated_Source\PSoC5/USBFS_audio.c **** * Related Document:
   9:Generated_Source\PSoC5/USBFS_audio.c **** *  Universal Serial Bus Device Class Definition for Audio Devices Release 1.0
  10:Generated_Source\PSoC5/USBFS_audio.c **** *
  11:Generated_Source\PSoC5/USBFS_audio.c **** ********************************************************************************
  12:Generated_Source\PSoC5/USBFS_audio.c **** * Copyright 2008-2013, Cypress Semiconductor Corporation.  All rights reserved.
  13:Generated_Source\PSoC5/USBFS_audio.c **** * You may use this file only in accordance with the license, terms, conditions,
  14:Generated_Source\PSoC5/USBFS_audio.c **** * disclaimers, and limitations in the end user license agreement accompanying
  15:Generated_Source\PSoC5/USBFS_audio.c **** * the software package with which this file was provided.
  16:Generated_Source\PSoC5/USBFS_audio.c **** *******************************************************************************/
  17:Generated_Source\PSoC5/USBFS_audio.c **** 
  18:Generated_Source\PSoC5/USBFS_audio.c **** #include "USBFS.h"
  19:Generated_Source\PSoC5/USBFS_audio.c **** 
  20:Generated_Source\PSoC5/USBFS_audio.c **** #if defined(USBFS_ENABLE_AUDIO_CLASS)
  21:Generated_Source\PSoC5/USBFS_audio.c **** 
  22:Generated_Source\PSoC5/USBFS_audio.c **** #include "USBFS_audio.h"
  23:Generated_Source\PSoC5/USBFS_audio.c **** #include "USBFS_pvt.h"
  24:Generated_Source\PSoC5/USBFS_audio.c **** #if defined(USBFS_ENABLE_MIDI_STREAMING)
  25:Generated_Source\PSoC5/USBFS_audio.c ****     #include "USBFS_midi.h"
  26:Generated_Source\PSoC5/USBFS_audio.c **** #endif /*  USBFS_ENABLE_MIDI_STREAMING*/
  27:Generated_Source\PSoC5/USBFS_audio.c **** 
  28:Generated_Source\PSoC5/USBFS_audio.c **** 
  29:Generated_Source\PSoC5/USBFS_audio.c **** /***************************************
  30:Generated_Source\PSoC5/USBFS_audio.c **** * Custom Declarations
  31:Generated_Source\PSoC5/USBFS_audio.c **** ***************************************/
  32:Generated_Source\PSoC5/USBFS_audio.c **** 
  33:Generated_Source\PSoC5/USBFS_audio.c **** /* `#START CUSTOM_DECLARATIONS` Place your declaration here */
  34:Generated_Source\PSoC5/USBFS_audio.c **** 
  35:Generated_Source\PSoC5/USBFS_audio.c **** /* `#END` */
  36:Generated_Source\PSoC5/USBFS_audio.c **** 
  37:Generated_Source\PSoC5/USBFS_audio.c **** 
  38:Generated_Source\PSoC5/USBFS_audio.c **** #if !defined(USER_SUPPLIED_AUDIO_HANDLER)
  39:Generated_Source\PSoC5/USBFS_audio.c **** 
  40:Generated_Source\PSoC5/USBFS_audio.c **** 
  41:Generated_Source\PSoC5/USBFS_audio.c **** /***************************************
  42:Generated_Source\PSoC5/USBFS_audio.c **** *    AUDIO Variables
  43:Generated_Source\PSoC5/USBFS_audio.c **** ***************************************/
  44:Generated_Source\PSoC5/USBFS_audio.c **** 
  45:Generated_Source\PSoC5/USBFS_audio.c **** #if defined(USBFS_ENABLE_AUDIO_STREAMING)
  46:Generated_Source\PSoC5/USBFS_audio.c ****     volatile uint8 USBFS_currentSampleFrequency[USBFS_MAX_EP][USBFS_SAMPLE_FREQ_LEN];
  47:Generated_Source\PSoC5/USBFS_audio.c ****     volatile uint8 USBFS_frequencyChanged;
  48:Generated_Source\PSoC5/USBFS_audio.c ****     volatile uint8 USBFS_currentMute;
  49:Generated_Source\PSoC5/USBFS_audio.c ****     volatile uint8 USBFS_currentVolume[USBFS_VOLUME_LEN];
  50:Generated_Source\PSoC5/USBFS_audio.c ****     volatile uint8 USBFS_minimumVolume[USBFS_VOLUME_LEN] = {USBFS_VOL_MIN_LSB,
  51:Generated_Source\PSoC5/USBFS_audio.c ****                                                                                   USBFS_VOL_MIN_MSB
  52:Generated_Source\PSoC5/USBFS_audio.c ****     volatile uint8 USBFS_maximumVolume[USBFS_VOLUME_LEN] = {USBFS_VOL_MAX_LSB,
  53:Generated_Source\PSoC5/USBFS_audio.c ****                                                                                   USBFS_VOL_MAX_MSB
  54:Generated_Source\PSoC5/USBFS_audio.c ****     volatile uint8 USBFS_resolutionVolume[USBFS_VOLUME_LEN] = {USBFS_VOL_RES_LSB,
  55:Generated_Source\PSoC5/USBFS_audio.c ****                                                                                      USBFS_VOL_RES_
  56:Generated_Source\PSoC5/USBFS_audio.c **** #endif /*  USBFS_ENABLE_AUDIO_STREAMING */
  57:Generated_Source\PSoC5/USBFS_audio.c **** 
  58:Generated_Source\PSoC5/USBFS_audio.c **** 
  59:Generated_Source\PSoC5/USBFS_audio.c **** /*******************************************************************************
  60:Generated_Source\PSoC5/USBFS_audio.c **** * Function Name: USBFS_DispatchAUDIOClassRqst
  61:Generated_Source\PSoC5/USBFS_audio.c **** ********************************************************************************
  62:Generated_Source\PSoC5/USBFS_audio.c **** *
ARM GAS  C:\Users\JOSANT~1\AppData\Local\Temp\ccpsY3Vk.s 			page 3


  63:Generated_Source\PSoC5/USBFS_audio.c **** * Summary:
  64:Generated_Source\PSoC5/USBFS_audio.c **** *  This routine dispatches class requests
  65:Generated_Source\PSoC5/USBFS_audio.c **** *
  66:Generated_Source\PSoC5/USBFS_audio.c **** * Parameters:
  67:Generated_Source\PSoC5/USBFS_audio.c **** *  None.
  68:Generated_Source\PSoC5/USBFS_audio.c **** *
  69:Generated_Source\PSoC5/USBFS_audio.c **** * Return:
  70:Generated_Source\PSoC5/USBFS_audio.c **** *  requestHandled
  71:Generated_Source\PSoC5/USBFS_audio.c **** *
  72:Generated_Source\PSoC5/USBFS_audio.c **** * Global variables:
  73:Generated_Source\PSoC5/USBFS_audio.c **** *   USBFS_currentSampleFrequency: Contains the current audio Sample
  74:Generated_Source\PSoC5/USBFS_audio.c **** *       Frequency. It is set by the Host using SET_CUR request to the endpoint.
  75:Generated_Source\PSoC5/USBFS_audio.c **** *   USBFS_frequencyChanged: This variable is used as a flag for the
  76:Generated_Source\PSoC5/USBFS_audio.c **** *       user code, to be aware that Host has been sent request for changing
  77:Generated_Source\PSoC5/USBFS_audio.c **** *       Sample Frequency. Sample frequency will be sent on the next OUT
  78:Generated_Source\PSoC5/USBFS_audio.c **** *       transaction. It is contains endpoint address when set. The following
  79:Generated_Source\PSoC5/USBFS_audio.c **** *       code is recommended for detecting new Sample Frequency in main code:
  80:Generated_Source\PSoC5/USBFS_audio.c **** *       if((USBFS_frequencyChanged != 0) &&
  81:Generated_Source\PSoC5/USBFS_audio.c **** *       (USBFS_transferState == USBFS_TRANS_STATE_IDLE))
  82:Generated_Source\PSoC5/USBFS_audio.c **** *       {
  83:Generated_Source\PSoC5/USBFS_audio.c **** *          USBFS_frequencyChanged = 0;
  84:Generated_Source\PSoC5/USBFS_audio.c **** *       }
  85:Generated_Source\PSoC5/USBFS_audio.c **** *       USBFS_transferState variable is checked to be sure that
  86:Generated_Source\PSoC5/USBFS_audio.c **** *             transfer completes.
  87:Generated_Source\PSoC5/USBFS_audio.c **** *   USBFS_currentMute: Contains mute configuration set by Host.
  88:Generated_Source\PSoC5/USBFS_audio.c **** *   USBFS_currentVolume: Contains volume level set by Host.
  89:Generated_Source\PSoC5/USBFS_audio.c **** *
  90:Generated_Source\PSoC5/USBFS_audio.c **** * Reentrant:
  91:Generated_Source\PSoC5/USBFS_audio.c **** *  No.
  92:Generated_Source\PSoC5/USBFS_audio.c **** *
  93:Generated_Source\PSoC5/USBFS_audio.c **** *******************************************************************************/
  94:Generated_Source\PSoC5/USBFS_audio.c **** uint8 USBFS_DispatchAUDIOClassRqst(void) 
  95:Generated_Source\PSoC5/USBFS_audio.c **** {
  53              		.loc 1 95 0
  54              		.cfi_startproc
  55              		@ args = 0, pretend = 0, frame = 8
  56              		@ frame_needed = 1, uses_anonymous_args = 0
  57 0000 80B5     		push	{r7, lr}
  58              		.cfi_def_cfa_offset 8
  59              		.cfi_offset 7, -8
  60              		.cfi_offset 14, -4
  61 0002 82B0     		sub	sp, sp, #8
  62              		.cfi_def_cfa_offset 16
  63 0004 00AF     		add	r7, sp, #0
  64              		.cfi_def_cfa_register 7
  96:Generated_Source\PSoC5/USBFS_audio.c ****     uint8 requestHandled = USBFS_FALSE;
  65              		.loc 1 96 0
  66 0006 0023     		movs	r3, #0
  67 0008 FB71     		strb	r3, [r7, #7]
  97:Generated_Source\PSoC5/USBFS_audio.c ****     uint8 bmRequestType  = CY_GET_REG8(USBFS_bmRequestType);
  68              		.loc 1 97 0
  69 000a 7E4B     		ldr	r3, .L35
  70 000c 1B78     		ldrb	r3, [r3]
  71 000e BB71     		strb	r3, [r7, #6]
  98:Generated_Source\PSoC5/USBFS_audio.c ****     
  99:Generated_Source\PSoC5/USBFS_audio.c ****     #if defined(USBFS_ENABLE_AUDIO_STREAMING)
 100:Generated_Source\PSoC5/USBFS_audio.c ****         uint8 epNumber;
ARM GAS  C:\Users\JOSANT~1\AppData\Local\Temp\ccpsY3Vk.s 			page 4


 101:Generated_Source\PSoC5/USBFS_audio.c ****         epNumber = CY_GET_REG8(USBFS_wIndexLo) & USBFS_DIR_UNUSED;
  72              		.loc 1 101 0
  73 0010 7D4B     		ldr	r3, .L35+4
  74 0012 1B78     		ldrb	r3, [r3]
  75 0014 DBB2     		uxtb	r3, r3
  76 0016 03F07F03 		and	r3, r3, #127
  77 001a 7B71     		strb	r3, [r7, #5]
 102:Generated_Source\PSoC5/USBFS_audio.c ****     #endif /*  USBFS_ENABLE_AUDIO_STREAMING */
 103:Generated_Source\PSoC5/USBFS_audio.c ****     
 104:Generated_Source\PSoC5/USBFS_audio.c **** 
 105:Generated_Source\PSoC5/USBFS_audio.c ****     if ((bmRequestType & USBFS_RQST_DIR_MASK) == USBFS_RQST_DIR_D2H)
  78              		.loc 1 105 0
  79 001c BB79     		ldrb	r3, [r7, #6]	@ zero_extendqisi2
  80 001e 5BB2     		sxtb	r3, r3
  81 0020 002B     		cmp	r3, #0
  82 0022 80F29580 		bge	.L2
 106:Generated_Source\PSoC5/USBFS_audio.c ****     {
 107:Generated_Source\PSoC5/USBFS_audio.c ****         /* Control Read */
 108:Generated_Source\PSoC5/USBFS_audio.c ****         if((bmRequestType & USBFS_RQST_RCPT_MASK) == USBFS_RQST_RCPT_EP)
  83              		.loc 1 108 0
  84 0026 BB79     		ldrb	r3, [r7, #6]	@ zero_extendqisi2
  85 0028 03F00303 		and	r3, r3, #3
  86 002c 022B     		cmp	r3, #2
  87 002e 1CD1     		bne	.L3
 109:Generated_Source\PSoC5/USBFS_audio.c ****         {
 110:Generated_Source\PSoC5/USBFS_audio.c ****             /* Endpoint */
 111:Generated_Source\PSoC5/USBFS_audio.c ****             switch (CY_GET_REG8(USBFS_bRequest))
  88              		.loc 1 111 0
  89 0030 764B     		ldr	r3, .L35+8
  90 0032 1B78     		ldrb	r3, [r3]
  91 0034 DBB2     		uxtb	r3, r3
  92 0036 812B     		cmp	r3, #129
  93 0038 00D0     		beq	.L5
 112:Generated_Source\PSoC5/USBFS_audio.c ****             {
 113:Generated_Source\PSoC5/USBFS_audio.c ****                 case USBFS_GET_CUR:
 114:Generated_Source\PSoC5/USBFS_audio.c ****                 #if defined(USBFS_ENABLE_AUDIO_STREAMING)
 115:Generated_Source\PSoC5/USBFS_audio.c ****                     if(CY_GET_REG8(USBFS_wValueHi) == USBFS_SAMPLING_FREQ_CONTROL)
 116:Generated_Source\PSoC5/USBFS_audio.c ****                     {
 117:Generated_Source\PSoC5/USBFS_audio.c ****                          /* point Control Selector is Sampling Frequency */
 118:Generated_Source\PSoC5/USBFS_audio.c ****                         USBFS_currentTD.wCount = USBFS_SAMPLE_FREQ_LEN;
 119:Generated_Source\PSoC5/USBFS_audio.c ****                         USBFS_currentTD.pData  = USBFS_currentSampleFrequency[epNumber];
 120:Generated_Source\PSoC5/USBFS_audio.c ****                         requestHandled   = USBFS_InitControlRead();
 121:Generated_Source\PSoC5/USBFS_audio.c ****                     }
 122:Generated_Source\PSoC5/USBFS_audio.c ****                 #endif /*  USBFS_ENABLE_AUDIO_STREAMING */
 123:Generated_Source\PSoC5/USBFS_audio.c **** 
 124:Generated_Source\PSoC5/USBFS_audio.c ****                 /* `#START AUDIO_READ_REQUESTS` Place other request handler here */
 125:Generated_Source\PSoC5/USBFS_audio.c **** 
 126:Generated_Source\PSoC5/USBFS_audio.c ****                 /* `#END` */
 127:Generated_Source\PSoC5/USBFS_audio.c ****                     break;
 128:Generated_Source\PSoC5/USBFS_audio.c ****                 default:
 129:Generated_Source\PSoC5/USBFS_audio.c ****                     break;
  94              		.loc 1 129 0
  95 003a 15E0     		b	.L7
  96              	.L5:
 115:Generated_Source\PSoC5/USBFS_audio.c ****                     {
  97              		.loc 1 115 0
  98 003c 744B     		ldr	r3, .L35+12
ARM GAS  C:\Users\JOSANT~1\AppData\Local\Temp\ccpsY3Vk.s 			page 5


  99 003e 1B78     		ldrb	r3, [r3]
 100 0040 DBB2     		uxtb	r3, r3
 101 0042 012B     		cmp	r3, #1
 102 0044 0FD1     		bne	.L6
 118:Generated_Source\PSoC5/USBFS_audio.c ****                         USBFS_currentTD.pData  = USBFS_currentSampleFrequency[epNumber];
 103              		.loc 1 118 0
 104 0046 734B     		ldr	r3, .L35+16
 105 0048 0322     		movs	r2, #3
 106 004a 1A80     		strh	r2, [r3]	@ movhi
 119:Generated_Source\PSoC5/USBFS_audio.c ****                         requestHandled   = USBFS_InitControlRead();
 107              		.loc 1 119 0
 108 004c 7A79     		ldrb	r2, [r7, #5]	@ zero_extendqisi2
 109 004e 1346     		mov	r3, r2
 110 0050 5B00     		lsls	r3, r3, #1
 111 0052 1344     		add	r3, r3, r2
 112 0054 704A     		ldr	r2, .L35+20
 113 0056 1344     		add	r3, r3, r2
 114 0058 6E4A     		ldr	r2, .L35+16
 115 005a 5360     		str	r3, [r2, #4]
 120:Generated_Source\PSoC5/USBFS_audio.c ****                     }
 116              		.loc 1 120 0
 117 005c FFF7FEFF 		bl	USBFS_InitControlRead
 118 0060 0346     		mov	r3, r0
 119 0062 FB71     		strb	r3, [r7, #7]
 127:Generated_Source\PSoC5/USBFS_audio.c ****                 default:
 120              		.loc 1 127 0
 121 0064 FFE7     		b	.L33
 122              	.L6:
 123              	.L33:
 124 0066 00BF     		nop
 125              	.L7:
 126 0068 C6E0     		b	.L8
 127              	.L3:
 130:Generated_Source\PSoC5/USBFS_audio.c ****             }
 131:Generated_Source\PSoC5/USBFS_audio.c ****         }
 132:Generated_Source\PSoC5/USBFS_audio.c ****         else if((bmRequestType & USBFS_RQST_RCPT_MASK) == USBFS_RQST_RCPT_IFC)
 128              		.loc 1 132 0
 129 006a BB79     		ldrb	r3, [r7, #6]	@ zero_extendqisi2
 130 006c 03F00303 		and	r3, r3, #3
 131 0070 012B     		cmp	r3, #1
 132 0072 40F0C180 		bne	.L8
 133:Generated_Source\PSoC5/USBFS_audio.c ****         {
 134:Generated_Source\PSoC5/USBFS_audio.c ****             /* Interface or Entity ID */
 135:Generated_Source\PSoC5/USBFS_audio.c ****             switch (CY_GET_REG8(USBFS_bRequest))
 133              		.loc 1 135 0
 134 0076 654B     		ldr	r3, .L35+8
 135 0078 1B78     		ldrb	r3, [r3]
 136 007a DBB2     		uxtb	r3, r3
 137 007c 832B     		cmp	r3, #131
 138 007e 3CD0     		beq	.L10
 139 0080 832B     		cmp	r3, #131
 140 0082 04DC     		bgt	.L11
 141 0084 812B     		cmp	r3, #129
 142 0086 07D0     		beq	.L12
 143 0088 822B     		cmp	r3, #130
 144 008a 25D0     		beq	.L13
 136:Generated_Source\PSoC5/USBFS_audio.c ****             {
ARM GAS  C:\Users\JOSANT~1\AppData\Local\Temp\ccpsY3Vk.s 			page 6


 137:Generated_Source\PSoC5/USBFS_audio.c ****                 case USBFS_GET_CUR:
 138:Generated_Source\PSoC5/USBFS_audio.c ****                 #if defined(USBFS_ENABLE_AUDIO_STREAMING)
 139:Generated_Source\PSoC5/USBFS_audio.c ****                     if(CY_GET_REG8(USBFS_wValueHi) == USBFS_MUTE_CONTROL)
 140:Generated_Source\PSoC5/USBFS_audio.c ****                     {
 141:Generated_Source\PSoC5/USBFS_audio.c ****                         /* `#START MUTE_CONTROL_GET_REQUEST` Place multi-channel handler here */
 142:Generated_Source\PSoC5/USBFS_audio.c **** 
 143:Generated_Source\PSoC5/USBFS_audio.c ****                         /* `#END` */
 144:Generated_Source\PSoC5/USBFS_audio.c **** 
 145:Generated_Source\PSoC5/USBFS_audio.c ****                          /* Entity ID Control Selector is MUTE */
 146:Generated_Source\PSoC5/USBFS_audio.c ****                         USBFS_currentTD.wCount = 1u;
 147:Generated_Source\PSoC5/USBFS_audio.c ****                         USBFS_currentTD.pData  = &USBFS_currentMute;
 148:Generated_Source\PSoC5/USBFS_audio.c ****                         requestHandled   = USBFS_InitControlRead();
 149:Generated_Source\PSoC5/USBFS_audio.c ****                     }
 150:Generated_Source\PSoC5/USBFS_audio.c ****                     else if(CY_GET_REG8(USBFS_wValueHi) == USBFS_VOLUME_CONTROL)
 151:Generated_Source\PSoC5/USBFS_audio.c ****                     {
 152:Generated_Source\PSoC5/USBFS_audio.c ****                         /* `#START VOLUME_CONTROL_GET_REQUEST` Place multi-channel handler here */
 153:Generated_Source\PSoC5/USBFS_audio.c **** 
 154:Generated_Source\PSoC5/USBFS_audio.c ****                         /* `#END` */
 155:Generated_Source\PSoC5/USBFS_audio.c **** 
 156:Generated_Source\PSoC5/USBFS_audio.c ****                         /* Entity ID Control Selector is VOLUME, */
 157:Generated_Source\PSoC5/USBFS_audio.c ****                         USBFS_currentTD.wCount = USBFS_VOLUME_LEN;
 158:Generated_Source\PSoC5/USBFS_audio.c ****                         USBFS_currentTD.pData  = USBFS_currentVolume;
 159:Generated_Source\PSoC5/USBFS_audio.c ****                         requestHandled   = USBFS_InitControlRead();
 160:Generated_Source\PSoC5/USBFS_audio.c ****                     }
 161:Generated_Source\PSoC5/USBFS_audio.c ****                     else
 162:Generated_Source\PSoC5/USBFS_audio.c ****                     {
 163:Generated_Source\PSoC5/USBFS_audio.c ****                         /* `#START OTHER_GET_CUR_REQUESTS` Place other request handler here */
 164:Generated_Source\PSoC5/USBFS_audio.c **** 
 165:Generated_Source\PSoC5/USBFS_audio.c ****                         /* `#END` */
 166:Generated_Source\PSoC5/USBFS_audio.c ****                     }
 167:Generated_Source\PSoC5/USBFS_audio.c ****                     break;
 168:Generated_Source\PSoC5/USBFS_audio.c ****                 case USBFS_GET_MIN:    /* GET_MIN */
 169:Generated_Source\PSoC5/USBFS_audio.c ****                     if(CY_GET_REG8(USBFS_wValueHi) == USBFS_VOLUME_CONTROL)
 170:Generated_Source\PSoC5/USBFS_audio.c ****                     {
 171:Generated_Source\PSoC5/USBFS_audio.c ****                         /* Entity ID Control Selector is VOLUME, */
 172:Generated_Source\PSoC5/USBFS_audio.c ****                         USBFS_currentTD.wCount = USBFS_VOLUME_LEN;
 173:Generated_Source\PSoC5/USBFS_audio.c ****                         USBFS_currentTD.pData  = &USBFS_minimumVolume[0];
 174:Generated_Source\PSoC5/USBFS_audio.c ****                         requestHandled   = USBFS_InitControlRead();
 175:Generated_Source\PSoC5/USBFS_audio.c ****                     }
 176:Generated_Source\PSoC5/USBFS_audio.c ****                     break;
 177:Generated_Source\PSoC5/USBFS_audio.c ****                 case USBFS_GET_MAX:    /* GET_MAX */
 178:Generated_Source\PSoC5/USBFS_audio.c ****                     if(CY_GET_REG8(USBFS_wValueHi) == USBFS_VOLUME_CONTROL)
 179:Generated_Source\PSoC5/USBFS_audio.c ****                     {
 180:Generated_Source\PSoC5/USBFS_audio.c ****                         /* Entity ID Control Selector is VOLUME, */
 181:Generated_Source\PSoC5/USBFS_audio.c ****                         USBFS_currentTD.wCount = USBFS_VOLUME_LEN;
 182:Generated_Source\PSoC5/USBFS_audio.c ****                         USBFS_currentTD.pData  = &USBFS_maximumVolume[0];
 183:Generated_Source\PSoC5/USBFS_audio.c ****                         requestHandled   = USBFS_InitControlRead();
 184:Generated_Source\PSoC5/USBFS_audio.c ****                     }
 185:Generated_Source\PSoC5/USBFS_audio.c ****                     break;
 186:Generated_Source\PSoC5/USBFS_audio.c ****                 case USBFS_GET_RES:    /* GET_RES */
 187:Generated_Source\PSoC5/USBFS_audio.c ****                     if(CY_GET_REG8(USBFS_wValueHi) == USBFS_VOLUME_CONTROL)
 188:Generated_Source\PSoC5/USBFS_audio.c ****                     {
 189:Generated_Source\PSoC5/USBFS_audio.c ****                          /* Entity ID Control Selector is VOLUME, */
 190:Generated_Source\PSoC5/USBFS_audio.c ****                         USBFS_currentTD.wCount = USBFS_VOLUME_LEN;
 191:Generated_Source\PSoC5/USBFS_audio.c ****                         USBFS_currentTD.pData  = &USBFS_resolutionVolume[0];
 192:Generated_Source\PSoC5/USBFS_audio.c ****                         requestHandled   = USBFS_InitControlRead();
 193:Generated_Source\PSoC5/USBFS_audio.c ****                     }
ARM GAS  C:\Users\JOSANT~1\AppData\Local\Temp\ccpsY3Vk.s 			page 7


 194:Generated_Source\PSoC5/USBFS_audio.c ****                     break;
 195:Generated_Source\PSoC5/USBFS_audio.c ****                 /* The contents of the status message is reserved for future use.
 196:Generated_Source\PSoC5/USBFS_audio.c ****                 *  For the time being, a null packet should be returned in the data stage of the
 197:Generated_Source\PSoC5/USBFS_audio.c ****                 *  control transfer, and the received null packet should be ACKed.
 198:Generated_Source\PSoC5/USBFS_audio.c ****                 */
 199:Generated_Source\PSoC5/USBFS_audio.c ****                 case USBFS_GET_STAT:
 200:Generated_Source\PSoC5/USBFS_audio.c ****                         USBFS_currentTD.wCount = 0u;
 201:Generated_Source\PSoC5/USBFS_audio.c ****                         requestHandled   = USBFS_InitControlWrite();
 202:Generated_Source\PSoC5/USBFS_audio.c **** 
 203:Generated_Source\PSoC5/USBFS_audio.c ****                 #endif /*  USBFS_ENABLE_AUDIO_STREAMING */
 204:Generated_Source\PSoC5/USBFS_audio.c **** 
 205:Generated_Source\PSoC5/USBFS_audio.c ****                 /* `#START AUDIO_WRITE_REQUESTS` Place other request handler here */
 206:Generated_Source\PSoC5/USBFS_audio.c **** 
 207:Generated_Source\PSoC5/USBFS_audio.c ****                 /* `#END` */
 208:Generated_Source\PSoC5/USBFS_audio.c ****                     break;
 209:Generated_Source\PSoC5/USBFS_audio.c ****                 default:
 210:Generated_Source\PSoC5/USBFS_audio.c ****                     break;
 145              		.loc 1 210 0
 146 008c 5FE0     		b	.L18
 147              	.L11:
 135:Generated_Source\PSoC5/USBFS_audio.c ****             {
 148              		.loc 1 135 0
 149 008e 842B     		cmp	r3, #132
 150 0090 44D0     		beq	.L14
 151 0092 FF2B     		cmp	r3, #255
 152 0094 53D0     		beq	.L15
 153              		.loc 1 210 0
 154 0096 5AE0     		b	.L18
 155              	.L12:
 139:Generated_Source\PSoC5/USBFS_audio.c ****                     {
 156              		.loc 1 139 0
 157 0098 5D4B     		ldr	r3, .L35+12
 158 009a 1B78     		ldrb	r3, [r3]
 159 009c DBB2     		uxtb	r3, r3
 160 009e 012B     		cmp	r3, #1
 161 00a0 0AD1     		bne	.L16
 146:Generated_Source\PSoC5/USBFS_audio.c ****                         USBFS_currentTD.pData  = &USBFS_currentMute;
 162              		.loc 1 146 0
 163 00a2 5C4B     		ldr	r3, .L35+16
 164 00a4 0122     		movs	r2, #1
 165 00a6 1A80     		strh	r2, [r3]	@ movhi
 147:Generated_Source\PSoC5/USBFS_audio.c ****                         requestHandled   = USBFS_InitControlRead();
 166              		.loc 1 147 0
 167 00a8 5A4B     		ldr	r3, .L35+16
 168 00aa 5C4A     		ldr	r2, .L35+24
 169 00ac 5A60     		str	r2, [r3, #4]
 148:Generated_Source\PSoC5/USBFS_audio.c ****                     }
 170              		.loc 1 148 0
 171 00ae FFF7FEFF 		bl	USBFS_InitControlRead
 172 00b2 0346     		mov	r3, r0
 173 00b4 FB71     		strb	r3, [r7, #7]
 174 00b6 0EE0     		b	.L17
 175              	.L16:
 150:Generated_Source\PSoC5/USBFS_audio.c ****                     {
 176              		.loc 1 150 0
 177 00b8 554B     		ldr	r3, .L35+12
 178 00ba 1B78     		ldrb	r3, [r3]
ARM GAS  C:\Users\JOSANT~1\AppData\Local\Temp\ccpsY3Vk.s 			page 8


 179 00bc DBB2     		uxtb	r3, r3
 180 00be 022B     		cmp	r3, #2
 181 00c0 09D1     		bne	.L17
 157:Generated_Source\PSoC5/USBFS_audio.c ****                         USBFS_currentTD.pData  = USBFS_currentVolume;
 182              		.loc 1 157 0
 183 00c2 544B     		ldr	r3, .L35+16
 184 00c4 0222     		movs	r2, #2
 185 00c6 1A80     		strh	r2, [r3]	@ movhi
 158:Generated_Source\PSoC5/USBFS_audio.c ****                         requestHandled   = USBFS_InitControlRead();
 186              		.loc 1 158 0
 187 00c8 524B     		ldr	r3, .L35+16
 188 00ca 554A     		ldr	r2, .L35+28
 189 00cc 5A60     		str	r2, [r3, #4]
 159:Generated_Source\PSoC5/USBFS_audio.c ****                     }
 190              		.loc 1 159 0
 191 00ce FFF7FEFF 		bl	USBFS_InitControlRead
 192 00d2 0346     		mov	r3, r0
 193 00d4 FB71     		strb	r3, [r7, #7]
 194              	.L17:
 167:Generated_Source\PSoC5/USBFS_audio.c ****                 case USBFS_GET_MIN:    /* GET_MIN */
 195              		.loc 1 167 0
 196 00d6 3AE0     		b	.L18
 197              	.L13:
 169:Generated_Source\PSoC5/USBFS_audio.c ****                     {
 198              		.loc 1 169 0
 199 00d8 4D4B     		ldr	r3, .L35+12
 200 00da 1B78     		ldrb	r3, [r3]
 201 00dc DBB2     		uxtb	r3, r3
 202 00de 022B     		cmp	r3, #2
 203 00e0 0AD1     		bne	.L19
 172:Generated_Source\PSoC5/USBFS_audio.c ****                         USBFS_currentTD.pData  = &USBFS_minimumVolume[0];
 204              		.loc 1 172 0
 205 00e2 4C4B     		ldr	r3, .L35+16
 206 00e4 0222     		movs	r2, #2
 207 00e6 1A80     		strh	r2, [r3]	@ movhi
 173:Generated_Source\PSoC5/USBFS_audio.c ****                         requestHandled   = USBFS_InitControlRead();
 208              		.loc 1 173 0
 209 00e8 4A4B     		ldr	r3, .L35+16
 210 00ea 4E4A     		ldr	r2, .L35+32
 211 00ec 5A60     		str	r2, [r3, #4]
 174:Generated_Source\PSoC5/USBFS_audio.c ****                     }
 212              		.loc 1 174 0
 213 00ee FFF7FEFF 		bl	USBFS_InitControlRead
 214 00f2 0346     		mov	r3, r0
 215 00f4 FB71     		strb	r3, [r7, #7]
 176:Generated_Source\PSoC5/USBFS_audio.c ****                 case USBFS_GET_MAX:    /* GET_MAX */
 216              		.loc 1 176 0
 217 00f6 2AE0     		b	.L18
 218              	.L19:
 176:Generated_Source\PSoC5/USBFS_audio.c ****                 case USBFS_GET_MAX:    /* GET_MAX */
 219              		.loc 1 176 0 is_stmt 0 discriminator 5
 220 00f8 29E0     		b	.L18
 221              	.L10:
 178:Generated_Source\PSoC5/USBFS_audio.c ****                     {
 222              		.loc 1 178 0 is_stmt 1
 223 00fa 454B     		ldr	r3, .L35+12
 224 00fc 1B78     		ldrb	r3, [r3]
ARM GAS  C:\Users\JOSANT~1\AppData\Local\Temp\ccpsY3Vk.s 			page 9


 225 00fe DBB2     		uxtb	r3, r3
 226 0100 022B     		cmp	r3, #2
 227 0102 0AD1     		bne	.L20
 181:Generated_Source\PSoC5/USBFS_audio.c ****                         USBFS_currentTD.pData  = &USBFS_maximumVolume[0];
 228              		.loc 1 181 0
 229 0104 434B     		ldr	r3, .L35+16
 230 0106 0222     		movs	r2, #2
 231 0108 1A80     		strh	r2, [r3]	@ movhi
 182:Generated_Source\PSoC5/USBFS_audio.c ****                         requestHandled   = USBFS_InitControlRead();
 232              		.loc 1 182 0
 233 010a 424B     		ldr	r3, .L35+16
 234 010c 464A     		ldr	r2, .L35+36
 235 010e 5A60     		str	r2, [r3, #4]
 183:Generated_Source\PSoC5/USBFS_audio.c ****                     }
 236              		.loc 1 183 0
 237 0110 FFF7FEFF 		bl	USBFS_InitControlRead
 238 0114 0346     		mov	r3, r0
 239 0116 FB71     		strb	r3, [r7, #7]
 185:Generated_Source\PSoC5/USBFS_audio.c ****                 case USBFS_GET_RES:    /* GET_RES */
 240              		.loc 1 185 0
 241 0118 19E0     		b	.L18
 242              	.L20:
 185:Generated_Source\PSoC5/USBFS_audio.c ****                 case USBFS_GET_RES:    /* GET_RES */
 243              		.loc 1 185 0 is_stmt 0 discriminator 6
 244 011a 18E0     		b	.L18
 245              	.L14:
 187:Generated_Source\PSoC5/USBFS_audio.c ****                     {
 246              		.loc 1 187 0 is_stmt 1
 247 011c 3C4B     		ldr	r3, .L35+12
 248 011e 1B78     		ldrb	r3, [r3]
 249 0120 DBB2     		uxtb	r3, r3
 250 0122 022B     		cmp	r3, #2
 251 0124 0AD1     		bne	.L21
 190:Generated_Source\PSoC5/USBFS_audio.c ****                         USBFS_currentTD.pData  = &USBFS_resolutionVolume[0];
 252              		.loc 1 190 0
 253 0126 3B4B     		ldr	r3, .L35+16
 254 0128 0222     		movs	r2, #2
 255 012a 1A80     		strh	r2, [r3]	@ movhi
 191:Generated_Source\PSoC5/USBFS_audio.c ****                         requestHandled   = USBFS_InitControlRead();
 256              		.loc 1 191 0
 257 012c 394B     		ldr	r3, .L35+16
 258 012e 3F4A     		ldr	r2, .L35+40
 259 0130 5A60     		str	r2, [r3, #4]
 192:Generated_Source\PSoC5/USBFS_audio.c ****                     }
 260              		.loc 1 192 0
 261 0132 FFF7FEFF 		bl	USBFS_InitControlRead
 262 0136 0346     		mov	r3, r0
 263 0138 FB71     		strb	r3, [r7, #7]
 194:Generated_Source\PSoC5/USBFS_audio.c ****                 /* The contents of the status message is reserved for future use.
 264              		.loc 1 194 0
 265 013a 08E0     		b	.L18
 266              	.L21:
 194:Generated_Source\PSoC5/USBFS_audio.c ****                 /* The contents of the status message is reserved for future use.
 267              		.loc 1 194 0 is_stmt 0 discriminator 7
 268 013c 07E0     		b	.L18
 269              	.L15:
 200:Generated_Source\PSoC5/USBFS_audio.c ****                         requestHandled   = USBFS_InitControlWrite();
ARM GAS  C:\Users\JOSANT~1\AppData\Local\Temp\ccpsY3Vk.s 			page 10


 270              		.loc 1 200 0 is_stmt 1
 271 013e 354B     		ldr	r3, .L35+16
 272 0140 0022     		movs	r2, #0
 273 0142 1A80     		strh	r2, [r3]	@ movhi
 201:Generated_Source\PSoC5/USBFS_audio.c **** 
 274              		.loc 1 201 0
 275 0144 FFF7FEFF 		bl	USBFS_InitControlWrite
 276 0148 0346     		mov	r3, r0
 277 014a FB71     		strb	r3, [r7, #7]
 208:Generated_Source\PSoC5/USBFS_audio.c ****                 default:
 278              		.loc 1 208 0
 279 014c 00BF     		nop
 280              	.L18:
 281 014e 53E0     		b	.L8
 282              	.L2:
 211:Generated_Source\PSoC5/USBFS_audio.c ****             }
 212:Generated_Source\PSoC5/USBFS_audio.c ****         }
 213:Generated_Source\PSoC5/USBFS_audio.c ****         else
 214:Generated_Source\PSoC5/USBFS_audio.c ****         {   /* USBFS_RQST_RCPT_OTHER */
 215:Generated_Source\PSoC5/USBFS_audio.c ****         }
 216:Generated_Source\PSoC5/USBFS_audio.c ****     }
 217:Generated_Source\PSoC5/USBFS_audio.c ****     else if ((bmRequestType & USBFS_RQST_DIR_MASK) == USBFS_RQST_DIR_H2D)
 283              		.loc 1 217 0
 284 0150 BB79     		ldrb	r3, [r7, #6]	@ zero_extendqisi2
 285 0152 5BB2     		sxtb	r3, r3
 286 0154 002B     		cmp	r3, #0
 287 0156 4FDB     		blt	.L8
 218:Generated_Source\PSoC5/USBFS_audio.c ****     {
 219:Generated_Source\PSoC5/USBFS_audio.c ****         /* Control Write */
 220:Generated_Source\PSoC5/USBFS_audio.c ****         if((bmRequestType & USBFS_RQST_RCPT_MASK) == USBFS_RQST_RCPT_EP)
 288              		.loc 1 220 0
 289 0158 BB79     		ldrb	r3, [r7, #6]	@ zero_extendqisi2
 290 015a 03F00303 		and	r3, r3, #3
 291 015e 022B     		cmp	r3, #2
 292 0160 1FD1     		bne	.L22
 221:Generated_Source\PSoC5/USBFS_audio.c ****         {
 222:Generated_Source\PSoC5/USBFS_audio.c ****             /* point */
 223:Generated_Source\PSoC5/USBFS_audio.c ****             switch (CY_GET_REG8(USBFS_bRequest))
 293              		.loc 1 223 0
 294 0162 2A4B     		ldr	r3, .L35+8
 295 0164 1B78     		ldrb	r3, [r3]
 296 0166 DBB2     		uxtb	r3, r3
 297 0168 012B     		cmp	r3, #1
 298 016a 00D0     		beq	.L24
 224:Generated_Source\PSoC5/USBFS_audio.c ****             {
 225:Generated_Source\PSoC5/USBFS_audio.c ****                 case USBFS_SET_CUR:
 226:Generated_Source\PSoC5/USBFS_audio.c ****                 #if defined(USBFS_ENABLE_AUDIO_STREAMING)
 227:Generated_Source\PSoC5/USBFS_audio.c ****                     if(CY_GET_REG8(USBFS_wValueHi) == USBFS_SAMPLING_FREQ_CONTROL)
 228:Generated_Source\PSoC5/USBFS_audio.c ****                     {
 229:Generated_Source\PSoC5/USBFS_audio.c ****                          /* point Control Selector is Sampling Frequency */
 230:Generated_Source\PSoC5/USBFS_audio.c ****                         USBFS_currentTD.wCount = USBFS_SAMPLE_FREQ_LEN;
 231:Generated_Source\PSoC5/USBFS_audio.c ****                         USBFS_currentTD.pData  = USBFS_currentSampleFrequency[epNumber];
 232:Generated_Source\PSoC5/USBFS_audio.c ****                         requestHandled   = USBFS_InitControlWrite();
 233:Generated_Source\PSoC5/USBFS_audio.c ****                         USBFS_frequencyChanged = epNumber;
 234:Generated_Source\PSoC5/USBFS_audio.c ****                     }
 235:Generated_Source\PSoC5/USBFS_audio.c ****                 #endif /*  USBFS_ENABLE_AUDIO_STREAMING */
 236:Generated_Source\PSoC5/USBFS_audio.c **** 
ARM GAS  C:\Users\JOSANT~1\AppData\Local\Temp\ccpsY3Vk.s 			page 11


 237:Generated_Source\PSoC5/USBFS_audio.c ****                 /* `#START AUDIO_SAMPLING_FREQ_REQUESTS` Place other request handler here */
 238:Generated_Source\PSoC5/USBFS_audio.c **** 
 239:Generated_Source\PSoC5/USBFS_audio.c ****                 /* `#END` */
 240:Generated_Source\PSoC5/USBFS_audio.c ****                     break;
 241:Generated_Source\PSoC5/USBFS_audio.c ****                 default:
 242:Generated_Source\PSoC5/USBFS_audio.c ****                     break;
 299              		.loc 1 242 0
 300 016c 18E0     		b	.L26
 301              	.L24:
 227:Generated_Source\PSoC5/USBFS_audio.c ****                     {
 302              		.loc 1 227 0
 303 016e 284B     		ldr	r3, .L35+12
 304 0170 1B78     		ldrb	r3, [r3]
 305 0172 DBB2     		uxtb	r3, r3
 306 0174 012B     		cmp	r3, #1
 307 0176 12D1     		bne	.L25
 230:Generated_Source\PSoC5/USBFS_audio.c ****                         USBFS_currentTD.pData  = USBFS_currentSampleFrequency[epNumber];
 308              		.loc 1 230 0
 309 0178 264B     		ldr	r3, .L35+16
 310 017a 0322     		movs	r2, #3
 311 017c 1A80     		strh	r2, [r3]	@ movhi
 231:Generated_Source\PSoC5/USBFS_audio.c ****                         requestHandled   = USBFS_InitControlWrite();
 312              		.loc 1 231 0
 313 017e 7A79     		ldrb	r2, [r7, #5]	@ zero_extendqisi2
 314 0180 1346     		mov	r3, r2
 315 0182 5B00     		lsls	r3, r3, #1
 316 0184 1344     		add	r3, r3, r2
 317 0186 244A     		ldr	r2, .L35+20
 318 0188 1344     		add	r3, r3, r2
 319 018a 224A     		ldr	r2, .L35+16
 320 018c 5360     		str	r3, [r2, #4]
 232:Generated_Source\PSoC5/USBFS_audio.c ****                         USBFS_frequencyChanged = epNumber;
 321              		.loc 1 232 0
 322 018e FFF7FEFF 		bl	USBFS_InitControlWrite
 323 0192 0346     		mov	r3, r0
 324 0194 FB71     		strb	r3, [r7, #7]
 233:Generated_Source\PSoC5/USBFS_audio.c ****                     }
 325              		.loc 1 233 0
 326 0196 264A     		ldr	r2, .L35+44
 327 0198 7B79     		ldrb	r3, [r7, #5]
 328 019a 1370     		strb	r3, [r2]
 240:Generated_Source\PSoC5/USBFS_audio.c ****                 default:
 329              		.loc 1 240 0
 330 019c FFE7     		b	.L34
 331              	.L25:
 332              	.L34:
 333 019e 00BF     		nop
 334              	.L26:
 335 01a0 2AE0     		b	.L8
 336              	.L22:
 243:Generated_Source\PSoC5/USBFS_audio.c ****             }
 244:Generated_Source\PSoC5/USBFS_audio.c ****         }
 245:Generated_Source\PSoC5/USBFS_audio.c ****         else if((bmRequestType & USBFS_RQST_RCPT_MASK) == USBFS_RQST_RCPT_IFC)
 337              		.loc 1 245 0
 338 01a2 BB79     		ldrb	r3, [r7, #6]	@ zero_extendqisi2
 339 01a4 03F00303 		and	r3, r3, #3
 340 01a8 012B     		cmp	r3, #1
ARM GAS  C:\Users\JOSANT~1\AppData\Local\Temp\ccpsY3Vk.s 			page 12


 341 01aa 25D1     		bne	.L8
 246:Generated_Source\PSoC5/USBFS_audio.c ****         {
 247:Generated_Source\PSoC5/USBFS_audio.c ****             /* Interface or Entity ID */
 248:Generated_Source\PSoC5/USBFS_audio.c ****             switch (CY_GET_REG8(USBFS_bRequest))
 342              		.loc 1 248 0
 343 01ac 174B     		ldr	r3, .L35+8
 344 01ae 1B78     		ldrb	r3, [r3]
 345 01b0 DBB2     		uxtb	r3, r3
 346 01b2 012B     		cmp	r3, #1
 347 01b4 00D0     		beq	.L28
 249:Generated_Source\PSoC5/USBFS_audio.c ****             {
 250:Generated_Source\PSoC5/USBFS_audio.c ****                 case USBFS_SET_CUR:
 251:Generated_Source\PSoC5/USBFS_audio.c ****                 #if defined(USBFS_ENABLE_AUDIO_STREAMING)
 252:Generated_Source\PSoC5/USBFS_audio.c ****                     if(CY_GET_REG8(USBFS_wValueHi) == USBFS_MUTE_CONTROL)
 253:Generated_Source\PSoC5/USBFS_audio.c ****                     {
 254:Generated_Source\PSoC5/USBFS_audio.c ****                         /* `#START MUTE_SET_REQUEST` Place multi-channel handler here */
 255:Generated_Source\PSoC5/USBFS_audio.c **** 
 256:Generated_Source\PSoC5/USBFS_audio.c ****                         /* `#END` */
 257:Generated_Source\PSoC5/USBFS_audio.c **** 
 258:Generated_Source\PSoC5/USBFS_audio.c ****                         /* Entity ID Control Selector is MUTE */
 259:Generated_Source\PSoC5/USBFS_audio.c ****                         USBFS_currentTD.wCount = 1u;
 260:Generated_Source\PSoC5/USBFS_audio.c ****                         USBFS_currentTD.pData  = &USBFS_currentMute;
 261:Generated_Source\PSoC5/USBFS_audio.c ****                         requestHandled   = USBFS_InitControlWrite();
 262:Generated_Source\PSoC5/USBFS_audio.c ****                     }
 263:Generated_Source\PSoC5/USBFS_audio.c ****                     else if(CY_GET_REG8(USBFS_wValueHi) == USBFS_VOLUME_CONTROL)
 264:Generated_Source\PSoC5/USBFS_audio.c ****                     {
 265:Generated_Source\PSoC5/USBFS_audio.c ****                         /* `#START VOLUME_CONTROL_SET_REQUEST` Place multi-channel handler here */
 266:Generated_Source\PSoC5/USBFS_audio.c **** 
 267:Generated_Source\PSoC5/USBFS_audio.c ****                         /* `#END` */
 268:Generated_Source\PSoC5/USBFS_audio.c **** 
 269:Generated_Source\PSoC5/USBFS_audio.c ****                         /* Entity ID Control Selector is VOLUME */
 270:Generated_Source\PSoC5/USBFS_audio.c ****                         USBFS_currentTD.wCount = USBFS_VOLUME_LEN;
 271:Generated_Source\PSoC5/USBFS_audio.c ****                         USBFS_currentTD.pData  = USBFS_currentVolume;
 272:Generated_Source\PSoC5/USBFS_audio.c ****                         requestHandled   = USBFS_InitControlWrite();
 273:Generated_Source\PSoC5/USBFS_audio.c ****                     }
 274:Generated_Source\PSoC5/USBFS_audio.c ****                     else
 275:Generated_Source\PSoC5/USBFS_audio.c ****                     {
 276:Generated_Source\PSoC5/USBFS_audio.c ****                         /* `#START OTHER_SET_CUR_REQUESTS` Place other request handler here */
 277:Generated_Source\PSoC5/USBFS_audio.c **** 
 278:Generated_Source\PSoC5/USBFS_audio.c ****                         /* `#END` */
 279:Generated_Source\PSoC5/USBFS_audio.c ****                     }
 280:Generated_Source\PSoC5/USBFS_audio.c ****                 #endif /*  USBFS_ENABLE_AUDIO_STREAMING */
 281:Generated_Source\PSoC5/USBFS_audio.c **** 
 282:Generated_Source\PSoC5/USBFS_audio.c ****                 /* `#START AUDIO_CONTROL_SEL_REQUESTS` Place other request handler here */
 283:Generated_Source\PSoC5/USBFS_audio.c **** 
 284:Generated_Source\PSoC5/USBFS_audio.c ****                 /* `#END` */
 285:Generated_Source\PSoC5/USBFS_audio.c ****                     break;
 286:Generated_Source\PSoC5/USBFS_audio.c ****                 default:
 287:Generated_Source\PSoC5/USBFS_audio.c ****                     break;
 348              		.loc 1 287 0
 349 01b6 1FE0     		b	.L31
 350              	.L28:
 252:Generated_Source\PSoC5/USBFS_audio.c ****                     {
 351              		.loc 1 252 0
 352 01b8 154B     		ldr	r3, .L35+12
 353 01ba 1B78     		ldrb	r3, [r3]
 354 01bc DBB2     		uxtb	r3, r3
ARM GAS  C:\Users\JOSANT~1\AppData\Local\Temp\ccpsY3Vk.s 			page 13


 355 01be 012B     		cmp	r3, #1
 356 01c0 0AD1     		bne	.L29
 259:Generated_Source\PSoC5/USBFS_audio.c ****                         USBFS_currentTD.pData  = &USBFS_currentMute;
 357              		.loc 1 259 0
 358 01c2 144B     		ldr	r3, .L35+16
 359 01c4 0122     		movs	r2, #1
 360 01c6 1A80     		strh	r2, [r3]	@ movhi
 260:Generated_Source\PSoC5/USBFS_audio.c ****                         requestHandled   = USBFS_InitControlWrite();
 361              		.loc 1 260 0
 362 01c8 124B     		ldr	r3, .L35+16
 363 01ca 144A     		ldr	r2, .L35+24
 364 01cc 5A60     		str	r2, [r3, #4]
 261:Generated_Source\PSoC5/USBFS_audio.c ****                     }
 365              		.loc 1 261 0
 366 01ce FFF7FEFF 		bl	USBFS_InitControlWrite
 367 01d2 0346     		mov	r3, r0
 368 01d4 FB71     		strb	r3, [r7, #7]
 369 01d6 0EE0     		b	.L30
 370              	.L29:
 263:Generated_Source\PSoC5/USBFS_audio.c ****                     {
 371              		.loc 1 263 0
 372 01d8 0D4B     		ldr	r3, .L35+12
 373 01da 1B78     		ldrb	r3, [r3]
 374 01dc DBB2     		uxtb	r3, r3
 375 01de 022B     		cmp	r3, #2
 376 01e0 09D1     		bne	.L30
 270:Generated_Source\PSoC5/USBFS_audio.c ****                         USBFS_currentTD.pData  = USBFS_currentVolume;
 377              		.loc 1 270 0
 378 01e2 0C4B     		ldr	r3, .L35+16
 379 01e4 0222     		movs	r2, #2
 380 01e6 1A80     		strh	r2, [r3]	@ movhi
 271:Generated_Source\PSoC5/USBFS_audio.c ****                         requestHandled   = USBFS_InitControlWrite();
 381              		.loc 1 271 0
 382 01e8 0A4B     		ldr	r3, .L35+16
 383 01ea 0D4A     		ldr	r2, .L35+28
 384 01ec 5A60     		str	r2, [r3, #4]
 272:Generated_Source\PSoC5/USBFS_audio.c ****                     }
 385              		.loc 1 272 0
 386 01ee FFF7FEFF 		bl	USBFS_InitControlWrite
 387 01f2 0346     		mov	r3, r0
 388 01f4 FB71     		strb	r3, [r7, #7]
 389              	.L30:
 285:Generated_Source\PSoC5/USBFS_audio.c ****                 default:
 390              		.loc 1 285 0
 391 01f6 00BF     		nop
 392              	.L31:
 393              	.L8:
 288:Generated_Source\PSoC5/USBFS_audio.c ****             }
 289:Generated_Source\PSoC5/USBFS_audio.c ****         }
 290:Generated_Source\PSoC5/USBFS_audio.c ****         else
 291:Generated_Source\PSoC5/USBFS_audio.c ****         {   
 292:Generated_Source\PSoC5/USBFS_audio.c ****             /* USBFS_RQST_RCPT_OTHER */
 293:Generated_Source\PSoC5/USBFS_audio.c ****         }
 294:Generated_Source\PSoC5/USBFS_audio.c ****     }
 295:Generated_Source\PSoC5/USBFS_audio.c ****     else
 296:Generated_Source\PSoC5/USBFS_audio.c ****     {   
 297:Generated_Source\PSoC5/USBFS_audio.c ****         /* requestHandled is initialized as FALSE by default */
ARM GAS  C:\Users\JOSANT~1\AppData\Local\Temp\ccpsY3Vk.s 			page 14


 298:Generated_Source\PSoC5/USBFS_audio.c ****     }
 299:Generated_Source\PSoC5/USBFS_audio.c **** 
 300:Generated_Source\PSoC5/USBFS_audio.c ****     return(requestHandled);
 394              		.loc 1 300 0
 395 01f8 FB79     		ldrb	r3, [r7, #7]	@ zero_extendqisi2
 301:Generated_Source\PSoC5/USBFS_audio.c **** }
 396              		.loc 1 301 0
 397 01fa 1846     		mov	r0, r3
 398 01fc 0837     		adds	r7, r7, #8
 399              		.cfi_def_cfa_offset 8
 400 01fe BD46     		mov	sp, r7
 401              		.cfi_def_cfa_register 13
 402              		@ sp needed
 403 0200 80BD     		pop	{r7, pc}
 404              	.L36:
 405 0202 00BF     		.align	2
 406              	.L35:
 407 0204 00600040 		.word	1073766400
 408 0208 04600040 		.word	1073766404
 409 020c 01600040 		.word	1073766401
 410 0210 03600040 		.word	1073766403
 411 0214 00000000 		.word	USBFS_currentTD
 412 0218 00000000 		.word	USBFS_currentSampleFrequency
 413 021c 00000000 		.word	USBFS_currentMute
 414 0220 00000000 		.word	USBFS_currentVolume
 415 0224 00000000 		.word	USBFS_minimumVolume
 416 0228 00000000 		.word	USBFS_maximumVolume
 417 022c 00000000 		.word	USBFS_resolutionVolume
 418 0230 00000000 		.word	USBFS_frequencyChanged
 419              		.cfi_endproc
 420              	.LFE0:
 421              		.size	USBFS_DispatchAUDIOClassRqst, .-USBFS_DispatchAUDIOClassRqst
 422              		.text
 423              	.Letext0:
 424              		.file 2 "Generated_Source\\PSoC5\\cytypes.h"
 425              		.file 3 "Generated_Source\\PSoC5\\USBFS.h"
 426              		.file 4 "Generated_Source\\PSoC5\\USBFS_pvt.h"