ARM GAS  C:\Users\JOSANT~1\AppData\Local\Temp\cceoxjZy.s 			page 1


   1              		.syntax unified
   2              		.cpu cortex-m3
   3              		.fpu softvfp
   4              		.eabi_attribute 20, 1
   5              		.eabi_attribute 21, 1
   6              		.eabi_attribute 23, 3
   7              		.eabi_attribute 24, 1
   8              		.eabi_attribute 25, 1
   9              		.eabi_attribute 26, 1
  10              		.eabi_attribute 30, 6
  11              		.eabi_attribute 34, 1
  12              		.eabi_attribute 18, 4
  13              		.thumb
  14              		.file	"USBFS_std.c"
  15              		.text
  16              	.Ltext0:
  17              		.cfi_sections	.debug_frame
  18              		.section	.text.USBFS_HandleStandardRqst,"ax",%progbits
  19              		.align	2
  20              		.global	USBFS_HandleStandardRqst
  21              		.thumb
  22              		.thumb_func
  23              		.type	USBFS_HandleStandardRqst, %function
  24              	USBFS_HandleStandardRqst:
  25              	.LFB0:
  26              		.file 1 "Generated_Source\\PSoC5\\USBFS_std.c"
   1:Generated_Source\PSoC5/USBFS_std.c **** /*******************************************************************************
   2:Generated_Source\PSoC5/USBFS_std.c **** * File Name: USBFS_std.c
   3:Generated_Source\PSoC5/USBFS_std.c **** * Version 2.70
   4:Generated_Source\PSoC5/USBFS_std.c **** *
   5:Generated_Source\PSoC5/USBFS_std.c **** * Description:
   6:Generated_Source\PSoC5/USBFS_std.c **** *  USB Standard request handler.
   7:Generated_Source\PSoC5/USBFS_std.c **** *
   8:Generated_Source\PSoC5/USBFS_std.c **** * Note:
   9:Generated_Source\PSoC5/USBFS_std.c **** *
  10:Generated_Source\PSoC5/USBFS_std.c **** ********************************************************************************
  11:Generated_Source\PSoC5/USBFS_std.c **** * Copyright 2008-2013, Cypress Semiconductor Corporation.  All rights reserved.
  12:Generated_Source\PSoC5/USBFS_std.c **** * You may use this file only in accordance with the license, terms, conditions,
  13:Generated_Source\PSoC5/USBFS_std.c **** * disclaimers, and limitations in the end user license agreement accompanying
  14:Generated_Source\PSoC5/USBFS_std.c **** * the software package with which this file was provided.
  15:Generated_Source\PSoC5/USBFS_std.c **** *******************************************************************************/
  16:Generated_Source\PSoC5/USBFS_std.c **** 
  17:Generated_Source\PSoC5/USBFS_std.c **** #include "USBFS.h"
  18:Generated_Source\PSoC5/USBFS_std.c **** #include "USBFS_cdc.h"
  19:Generated_Source\PSoC5/USBFS_std.c **** #include "USBFS_pvt.h"
  20:Generated_Source\PSoC5/USBFS_std.c **** #if defined(USBFS_ENABLE_MIDI_STREAMING)
  21:Generated_Source\PSoC5/USBFS_std.c ****     #include "USBFS_midi.h"
  22:Generated_Source\PSoC5/USBFS_std.c **** #endif /*  USBFS_ENABLE_MIDI_STREAMING*/
  23:Generated_Source\PSoC5/USBFS_std.c **** 
  24:Generated_Source\PSoC5/USBFS_std.c **** 
  25:Generated_Source\PSoC5/USBFS_std.c **** /***************************************
  26:Generated_Source\PSoC5/USBFS_std.c **** *   Static data allocation
  27:Generated_Source\PSoC5/USBFS_std.c **** ***************************************/
  28:Generated_Source\PSoC5/USBFS_std.c **** 
  29:Generated_Source\PSoC5/USBFS_std.c **** #if defined(USBFS_ENABLE_FWSN_STRING)
  30:Generated_Source\PSoC5/USBFS_std.c ****     static volatile uint8 *USBFS_fwSerialNumberStringDescriptor;
  31:Generated_Source\PSoC5/USBFS_std.c ****     static volatile uint8 USBFS_snStringConfirm = USBFS_FALSE;
ARM GAS  C:\Users\JOSANT~1\AppData\Local\Temp\cceoxjZy.s 			page 2


  32:Generated_Source\PSoC5/USBFS_std.c **** #endif  /* USBFS_ENABLE_FWSN_STRING */
  33:Generated_Source\PSoC5/USBFS_std.c **** 
  34:Generated_Source\PSoC5/USBFS_std.c **** #if defined(USBFS_ENABLE_FWSN_STRING)
  35:Generated_Source\PSoC5/USBFS_std.c **** 
  36:Generated_Source\PSoC5/USBFS_std.c ****     /*******************************************************************************
  37:Generated_Source\PSoC5/USBFS_std.c ****     * Function Name: USBFS_SerialNumString
  38:Generated_Source\PSoC5/USBFS_std.c ****     ********************************************************************************
  39:Generated_Source\PSoC5/USBFS_std.c ****     *
  40:Generated_Source\PSoC5/USBFS_std.c ****     * Summary:
  41:Generated_Source\PSoC5/USBFS_std.c ****     *  Application firmware may supply the source of the USB device descriptors
  42:Generated_Source\PSoC5/USBFS_std.c ****     *  serial number string during runtime.
  43:Generated_Source\PSoC5/USBFS_std.c ****     *
  44:Generated_Source\PSoC5/USBFS_std.c ****     * Parameters:
  45:Generated_Source\PSoC5/USBFS_std.c ****     *  snString:  pointer to string.
  46:Generated_Source\PSoC5/USBFS_std.c ****     *
  47:Generated_Source\PSoC5/USBFS_std.c ****     * Return:
  48:Generated_Source\PSoC5/USBFS_std.c ****     *  None.
  49:Generated_Source\PSoC5/USBFS_std.c ****     *
  50:Generated_Source\PSoC5/USBFS_std.c ****     * Reentrant:
  51:Generated_Source\PSoC5/USBFS_std.c ****     *  No.
  52:Generated_Source\PSoC5/USBFS_std.c ****     *
  53:Generated_Source\PSoC5/USBFS_std.c ****     *******************************************************************************/
  54:Generated_Source\PSoC5/USBFS_std.c ****     void  USBFS_SerialNumString(uint8 snString[]) 
  55:Generated_Source\PSoC5/USBFS_std.c ****     {
  56:Generated_Source\PSoC5/USBFS_std.c ****         USBFS_snStringConfirm = USBFS_FALSE;
  57:Generated_Source\PSoC5/USBFS_std.c ****         if(snString != NULL)
  58:Generated_Source\PSoC5/USBFS_std.c ****         {
  59:Generated_Source\PSoC5/USBFS_std.c ****             /* Check descriptor validation */
  60:Generated_Source\PSoC5/USBFS_std.c ****             if( (snString[0u] > 1u ) && (snString[1u] == USBFS_DESCR_STRING) )
  61:Generated_Source\PSoC5/USBFS_std.c ****             {
  62:Generated_Source\PSoC5/USBFS_std.c ****                 USBFS_fwSerialNumberStringDescriptor = snString;
  63:Generated_Source\PSoC5/USBFS_std.c ****                 USBFS_snStringConfirm = USBFS_TRUE;
  64:Generated_Source\PSoC5/USBFS_std.c ****             }
  65:Generated_Source\PSoC5/USBFS_std.c ****         }
  66:Generated_Source\PSoC5/USBFS_std.c ****     }
  67:Generated_Source\PSoC5/USBFS_std.c **** 
  68:Generated_Source\PSoC5/USBFS_std.c **** #endif  /* USBFS_ENABLE_FWSN_STRING */
  69:Generated_Source\PSoC5/USBFS_std.c **** 
  70:Generated_Source\PSoC5/USBFS_std.c **** 
  71:Generated_Source\PSoC5/USBFS_std.c **** /*******************************************************************************
  72:Generated_Source\PSoC5/USBFS_std.c **** * Function Name: USBFS_HandleStandardRqst
  73:Generated_Source\PSoC5/USBFS_std.c **** ********************************************************************************
  74:Generated_Source\PSoC5/USBFS_std.c **** *
  75:Generated_Source\PSoC5/USBFS_std.c **** * Summary:
  76:Generated_Source\PSoC5/USBFS_std.c **** *  This Routine dispatches standard requests
  77:Generated_Source\PSoC5/USBFS_std.c **** *
  78:Generated_Source\PSoC5/USBFS_std.c **** * Parameters:
  79:Generated_Source\PSoC5/USBFS_std.c **** *  None.
  80:Generated_Source\PSoC5/USBFS_std.c **** *
  81:Generated_Source\PSoC5/USBFS_std.c **** * Return:
  82:Generated_Source\PSoC5/USBFS_std.c **** *  TRUE if request handled.
  83:Generated_Source\PSoC5/USBFS_std.c **** *
  84:Generated_Source\PSoC5/USBFS_std.c **** * Reentrant:
  85:Generated_Source\PSoC5/USBFS_std.c **** *  No.
  86:Generated_Source\PSoC5/USBFS_std.c **** *
  87:Generated_Source\PSoC5/USBFS_std.c **** *******************************************************************************/
  88:Generated_Source\PSoC5/USBFS_std.c **** uint8 USBFS_HandleStandardRqst(void) 
ARM GAS  C:\Users\JOSANT~1\AppData\Local\Temp\cceoxjZy.s 			page 3


  89:Generated_Source\PSoC5/USBFS_std.c **** {
  27              		.loc 1 89 0
  28              		.cfi_startproc
  29              		@ args = 0, pretend = 0, frame = 24
  30              		@ frame_needed = 1, uses_anonymous_args = 0
  31 0000 80B5     		push	{r7, lr}
  32              		.cfi_def_cfa_offset 8
  33              		.cfi_offset 7, -8
  34              		.cfi_offset 14, -4
  35 0002 86B0     		sub	sp, sp, #24
  36              		.cfi_def_cfa_offset 32
  37 0004 00AF     		add	r7, sp, #0
  38              		.cfi_def_cfa_register 7
  90:Generated_Source\PSoC5/USBFS_std.c ****     uint8 requestHandled = USBFS_FALSE;
  39              		.loc 1 90 0
  40 0006 0023     		movs	r3, #0
  41 0008 FB75     		strb	r3, [r7, #23]
  91:Generated_Source\PSoC5/USBFS_std.c ****     uint8 interfaceNumber;
  92:Generated_Source\PSoC5/USBFS_std.c ****     uint8 configurationN;
  93:Generated_Source\PSoC5/USBFS_std.c ****     #if defined(USBFS_ENABLE_STRINGS)
  94:Generated_Source\PSoC5/USBFS_std.c ****         volatile uint8 *pStr = 0u;
  42              		.loc 1 94 0
  43 000a 0023     		movs	r3, #0
  44 000c 3B61     		str	r3, [r7, #16]
  95:Generated_Source\PSoC5/USBFS_std.c ****         #if defined(USBFS_ENABLE_DESCRIPTOR_STRINGS)
  96:Generated_Source\PSoC5/USBFS_std.c ****             uint8 nStr;
  97:Generated_Source\PSoC5/USBFS_std.c ****             uint8 descrLength;
  98:Generated_Source\PSoC5/USBFS_std.c ****         #endif /* USBFS_ENABLE_DESCRIPTOR_STRINGS */
  99:Generated_Source\PSoC5/USBFS_std.c ****     #endif /* USBFS_ENABLE_STRINGS */
 100:Generated_Source\PSoC5/USBFS_std.c ****     static volatile uint8 USBFS_tBuffer[USBFS_STATUS_LENGTH_MAX];
 101:Generated_Source\PSoC5/USBFS_std.c ****     const T_USBFS_LUT CYCODE *pTmp;
 102:Generated_Source\PSoC5/USBFS_std.c ****     USBFS_currentTD.count = 0u;
  45              		.loc 1 102 0
  46 000e A74B     		ldr	r3, .L58
  47 0010 0022     		movs	r2, #0
  48 0012 1A80     		strh	r2, [r3]	@ movhi
 103:Generated_Source\PSoC5/USBFS_std.c **** 
 104:Generated_Source\PSoC5/USBFS_std.c ****     if ((CY_GET_REG8(USBFS_bmRequestType) & USBFS_RQST_DIR_MASK) == USBFS_RQST_DIR_D2H)
  49              		.loc 1 104 0
  50 0014 A64B     		ldr	r3, .L58+4
  51 0016 1B78     		ldrb	r3, [r3]
  52 0018 DBB2     		uxtb	r3, r3
  53 001a DBB2     		uxtb	r3, r3
  54 001c 5BB2     		sxtb	r3, r3
  55 001e 002B     		cmp	r3, #0
  56 0020 80F2EE80 		bge	.L2
 105:Generated_Source\PSoC5/USBFS_std.c ****     {
 106:Generated_Source\PSoC5/USBFS_std.c ****         /* Control Read */
 107:Generated_Source\PSoC5/USBFS_std.c ****         switch (CY_GET_REG8(USBFS_bRequest))
  57              		.loc 1 107 0
  58 0024 A34B     		ldr	r3, .L58+8
  59 0026 1B78     		ldrb	r3, [r3]
  60 0028 DBB2     		uxtb	r3, r3
  61 002a 0A2B     		cmp	r3, #10
  62 002c 00F2E680 		bhi	.L54
  63 0030 01A2     		adr	r2, .L5
  64 0032 52F823F0 		ldr	pc, [r2, r3, lsl #2]
ARM GAS  C:\Users\JOSANT~1\AppData\Local\Temp\cceoxjZy.s 			page 4


  65 0036 00BF     		.p2align 2
  66              	.L5:
  67 0038 51010000 		.word	.L4+1
  68 003c FD010000 		.word	.L54+1
  69 0040 FD010000 		.word	.L54+1
  70 0044 FD010000 		.word	.L54+1
  71 0048 FD010000 		.word	.L54+1
  72 004c FD010000 		.word	.L54+1
  73 0050 65000000 		.word	.L6+1
  74 0054 FD010000 		.word	.L54+1
  75 0058 C7010000 		.word	.L7+1
  76 005c FD010000 		.word	.L54+1
  77 0060 DD010000 		.word	.L8+1
  78              		.p2align 1
  79              	.L6:
 108:Generated_Source\PSoC5/USBFS_std.c ****         {
 109:Generated_Source\PSoC5/USBFS_std.c ****             case USBFS_GET_DESCRIPTOR:
 110:Generated_Source\PSoC5/USBFS_std.c ****                 if (CY_GET_REG8(USBFS_wValueHi) == USBFS_DESCR_DEVICE)
  80              		.loc 1 110 0
  81 0064 944B     		ldr	r3, .L58+12
  82 0066 1B78     		ldrb	r3, [r3]
  83 0068 DBB2     		uxtb	r3, r3
  84 006a 012B     		cmp	r3, #1
  85 006c 0ED1     		bne	.L9
 111:Generated_Source\PSoC5/USBFS_std.c ****                 {
 112:Generated_Source\PSoC5/USBFS_std.c ****                     pTmp = USBFS_GetDeviceTablePtr();
  86              		.loc 1 112 0
  87 006e FFF7FEFF 		bl	USBFS_GetDeviceTablePtr
  88 0072 B860     		str	r0, [r7, #8]
 113:Generated_Source\PSoC5/USBFS_std.c ****                     USBFS_currentTD.pData = (volatile uint8 *)pTmp->p_list;
  89              		.loc 1 113 0
  90 0074 BB68     		ldr	r3, [r7, #8]
  91 0076 5B68     		ldr	r3, [r3, #4]
  92 0078 8C4A     		ldr	r2, .L58
  93 007a 5360     		str	r3, [r2, #4]
 114:Generated_Source\PSoC5/USBFS_std.c ****                     USBFS_currentTD.count = USBFS_DEVICE_DESCR_LENGTH;
  94              		.loc 1 114 0
  95 007c 8B4B     		ldr	r3, .L58
  96 007e 1222     		movs	r2, #18
  97 0080 1A80     		strh	r2, [r3]	@ movhi
 115:Generated_Source\PSoC5/USBFS_std.c ****                     requestHandled  = USBFS_InitControlRead();
  98              		.loc 1 115 0
  99 0082 FFF7FEFF 		bl	USBFS_InitControlRead
 100 0086 0346     		mov	r3, r0
 101 0088 FB75     		strb	r3, [r7, #23]
 102 008a 60E0     		b	.L10
 103              	.L9:
 116:Generated_Source\PSoC5/USBFS_std.c ****                 }
 117:Generated_Source\PSoC5/USBFS_std.c ****                 else if (CY_GET_REG8(USBFS_wValueHi) == USBFS_DESCR_CONFIG)
 104              		.loc 1 117 0
 105 008c 8A4B     		ldr	r3, .L58+12
 106 008e 1B78     		ldrb	r3, [r3]
 107 0090 DBB2     		uxtb	r3, r3
 108 0092 022B     		cmp	r3, #2
 109 0094 24D1     		bne	.L11
 118:Generated_Source\PSoC5/USBFS_std.c ****                 {
 119:Generated_Source\PSoC5/USBFS_std.c ****                     pTmp = USBFS_GetConfigTablePtr(CY_GET_REG8(USBFS_wValueLo));
ARM GAS  C:\Users\JOSANT~1\AppData\Local\Temp\cceoxjZy.s 			page 5


 110              		.loc 1 119 0
 111 0096 894B     		ldr	r3, .L58+16
 112 0098 1B78     		ldrb	r3, [r3]
 113 009a DBB2     		uxtb	r3, r3
 114 009c 1846     		mov	r0, r3
 115 009e FFF7FEFF 		bl	USBFS_GetConfigTablePtr
 116 00a2 B860     		str	r0, [r7, #8]
 120:Generated_Source\PSoC5/USBFS_std.c ****                     if( pTmp != NULL )  /* Verify that requested descriptor exists */
 117              		.loc 1 120 0
 118 00a4 BB68     		ldr	r3, [r7, #8]
 119 00a6 002B     		cmp	r3, #0
 120 00a8 51D0     		beq	.L10
 121:Generated_Source\PSoC5/USBFS_std.c ****                     {
 122:Generated_Source\PSoC5/USBFS_std.c ****                         USBFS_currentTD.pData = (volatile uint8 *)pTmp->p_list;
 121              		.loc 1 122 0
 122 00aa BB68     		ldr	r3, [r7, #8]
 123 00ac 5B68     		ldr	r3, [r3, #4]
 124 00ae 7F4A     		ldr	r2, .L58
 125 00b0 5360     		str	r3, [r2, #4]
 123:Generated_Source\PSoC5/USBFS_std.c ****                         USBFS_currentTD.count = ((uint16)(USBFS_currentTD.pData)[ \
 126              		.loc 1 123 0
 127 00b2 7E4B     		ldr	r3, .L58
 128 00b4 5B68     		ldr	r3, [r3, #4]
 129 00b6 0333     		adds	r3, r3, #3
 130 00b8 1B78     		ldrb	r3, [r3]
 131 00ba DBB2     		uxtb	r3, r3
 124:Generated_Source\PSoC5/USBFS_std.c ****                                           USBFS_CONFIG_DESCR_TOTAL_LENGTH_HI] << 8u) | \
 132              		.loc 1 124 0
 133 00bc 1B02     		lsls	r3, r3, #8
 123:Generated_Source\PSoC5/USBFS_std.c ****                         USBFS_currentTD.count = ((uint16)(USBFS_currentTD.pData)[ \
 134              		.loc 1 123 0
 135 00be 9AB2     		uxth	r2, r3
 125:Generated_Source\PSoC5/USBFS_std.c ****                                          (USBFS_currentTD.pData)[USBFS_CONFIG_DESCR_TOTAL_LENGTH_LO
 136              		.loc 1 125 0
 137 00c0 7A4B     		ldr	r3, .L58
 138 00c2 5B68     		ldr	r3, [r3, #4]
 139 00c4 0233     		adds	r3, r3, #2
 140 00c6 1B78     		ldrb	r3, [r3]
 141 00c8 DBB2     		uxtb	r3, r3
 123:Generated_Source\PSoC5/USBFS_std.c ****                         USBFS_currentTD.count = ((uint16)(USBFS_currentTD.pData)[ \
 142              		.loc 1 123 0
 143 00ca 9BB2     		uxth	r3, r3
 144 00cc 1343     		orrs	r3, r3, r2
 145 00ce 9BB2     		uxth	r3, r3
 146 00d0 9AB2     		uxth	r2, r3
 147 00d2 764B     		ldr	r3, .L58
 148 00d4 1A80     		strh	r2, [r3]	@ movhi
 126:Generated_Source\PSoC5/USBFS_std.c ****                         requestHandled  = USBFS_InitControlRead();
 149              		.loc 1 126 0
 150 00d6 FFF7FEFF 		bl	USBFS_InitControlRead
 151 00da 0346     		mov	r3, r0
 152 00dc FB75     		strb	r3, [r7, #23]
 127:Generated_Source\PSoC5/USBFS_std.c ****                     }
 128:Generated_Source\PSoC5/USBFS_std.c ****                 }
 129:Generated_Source\PSoC5/USBFS_std.c ****                 #if defined(USBFS_ENABLE_STRINGS)
 130:Generated_Source\PSoC5/USBFS_std.c ****                 else if (CY_GET_REG8(USBFS_wValueHi) == USBFS_DESCR_STRING)
 131:Generated_Source\PSoC5/USBFS_std.c ****                 {
ARM GAS  C:\Users\JOSANT~1\AppData\Local\Temp\cceoxjZy.s 			page 6


 132:Generated_Source\PSoC5/USBFS_std.c ****                     /* Descriptor Strings*/
 133:Generated_Source\PSoC5/USBFS_std.c ****                     #if defined(USBFS_ENABLE_DESCRIPTOR_STRINGS)
 134:Generated_Source\PSoC5/USBFS_std.c ****                         nStr = 0u;
 135:Generated_Source\PSoC5/USBFS_std.c ****                         pStr = (volatile uint8 *)&USBFS_STRING_DESCRIPTORS[0u];
 136:Generated_Source\PSoC5/USBFS_std.c ****                         while ( (CY_GET_REG8(USBFS_wValueLo) > nStr) && (*pStr != 0u) )
 137:Generated_Source\PSoC5/USBFS_std.c ****                         {
 138:Generated_Source\PSoC5/USBFS_std.c ****                             /* Read descriptor length from 1st byte */
 139:Generated_Source\PSoC5/USBFS_std.c ****                             descrLength = *pStr;
 140:Generated_Source\PSoC5/USBFS_std.c ****                             /* Move to next string descriptor */
 141:Generated_Source\PSoC5/USBFS_std.c ****                             pStr = &pStr[descrLength];
 142:Generated_Source\PSoC5/USBFS_std.c ****                             nStr++;
 143:Generated_Source\PSoC5/USBFS_std.c ****                         }
 144:Generated_Source\PSoC5/USBFS_std.c ****                     #endif /*  USBFS_ENABLE_DESCRIPTOR_STRINGS */
 145:Generated_Source\PSoC5/USBFS_std.c ****                     /* Microsoft OS String*/
 146:Generated_Source\PSoC5/USBFS_std.c ****                     #if defined(USBFS_ENABLE_MSOS_STRING)
 147:Generated_Source\PSoC5/USBFS_std.c ****                         if( CY_GET_REG8(USBFS_wValueLo) == USBFS_STRING_MSOS )
 148:Generated_Source\PSoC5/USBFS_std.c ****                         {
 149:Generated_Source\PSoC5/USBFS_std.c ****                             pStr = (volatile uint8 *)&USBFS_MSOS_DESCRIPTOR[0u];
 150:Generated_Source\PSoC5/USBFS_std.c ****                         }
 151:Generated_Source\PSoC5/USBFS_std.c ****                     #endif /*  USBFS_ENABLE_MSOS_STRING*/
 152:Generated_Source\PSoC5/USBFS_std.c ****                     /* SN string */
 153:Generated_Source\PSoC5/USBFS_std.c ****                     #if defined(USBFS_ENABLE_SN_STRING)
 154:Generated_Source\PSoC5/USBFS_std.c ****                         if( (CY_GET_REG8(USBFS_wValueLo) != 0u) &&
 155:Generated_Source\PSoC5/USBFS_std.c ****                             (CY_GET_REG8(USBFS_wValueLo) ==
 156:Generated_Source\PSoC5/USBFS_std.c ****                             USBFS_DEVICE0_DESCR[USBFS_DEVICE_DESCR_SN_SHIFT]) )
 157:Generated_Source\PSoC5/USBFS_std.c ****                         {
 158:Generated_Source\PSoC5/USBFS_std.c ****                             
 159:Generated_Source\PSoC5/USBFS_std.c ****                             #if defined(USBFS_ENABLE_IDSN_STRING)
 160:Generated_Source\PSoC5/USBFS_std.c ****                                 /* Read DIE ID and generate string descriptor in RAM */
 161:Generated_Source\PSoC5/USBFS_std.c ****                                 USBFS_ReadDieID(USBFS_idSerialNumberStringDescriptor);
 162:Generated_Source\PSoC5/USBFS_std.c ****                                 pStr = USBFS_idSerialNumberStringDescriptor;
 163:Generated_Source\PSoC5/USBFS_std.c ****                             #elif defined(USBFS_ENABLE_FWSN_STRING)
 164:Generated_Source\PSoC5/USBFS_std.c ****                                 if(USBFS_snStringConfirm != USBFS_FALSE)
 165:Generated_Source\PSoC5/USBFS_std.c ****                                 {
 166:Generated_Source\PSoC5/USBFS_std.c ****                                     pStr = USBFS_fwSerialNumberStringDescriptor;
 167:Generated_Source\PSoC5/USBFS_std.c ****                                 }
 168:Generated_Source\PSoC5/USBFS_std.c ****                                 else
 169:Generated_Source\PSoC5/USBFS_std.c ****                                 {
 170:Generated_Source\PSoC5/USBFS_std.c ****                                     pStr = (volatile uint8 *)&USBFS_SN_STRING_DESCRIPTOR[0u];
 171:Generated_Source\PSoC5/USBFS_std.c ****                                 }
 172:Generated_Source\PSoC5/USBFS_std.c ****                             #else
 173:Generated_Source\PSoC5/USBFS_std.c ****                                 pStr = (volatile uint8 *)&USBFS_SN_STRING_DESCRIPTOR[0u];
 174:Generated_Source\PSoC5/USBFS_std.c ****                             #endif  /* defined(USBFS_ENABLE_IDSN_STRING) */
 175:Generated_Source\PSoC5/USBFS_std.c ****                         }
 176:Generated_Source\PSoC5/USBFS_std.c ****                     #endif    /*  USBFS_ENABLE_SN_STRING */
 177:Generated_Source\PSoC5/USBFS_std.c ****                     if (*pStr != 0u)
 178:Generated_Source\PSoC5/USBFS_std.c ****                     {
 179:Generated_Source\PSoC5/USBFS_std.c ****                         USBFS_currentTD.count = *pStr;
 180:Generated_Source\PSoC5/USBFS_std.c ****                         USBFS_currentTD.pData = pStr;
 181:Generated_Source\PSoC5/USBFS_std.c ****                         requestHandled  = USBFS_InitControlRead();
 182:Generated_Source\PSoC5/USBFS_std.c ****                     }
 183:Generated_Source\PSoC5/USBFS_std.c ****                 }
 184:Generated_Source\PSoC5/USBFS_std.c ****                 #endif /*  USBFS_ENABLE_STRINGS */
 185:Generated_Source\PSoC5/USBFS_std.c ****                 else
 186:Generated_Source\PSoC5/USBFS_std.c ****                 {
 187:Generated_Source\PSoC5/USBFS_std.c ****                     requestHandled = USBFS_DispatchClassRqst();
 188:Generated_Source\PSoC5/USBFS_std.c ****                 }
ARM GAS  C:\Users\JOSANT~1\AppData\Local\Temp\cceoxjZy.s 			page 7


 189:Generated_Source\PSoC5/USBFS_std.c ****                 break;
 153              		.loc 1 189 0
 154 00de 8EE0     		b	.L18
 155              	.L11:
 130:Generated_Source\PSoC5/USBFS_std.c ****                 {
 156              		.loc 1 130 0
 157 00e0 754B     		ldr	r3, .L58+12
 158 00e2 1B78     		ldrb	r3, [r3]
 159 00e4 DBB2     		uxtb	r3, r3
 160 00e6 032B     		cmp	r3, #3
 161 00e8 2CD1     		bne	.L13
 134:Generated_Source\PSoC5/USBFS_std.c ****                         pStr = (volatile uint8 *)&USBFS_STRING_DESCRIPTORS[0u];
 162              		.loc 1 134 0
 163 00ea 0023     		movs	r3, #0
 164 00ec FB73     		strb	r3, [r7, #15]
 135:Generated_Source\PSoC5/USBFS_std.c ****                         while ( (CY_GET_REG8(USBFS_wValueLo) > nStr) && (*pStr != 0u) )
 165              		.loc 1 135 0
 166 00ee 744B     		ldr	r3, .L58+20
 167 00f0 3B61     		str	r3, [r7, #16]
 136:Generated_Source\PSoC5/USBFS_std.c ****                         {
 168              		.loc 1 136 0
 169 00f2 09E0     		b	.L14
 170              	.L16:
 139:Generated_Source\PSoC5/USBFS_std.c ****                             /* Move to next string descriptor */
 171              		.loc 1 139 0
 172 00f4 3B69     		ldr	r3, [r7, #16]
 173 00f6 1B78     		ldrb	r3, [r3]
 174 00f8 FB71     		strb	r3, [r7, #7]
 141:Generated_Source\PSoC5/USBFS_std.c ****                             nStr++;
 175              		.loc 1 141 0
 176 00fa FB79     		ldrb	r3, [r7, #7]	@ zero_extendqisi2
 177 00fc 3A69     		ldr	r2, [r7, #16]
 178 00fe 1344     		add	r3, r3, r2
 179 0100 3B61     		str	r3, [r7, #16]
 142:Generated_Source\PSoC5/USBFS_std.c ****                         }
 180              		.loc 1 142 0
 181 0102 FB7B     		ldrb	r3, [r7, #15]	@ zero_extendqisi2
 182 0104 0133     		adds	r3, r3, #1
 183 0106 FB73     		strb	r3, [r7, #15]
 184              	.L14:
 136:Generated_Source\PSoC5/USBFS_std.c ****                         {
 185              		.loc 1 136 0
 186 0108 6C4B     		ldr	r3, .L58+16
 187 010a 1B78     		ldrb	r3, [r3]
 188 010c DBB2     		uxtb	r3, r3
 189 010e FA7B     		ldrb	r2, [r7, #15]	@ zero_extendqisi2
 190 0110 9A42     		cmp	r2, r3
 191 0112 04D2     		bcs	.L15
 136:Generated_Source\PSoC5/USBFS_std.c ****                         {
 192              		.loc 1 136 0 is_stmt 0 discriminator 1
 193 0114 3B69     		ldr	r3, [r7, #16]
 194 0116 1B78     		ldrb	r3, [r3]
 195 0118 DBB2     		uxtb	r3, r3
 196 011a 002B     		cmp	r3, #0
 197 011c EAD1     		bne	.L16
 198              	.L15:
 177:Generated_Source\PSoC5/USBFS_std.c ****                     {
ARM GAS  C:\Users\JOSANT~1\AppData\Local\Temp\cceoxjZy.s 			page 8


 199              		.loc 1 177 0 is_stmt 1
 200 011e 3B69     		ldr	r3, [r7, #16]
 201 0120 1B78     		ldrb	r3, [r3]
 202 0122 DBB2     		uxtb	r3, r3
 203 0124 002B     		cmp	r3, #0
 204 0126 12D0     		beq	.L10
 179:Generated_Source\PSoC5/USBFS_std.c ****                         USBFS_currentTD.pData = pStr;
 205              		.loc 1 179 0
 206 0128 3B69     		ldr	r3, [r7, #16]
 207 012a 1B78     		ldrb	r3, [r3]
 208 012c DBB2     		uxtb	r3, r3
 209 012e 9AB2     		uxth	r2, r3
 210 0130 5E4B     		ldr	r3, .L58
 211 0132 1A80     		strh	r2, [r3]	@ movhi
 180:Generated_Source\PSoC5/USBFS_std.c ****                         requestHandled  = USBFS_InitControlRead();
 212              		.loc 1 180 0
 213 0134 5D4A     		ldr	r2, .L58
 214 0136 3B69     		ldr	r3, [r7, #16]
 215 0138 5360     		str	r3, [r2, #4]
 181:Generated_Source\PSoC5/USBFS_std.c ****                     }
 216              		.loc 1 181 0
 217 013a FFF7FEFF 		bl	USBFS_InitControlRead
 218 013e 0346     		mov	r3, r0
 219 0140 FB75     		strb	r3, [r7, #23]
 220              		.loc 1 189 0
 221 0142 5CE0     		b	.L18
 222              	.L13:
 187:Generated_Source\PSoC5/USBFS_std.c ****                 }
 223              		.loc 1 187 0
 224 0144 FFF7FEFF 		bl	USBFS_DispatchClassRqst
 225 0148 0346     		mov	r3, r0
 226 014a FB75     		strb	r3, [r7, #23]
 227              		.loc 1 189 0
 228 014c 57E0     		b	.L18
 229              	.L10:
 230              		.loc 1 189 0 is_stmt 0 discriminator 1
 231 014e 56E0     		b	.L18
 232              	.L4:
 190:Generated_Source\PSoC5/USBFS_std.c ****             case USBFS_GET_STATUS:
 191:Generated_Source\PSoC5/USBFS_std.c ****                 switch ((CY_GET_REG8(USBFS_bmRequestType) & USBFS_RQST_RCPT_MASK))
 233              		.loc 1 191 0 is_stmt 1
 234 0150 574B     		ldr	r3, .L58+4
 235 0152 1B78     		ldrb	r3, [r3]
 236 0154 DBB2     		uxtb	r3, r3
 237 0156 03F00303 		and	r3, r3, #3
 238 015a 002B     		cmp	r3, #0
 239 015c 1FD0     		beq	.L20
 240 015e 022B     		cmp	r3, #2
 241 0160 00D0     		beq	.L21
 192:Generated_Source\PSoC5/USBFS_std.c ****                 {
 193:Generated_Source\PSoC5/USBFS_std.c ****                     case USBFS_RQST_RCPT_EP:
 194:Generated_Source\PSoC5/USBFS_std.c ****                         USBFS_currentTD.count = USBFS_EP_STATUS_LENGTH;
 195:Generated_Source\PSoC5/USBFS_std.c ****                         USBFS_tBuffer[0u] = USBFS_EP[ \
 196:Generated_Source\PSoC5/USBFS_std.c ****                                         CY_GET_REG8(USBFS_wIndexLo) & USBFS_DIR_UNUSED].hwEpState;
 197:Generated_Source\PSoC5/USBFS_std.c ****                         USBFS_tBuffer[1u] = 0u;
 198:Generated_Source\PSoC5/USBFS_std.c ****                         USBFS_currentTD.pData = &USBFS_tBuffer[0u];
 199:Generated_Source\PSoC5/USBFS_std.c ****                         requestHandled  = USBFS_InitControlRead();
ARM GAS  C:\Users\JOSANT~1\AppData\Local\Temp\cceoxjZy.s 			page 9


 200:Generated_Source\PSoC5/USBFS_std.c ****                         break;
 201:Generated_Source\PSoC5/USBFS_std.c ****                     case USBFS_RQST_RCPT_DEV:
 202:Generated_Source\PSoC5/USBFS_std.c ****                         USBFS_currentTD.count = USBFS_DEVICE_STATUS_LENGTH;
 203:Generated_Source\PSoC5/USBFS_std.c ****                         USBFS_tBuffer[0u] = USBFS_deviceStatus;
 204:Generated_Source\PSoC5/USBFS_std.c ****                         USBFS_tBuffer[1u] = 0u;
 205:Generated_Source\PSoC5/USBFS_std.c ****                         USBFS_currentTD.pData = &USBFS_tBuffer[0u];
 206:Generated_Source\PSoC5/USBFS_std.c ****                         requestHandled  = USBFS_InitControlRead();
 207:Generated_Source\PSoC5/USBFS_std.c ****                         break;
 208:Generated_Source\PSoC5/USBFS_std.c ****                     default:    /* requestHandled is initialized as FALSE by default */
 209:Generated_Source\PSoC5/USBFS_std.c ****                         break;
 242              		.loc 1 209 0
 243 0162 2FE0     		b	.L22
 244              	.L21:
 194:Generated_Source\PSoC5/USBFS_std.c ****                         USBFS_tBuffer[0u] = USBFS_EP[ \
 245              		.loc 1 194 0
 246 0164 514B     		ldr	r3, .L58
 247 0166 0222     		movs	r2, #2
 248 0168 1A80     		strh	r2, [r3]	@ movhi
 196:Generated_Source\PSoC5/USBFS_std.c ****                         USBFS_tBuffer[1u] = 0u;
 249              		.loc 1 196 0
 250 016a 564B     		ldr	r3, .L58+24
 251 016c 1B78     		ldrb	r3, [r3]
 252 016e DBB2     		uxtb	r3, r3
 253 0170 03F07F02 		and	r2, r3, #127
 254 0174 5449     		ldr	r1, .L58+28
 255 0176 1346     		mov	r3, r2
 256 0178 5B00     		lsls	r3, r3, #1
 257 017a 1344     		add	r3, r3, r2
 258 017c 9B00     		lsls	r3, r3, #2
 259 017e 0B44     		add	r3, r3, r1
 260 0180 9B78     		ldrb	r3, [r3, #2]
 261 0182 DAB2     		uxtb	r2, r3
 195:Generated_Source\PSoC5/USBFS_std.c ****                                         CY_GET_REG8(USBFS_wIndexLo) & USBFS_DIR_UNUSED].hwEpState;
 262              		.loc 1 195 0
 263 0184 514B     		ldr	r3, .L58+32
 264 0186 1A70     		strb	r2, [r3]
 197:Generated_Source\PSoC5/USBFS_std.c ****                         USBFS_currentTD.pData = &USBFS_tBuffer[0u];
 265              		.loc 1 197 0
 266 0188 504B     		ldr	r3, .L58+32
 267 018a 0022     		movs	r2, #0
 268 018c 5A70     		strb	r2, [r3, #1]
 198:Generated_Source\PSoC5/USBFS_std.c ****                         requestHandled  = USBFS_InitControlRead();
 269              		.loc 1 198 0
 270 018e 474B     		ldr	r3, .L58
 271 0190 4E4A     		ldr	r2, .L58+32
 272 0192 5A60     		str	r2, [r3, #4]
 199:Generated_Source\PSoC5/USBFS_std.c ****                         break;
 273              		.loc 1 199 0
 274 0194 FFF7FEFF 		bl	USBFS_InitControlRead
 275 0198 0346     		mov	r3, r0
 276 019a FB75     		strb	r3, [r7, #23]
 200:Generated_Source\PSoC5/USBFS_std.c ****                     case USBFS_RQST_RCPT_DEV:
 277              		.loc 1 200 0
 278 019c 12E0     		b	.L22
 279              	.L20:
 202:Generated_Source\PSoC5/USBFS_std.c ****                         USBFS_tBuffer[0u] = USBFS_deviceStatus;
 280              		.loc 1 202 0
ARM GAS  C:\Users\JOSANT~1\AppData\Local\Temp\cceoxjZy.s 			page 10


 281 019e 434B     		ldr	r3, .L58
 282 01a0 0222     		movs	r2, #2
 283 01a2 1A80     		strh	r2, [r3]	@ movhi
 203:Generated_Source\PSoC5/USBFS_std.c ****                         USBFS_tBuffer[1u] = 0u;
 284              		.loc 1 203 0
 285 01a4 4A4B     		ldr	r3, .L58+36
 286 01a6 1B78     		ldrb	r3, [r3]
 287 01a8 DAB2     		uxtb	r2, r3
 288 01aa 484B     		ldr	r3, .L58+32
 289 01ac 1A70     		strb	r2, [r3]
 204:Generated_Source\PSoC5/USBFS_std.c ****                         USBFS_currentTD.pData = &USBFS_tBuffer[0u];
 290              		.loc 1 204 0
 291 01ae 474B     		ldr	r3, .L58+32
 292 01b0 0022     		movs	r2, #0
 293 01b2 5A70     		strb	r2, [r3, #1]
 205:Generated_Source\PSoC5/USBFS_std.c ****                         requestHandled  = USBFS_InitControlRead();
 294              		.loc 1 205 0
 295 01b4 3D4B     		ldr	r3, .L58
 296 01b6 454A     		ldr	r2, .L58+32
 297 01b8 5A60     		str	r2, [r3, #4]
 206:Generated_Source\PSoC5/USBFS_std.c ****                         break;
 298              		.loc 1 206 0
 299 01ba FFF7FEFF 		bl	USBFS_InitControlRead
 300 01be 0346     		mov	r3, r0
 301 01c0 FB75     		strb	r3, [r7, #23]
 207:Generated_Source\PSoC5/USBFS_std.c ****                     default:    /* requestHandled is initialized as FALSE by default */
 302              		.loc 1 207 0
 303 01c2 00BF     		nop
 304              	.L22:
 210:Generated_Source\PSoC5/USBFS_std.c ****                 }
 211:Generated_Source\PSoC5/USBFS_std.c ****                 break;
 305              		.loc 1 211 0 discriminator 4
 306 01c4 1BE0     		b	.L18
 307              	.L7:
 212:Generated_Source\PSoC5/USBFS_std.c ****             case USBFS_GET_CONFIGURATION:
 213:Generated_Source\PSoC5/USBFS_std.c ****                 USBFS_currentTD.count = 1u;
 308              		.loc 1 213 0
 309 01c6 394B     		ldr	r3, .L58
 310 01c8 0122     		movs	r2, #1
 311 01ca 1A80     		strh	r2, [r3]	@ movhi
 214:Generated_Source\PSoC5/USBFS_std.c ****                 USBFS_currentTD.pData = (volatile uint8 *)&USBFS_configuration;
 312              		.loc 1 214 0
 313 01cc 374B     		ldr	r3, .L58
 314 01ce 414A     		ldr	r2, .L58+40
 315 01d0 5A60     		str	r2, [r3, #4]
 215:Generated_Source\PSoC5/USBFS_std.c ****                 requestHandled  = USBFS_InitControlRead();
 316              		.loc 1 215 0
 317 01d2 FFF7FEFF 		bl	USBFS_InitControlRead
 318 01d6 0346     		mov	r3, r0
 319 01d8 FB75     		strb	r3, [r7, #23]
 216:Generated_Source\PSoC5/USBFS_std.c ****                 break;
 320              		.loc 1 216 0
 321 01da 10E0     		b	.L18
 322              	.L8:
 217:Generated_Source\PSoC5/USBFS_std.c ****             case USBFS_GET_INTERFACE:
 218:Generated_Source\PSoC5/USBFS_std.c ****                 USBFS_currentTD.count = 1u;
 323              		.loc 1 218 0
ARM GAS  C:\Users\JOSANT~1\AppData\Local\Temp\cceoxjZy.s 			page 11


 324 01dc 334B     		ldr	r3, .L58
 325 01de 0122     		movs	r2, #1
 326 01e0 1A80     		strh	r2, [r3]	@ movhi
 219:Generated_Source\PSoC5/USBFS_std.c ****                 USBFS_currentTD.pData = (volatile uint8 *)&USBFS_interfaceSetting[ \
 220:Generated_Source\PSoC5/USBFS_std.c ****                                                                             CY_GET_REG8(USBFS_wInde
 327              		.loc 1 220 0
 328 01e2 384B     		ldr	r3, .L58+24
 329 01e4 1B78     		ldrb	r3, [r3]
 330 01e6 DBB2     		uxtb	r3, r3
 219:Generated_Source\PSoC5/USBFS_std.c ****                 USBFS_currentTD.pData = (volatile uint8 *)&USBFS_interfaceSetting[ \
 331              		.loc 1 219 0
 332 01e8 1A46     		mov	r2, r3
 333 01ea 3B4B     		ldr	r3, .L58+44
 334 01ec 1344     		add	r3, r3, r2
 335 01ee 2F4A     		ldr	r2, .L58
 336 01f0 5360     		str	r3, [r2, #4]
 221:Generated_Source\PSoC5/USBFS_std.c ****                 requestHandled  = USBFS_InitControlRead();
 337              		.loc 1 221 0
 338 01f2 FFF7FEFF 		bl	USBFS_InitControlRead
 339 01f6 0346     		mov	r3, r0
 340 01f8 FB75     		strb	r3, [r7, #23]
 222:Generated_Source\PSoC5/USBFS_std.c ****                 break;
 341              		.loc 1 222 0
 342 01fa 00E0     		b	.L18
 343              	.L54:
 223:Generated_Source\PSoC5/USBFS_std.c ****             default: /* requestHandled is initialized as FALSE by default */
 224:Generated_Source\PSoC5/USBFS_std.c ****                 break;
 344              		.loc 1 224 0
 345 01fc 00BF     		nop
 346              	.L18:
 347 01fe 1DE1     		b	.L23
 348              	.L2:
 225:Generated_Source\PSoC5/USBFS_std.c ****         }
 226:Generated_Source\PSoC5/USBFS_std.c ****     }
 227:Generated_Source\PSoC5/USBFS_std.c ****     else {
 228:Generated_Source\PSoC5/USBFS_std.c ****         /* Control Write */
 229:Generated_Source\PSoC5/USBFS_std.c ****         switch (CY_GET_REG8(USBFS_bRequest))
 349              		.loc 1 229 0
 350 0200 2C4B     		ldr	r3, .L58+8
 351 0202 1B78     		ldrb	r3, [r3]
 352 0204 DBB2     		uxtb	r3, r3
 353 0206 013B     		subs	r3, r3, #1
 354 0208 0A2B     		cmp	r3, #10
 355 020a 00F21681 		bhi	.L55
 356 020e 01A2     		adr	r2, .L26
 357 0210 52F823F0 		ldr	pc, [r2, r3, lsl #2]
 358              		.p2align 2
 359              	.L26:
 360 0214 1F030000 		.word	.L25+1
 361 0218 3B040000 		.word	.L55+1
 362 021c AD030000 		.word	.L27+1
 363 0220 3B040000 		.word	.L55+1
 364 0224 41020000 		.word	.L28+1
 365 0228 3B040000 		.word	.L55+1
 366 022c 3B040000 		.word	.L55+1
 367 0230 3B040000 		.word	.L55+1
 368 0234 55020000 		.word	.L29+1
ARM GAS  C:\Users\JOSANT~1\AppData\Local\Temp\cceoxjZy.s 			page 12


 369 0238 3B040000 		.word	.L55+1
 370 023c E5020000 		.word	.L30+1
 371              		.p2align 1
 372              	.L28:
 230:Generated_Source\PSoC5/USBFS_std.c ****         {
 231:Generated_Source\PSoC5/USBFS_std.c ****             case USBFS_SET_ADDRESS:
 232:Generated_Source\PSoC5/USBFS_std.c ****                 USBFS_deviceAddress = CY_GET_REG8(USBFS_wValueLo);
 373              		.loc 1 232 0
 374 0240 1E4B     		ldr	r3, .L58+16
 375 0242 1B78     		ldrb	r3, [r3]
 376 0244 DAB2     		uxtb	r2, r3
 377 0246 254B     		ldr	r3, .L58+48
 378 0248 1A70     		strb	r2, [r3]
 233:Generated_Source\PSoC5/USBFS_std.c ****                 requestHandled = USBFS_InitNoDataControlTransfer();
 379              		.loc 1 233 0
 380 024a FFF7FEFF 		bl	USBFS_InitNoDataControlTransfer
 381 024e 0346     		mov	r3, r0
 382 0250 FB75     		strb	r3, [r7, #23]
 234:Generated_Source\PSoC5/USBFS_std.c ****                 break;
 383              		.loc 1 234 0
 384 0252 F3E0     		b	.L23
 385              	.L29:
 235:Generated_Source\PSoC5/USBFS_std.c ****             case USBFS_SET_CONFIGURATION:
 236:Generated_Source\PSoC5/USBFS_std.c ****                 configurationN = CY_GET_REG8(USBFS_wValueLo);
 386              		.loc 1 236 0
 387 0254 194B     		ldr	r3, .L58+16
 388 0256 1B78     		ldrb	r3, [r3]
 389 0258 BB71     		strb	r3, [r7, #6]
 237:Generated_Source\PSoC5/USBFS_std.c ****                 if(configurationN > 0)
 390              		.loc 1 237 0
 391 025a BB79     		ldrb	r3, [r7, #6]	@ zero_extendqisi2
 392 025c 002B     		cmp	r3, #0
 393 025e 06D0     		beq	.L31
 238:Generated_Source\PSoC5/USBFS_std.c ****                 {   /* Verify that configuration descriptor exists */
 239:Generated_Source\PSoC5/USBFS_std.c ****                     pTmp = USBFS_GetConfigTablePtr(configurationN - 1u);
 394              		.loc 1 239 0
 395 0260 BB79     		ldrb	r3, [r7, #6]
 396 0262 013B     		subs	r3, r3, #1
 397 0264 DBB2     		uxtb	r3, r3
 398 0266 1846     		mov	r0, r3
 399 0268 FFF7FEFF 		bl	USBFS_GetConfigTablePtr
 400 026c B860     		str	r0, [r7, #8]
 401              	.L31:
 240:Generated_Source\PSoC5/USBFS_std.c ****                 }
 241:Generated_Source\PSoC5/USBFS_std.c ****                 /* Responds with a Request Error when configuration number is invalid */
 242:Generated_Source\PSoC5/USBFS_std.c ****                 if (((configurationN > 0) && (pTmp != NULL)) || (configurationN == 0u))
 402              		.loc 1 242 0
 403 026e BB79     		ldrb	r3, [r7, #6]	@ zero_extendqisi2
 404 0270 002B     		cmp	r3, #0
 405 0272 02D0     		beq	.L32
 406              		.loc 1 242 0 is_stmt 0 discriminator 1
 407 0274 BB68     		ldr	r3, [r7, #8]
 408 0276 002B     		cmp	r3, #0
 409 0278 02D1     		bne	.L33
 410              	.L32:
 411              		.loc 1 242 0 discriminator 3
 412 027a BB79     		ldrb	r3, [r7, #6]	@ zero_extendqisi2
ARM GAS  C:\Users\JOSANT~1\AppData\Local\Temp\cceoxjZy.s 			page 13


 413 027c 002B     		cmp	r3, #0
 414 027e 13D1     		bne	.L34
 415              	.L33:
 243:Generated_Source\PSoC5/USBFS_std.c ****                 {
 244:Generated_Source\PSoC5/USBFS_std.c ****                     /* Set new configuration if it has been changed */
 245:Generated_Source\PSoC5/USBFS_std.c ****                     if(configurationN != USBFS_configuration)        
 416              		.loc 1 245 0 is_stmt 1
 417 0280 144B     		ldr	r3, .L58+40
 418 0282 1B78     		ldrb	r3, [r3]
 419 0284 DBB2     		uxtb	r3, r3
 420 0286 BA79     		ldrb	r2, [r7, #6]	@ zero_extendqisi2
 421 0288 9A42     		cmp	r2, r3
 422 028a 08D0     		beq	.L35
 246:Generated_Source\PSoC5/USBFS_std.c ****                     {
 247:Generated_Source\PSoC5/USBFS_std.c ****                         USBFS_configuration = configurationN;
 423              		.loc 1 247 0
 424 028c 114A     		ldr	r2, .L58+40
 425 028e BB79     		ldrb	r3, [r7, #6]
 426 0290 1370     		strb	r3, [r2]
 248:Generated_Source\PSoC5/USBFS_std.c ****                         USBFS_configurationChanged = USBFS_TRUE;
 427              		.loc 1 248 0
 428 0292 134B     		ldr	r3, .L58+52
 429 0294 0122     		movs	r2, #1
 430 0296 1A70     		strb	r2, [r3]
 249:Generated_Source\PSoC5/USBFS_std.c ****                         USBFS_Config(USBFS_TRUE);
 431              		.loc 1 249 0
 432 0298 0120     		movs	r0, #1
 433 029a FFF7FEFF 		bl	USBFS_Config
 434              	.L35:
 250:Generated_Source\PSoC5/USBFS_std.c ****                     }
 251:Generated_Source\PSoC5/USBFS_std.c ****                     requestHandled = USBFS_InitNoDataControlTransfer();
 435              		.loc 1 251 0
 436 029e FFF7FEFF 		bl	USBFS_InitNoDataControlTransfer
 437 02a2 0346     		mov	r3, r0
 438 02a4 FB75     		strb	r3, [r7, #23]
 252:Generated_Source\PSoC5/USBFS_std.c ****                 }
 253:Generated_Source\PSoC5/USBFS_std.c ****                 break;
 439              		.loc 1 253 0
 440 02a6 C9E0     		b	.L23
 441              	.L34:
 442 02a8 C8E0     		b	.L23
 443              	.L59:
 444 02aa 00BF     		.align	2
 445              	.L58:
 446 02ac 00000000 		.word	USBFS_currentTD
 447 02b0 00600040 		.word	1073766400
 448 02b4 01600040 		.word	1073766401
 449 02b8 03600040 		.word	1073766403
 450 02bc 02600040 		.word	1073766402
 451 02c0 00000000 		.word	USBFS_STRING_DESCRIPTORS
 452 02c4 04600040 		.word	1073766404
 453 02c8 00000000 		.word	USBFS_EP
 454 02cc 00000000 		.word	USBFS_tBuffer.5009
 455 02d0 00000000 		.word	USBFS_deviceStatus
 456 02d4 00000000 		.word	USBFS_configuration
 457 02d8 00000000 		.word	USBFS_interfaceSetting
 458 02dc 00000000 		.word	USBFS_deviceAddress
ARM GAS  C:\Users\JOSANT~1\AppData\Local\Temp\cceoxjZy.s 			page 14


 459 02e0 00000000 		.word	USBFS_configurationChanged
 460              	.L30:
 254:Generated_Source\PSoC5/USBFS_std.c ****             case USBFS_SET_INTERFACE:
 255:Generated_Source\PSoC5/USBFS_std.c ****                 if (USBFS_ValidateAlternateSetting() != 0u)
 461              		.loc 1 255 0
 462 02e4 FFF7FEFF 		bl	USBFS_ValidateAlternateSetting
 463 02e8 0346     		mov	r3, r0
 464 02ea 002B     		cmp	r3, #0
 465 02ec 16D0     		beq	.L36
 256:Generated_Source\PSoC5/USBFS_std.c ****                 {
 257:Generated_Source\PSoC5/USBFS_std.c ****                     interfaceNumber = CY_GET_REG8(USBFS_wIndexLo);
 466              		.loc 1 257 0
 467 02ee 564B     		ldr	r3, .L60
 468 02f0 1B78     		ldrb	r3, [r3]
 469 02f2 7B71     		strb	r3, [r7, #5]
 258:Generated_Source\PSoC5/USBFS_std.c ****                     USBFS_interfaceNumber = interfaceNumber;
 470              		.loc 1 258 0
 471 02f4 554A     		ldr	r2, .L60+4
 472 02f6 7B79     		ldrb	r3, [r7, #5]
 473 02f8 1370     		strb	r3, [r2]
 259:Generated_Source\PSoC5/USBFS_std.c ****                     USBFS_configurationChanged = USBFS_TRUE;
 474              		.loc 1 259 0
 475 02fa 554B     		ldr	r3, .L60+8
 476 02fc 0122     		movs	r2, #1
 477 02fe 1A70     		strb	r2, [r3]
 260:Generated_Source\PSoC5/USBFS_std.c ****                     #if ((USBFS_EP_MA == USBFS__MA_DYNAMIC) && \
 261:Generated_Source\PSoC5/USBFS_std.c ****                          (USBFS_EP_MM == USBFS__EP_MANUAL) )
 262:Generated_Source\PSoC5/USBFS_std.c ****                         USBFS_Config(USBFS_FALSE);
 263:Generated_Source\PSoC5/USBFS_std.c ****                     #else
 264:Generated_Source\PSoC5/USBFS_std.c ****                         USBFS_ConfigAltChanged();
 478              		.loc 1 264 0
 479 0300 FFF7FEFF 		bl	USBFS_ConfigAltChanged
 265:Generated_Source\PSoC5/USBFS_std.c ****                     #endif /*  (USBFS_EP_MA == USBFS__MA_DYNAMIC) */
 266:Generated_Source\PSoC5/USBFS_std.c ****                     /* Update handled Alt setting changes status */
 267:Generated_Source\PSoC5/USBFS_std.c ****                     USBFS_interfaceSetting_last[interfaceNumber] =
 480              		.loc 1 267 0
 481 0304 7B79     		ldrb	r3, [r7, #5]	@ zero_extendqisi2
 268:Generated_Source\PSoC5/USBFS_std.c ****                          USBFS_interfaceSetting[interfaceNumber];
 482              		.loc 1 268 0
 483 0306 7A79     		ldrb	r2, [r7, #5]	@ zero_extendqisi2
 484 0308 5249     		ldr	r1, .L60+12
 485 030a 8A5C     		ldrb	r2, [r1, r2]
 486 030c D1B2     		uxtb	r1, r2
 267:Generated_Source\PSoC5/USBFS_std.c ****                          USBFS_interfaceSetting[interfaceNumber];
 487              		.loc 1 267 0
 488 030e 524A     		ldr	r2, .L60+16
 489 0310 D154     		strb	r1, [r2, r3]
 269:Generated_Source\PSoC5/USBFS_std.c ****                     requestHandled = USBFS_InitNoDataControlTransfer();
 490              		.loc 1 269 0
 491 0312 FFF7FEFF 		bl	USBFS_InitNoDataControlTransfer
 492 0316 0346     		mov	r3, r0
 493 0318 FB75     		strb	r3, [r7, #23]
 270:Generated_Source\PSoC5/USBFS_std.c ****                 }
 271:Generated_Source\PSoC5/USBFS_std.c ****                 break;
 494              		.loc 1 271 0
 495 031a 8FE0     		b	.L23
 496              	.L36:
ARM GAS  C:\Users\JOSANT~1\AppData\Local\Temp\cceoxjZy.s 			page 15


 497 031c 8EE0     		b	.L23
 498              	.L25:
 272:Generated_Source\PSoC5/USBFS_std.c ****             case USBFS_CLEAR_FEATURE:
 273:Generated_Source\PSoC5/USBFS_std.c ****                 switch (CY_GET_REG8(USBFS_bmRequestType) & USBFS_RQST_RCPT_MASK)
 499              		.loc 1 273 0
 500 031e 4F4B     		ldr	r3, .L60+20
 501 0320 1B78     		ldrb	r3, [r3]
 502 0322 DBB2     		uxtb	r3, r3
 503 0324 03F00303 		and	r3, r3, #3
 504 0328 012B     		cmp	r3, #1
 505 032a 22D0     		beq	.L38
 506 032c 012B     		cmp	r3, #1
 507 032e 0DD3     		bcc	.L39
 508 0330 022B     		cmp	r3, #2
 509 0332 00D0     		beq	.L40
 274:Generated_Source\PSoC5/USBFS_std.c ****                 {
 275:Generated_Source\PSoC5/USBFS_std.c ****                     case USBFS_RQST_RCPT_EP:
 276:Generated_Source\PSoC5/USBFS_std.c ****                         if (CY_GET_REG8(USBFS_wValueLo) == USBFS_ENDPOINT_HALT)
 277:Generated_Source\PSoC5/USBFS_std.c ****                         {
 278:Generated_Source\PSoC5/USBFS_std.c ****                             requestHandled = USBFS_ClearEndpointHalt();
 279:Generated_Source\PSoC5/USBFS_std.c ****                         }
 280:Generated_Source\PSoC5/USBFS_std.c ****                         break;
 281:Generated_Source\PSoC5/USBFS_std.c ****                     case USBFS_RQST_RCPT_DEV:
 282:Generated_Source\PSoC5/USBFS_std.c ****                         /* Clear device REMOTE_WAKEUP */
 283:Generated_Source\PSoC5/USBFS_std.c ****                         if (CY_GET_REG8(USBFS_wValueLo) == USBFS_DEVICE_REMOTE_WAKEUP)
 284:Generated_Source\PSoC5/USBFS_std.c ****                         {
 285:Generated_Source\PSoC5/USBFS_std.c ****                             USBFS_deviceStatus &= (uint8)~USBFS_DEVICE_STATUS_REMOTE_WAKEUP;
 286:Generated_Source\PSoC5/USBFS_std.c ****                             requestHandled = USBFS_InitNoDataControlTransfer();
 287:Generated_Source\PSoC5/USBFS_std.c ****                         }
 288:Generated_Source\PSoC5/USBFS_std.c ****                         break;
 289:Generated_Source\PSoC5/USBFS_std.c ****                     case USBFS_RQST_RCPT_IFC:
 290:Generated_Source\PSoC5/USBFS_std.c ****                         /* Validate interfaceNumber */
 291:Generated_Source\PSoC5/USBFS_std.c ****                         if (CY_GET_REG8(USBFS_wIndexLo) < USBFS_MAX_INTERFACES_NUMBER)
 292:Generated_Source\PSoC5/USBFS_std.c ****                         {
 293:Generated_Source\PSoC5/USBFS_std.c ****                             USBFS_interfaceStatus[CY_GET_REG8(USBFS_wIndexLo)] &=
 294:Generated_Source\PSoC5/USBFS_std.c ****                                                                 (uint8)~(CY_GET_REG8(USBFS_wValueLo
 295:Generated_Source\PSoC5/USBFS_std.c ****                             requestHandled = USBFS_InitNoDataControlTransfer();
 296:Generated_Source\PSoC5/USBFS_std.c ****                         }
 297:Generated_Source\PSoC5/USBFS_std.c ****                         break;
 298:Generated_Source\PSoC5/USBFS_std.c ****                     default:    /* requestHandled is initialized as FALSE by default */
 299:Generated_Source\PSoC5/USBFS_std.c ****                         break;
 510              		.loc 1 299 0
 511 0334 39E0     		b	.L42
 512              	.L40:
 276:Generated_Source\PSoC5/USBFS_std.c ****                         {
 513              		.loc 1 276 0
 514 0336 4A4B     		ldr	r3, .L60+24
 515 0338 1B78     		ldrb	r3, [r3]
 516 033a DBB2     		uxtb	r3, r3
 517 033c 002B     		cmp	r3, #0
 518 033e 04D1     		bne	.L41
 278:Generated_Source\PSoC5/USBFS_std.c ****                         }
 519              		.loc 1 278 0
 520 0340 FFF7FEFF 		bl	USBFS_ClearEndpointHalt
 521 0344 0346     		mov	r3, r0
 522 0346 FB75     		strb	r3, [r7, #23]
 280:Generated_Source\PSoC5/USBFS_std.c ****                     case USBFS_RQST_RCPT_DEV:
ARM GAS  C:\Users\JOSANT~1\AppData\Local\Temp\cceoxjZy.s 			page 16


 523              		.loc 1 280 0
 524 0348 2FE0     		b	.L42
 525              	.L41:
 526 034a 2EE0     		b	.L42
 527              	.L39:
 283:Generated_Source\PSoC5/USBFS_std.c ****                         {
 528              		.loc 1 283 0
 529 034c 444B     		ldr	r3, .L60+24
 530 034e 1B78     		ldrb	r3, [r3]
 531 0350 DBB2     		uxtb	r3, r3
 532 0352 012B     		cmp	r3, #1
 533 0354 0CD1     		bne	.L43
 285:Generated_Source\PSoC5/USBFS_std.c ****                             requestHandled = USBFS_InitNoDataControlTransfer();
 534              		.loc 1 285 0
 535 0356 434B     		ldr	r3, .L60+28
 536 0358 1B78     		ldrb	r3, [r3]
 537 035a DBB2     		uxtb	r3, r3
 538 035c 23F00203 		bic	r3, r3, #2
 539 0360 DAB2     		uxtb	r2, r3
 540 0362 404B     		ldr	r3, .L60+28
 541 0364 1A70     		strb	r2, [r3]
 286:Generated_Source\PSoC5/USBFS_std.c ****                         }
 542              		.loc 1 286 0
 543 0366 FFF7FEFF 		bl	USBFS_InitNoDataControlTransfer
 544 036a 0346     		mov	r3, r0
 545 036c FB75     		strb	r3, [r7, #23]
 288:Generated_Source\PSoC5/USBFS_std.c ****                     case USBFS_RQST_RCPT_IFC:
 546              		.loc 1 288 0
 547 036e 1CE0     		b	.L42
 548              	.L43:
 288:Generated_Source\PSoC5/USBFS_std.c ****                     case USBFS_RQST_RCPT_IFC:
 549              		.loc 1 288 0 is_stmt 0 discriminator 8
 550 0370 1BE0     		b	.L42
 551              	.L38:
 291:Generated_Source\PSoC5/USBFS_std.c ****                         {
 552              		.loc 1 291 0 is_stmt 1
 553 0372 354B     		ldr	r3, .L60
 554 0374 1B78     		ldrb	r3, [r3]
 555 0376 DBB2     		uxtb	r3, r3
 556 0378 012B     		cmp	r3, #1
 557 037a 15D8     		bhi	.L44
 294:Generated_Source\PSoC5/USBFS_std.c ****                             requestHandled = USBFS_InitNoDataControlTransfer();
 558              		.loc 1 294 0
 559 037c 384B     		ldr	r3, .L60+24
 560 037e 1B78     		ldrb	r3, [r3]
 561 0380 DBB2     		uxtb	r3, r3
 562 0382 DB43     		mvns	r3, r3
 563 0384 DBB2     		uxtb	r3, r3
 293:Generated_Source\PSoC5/USBFS_std.c ****                                                                 (uint8)~(CY_GET_REG8(USBFS_wValueLo
 564              		.loc 1 293 0
 565 0386 304A     		ldr	r2, .L60
 566 0388 1278     		ldrb	r2, [r2]
 567 038a D2B2     		uxtb	r2, r2
 568 038c 1146     		mov	r1, r2
 569 038e 1046     		mov	r0, r2
 570 0390 354A     		ldr	r2, .L60+32
 571 0392 125C     		ldrb	r2, [r2, r0]
ARM GAS  C:\Users\JOSANT~1\AppData\Local\Temp\cceoxjZy.s 			page 17


 572 0394 D2B2     		uxtb	r2, r2
 573 0396 1340     		ands	r3, r3, r2
 574 0398 DAB2     		uxtb	r2, r3
 575 039a 334B     		ldr	r3, .L60+32
 576 039c 5A54     		strb	r2, [r3, r1]
 295:Generated_Source\PSoC5/USBFS_std.c ****                         }
 577              		.loc 1 295 0
 578 039e FFF7FEFF 		bl	USBFS_InitNoDataControlTransfer
 579 03a2 0346     		mov	r3, r0
 580 03a4 FB75     		strb	r3, [r7, #23]
 297:Generated_Source\PSoC5/USBFS_std.c ****                     default:    /* requestHandled is initialized as FALSE by default */
 581              		.loc 1 297 0
 582 03a6 FFE7     		b	.L56
 583              	.L44:
 584              	.L56:
 585 03a8 00BF     		nop
 586              	.L42:
 300:Generated_Source\PSoC5/USBFS_std.c ****                 }
 301:Generated_Source\PSoC5/USBFS_std.c ****                 break;
 587              		.loc 1 301 0 discriminator 7
 588 03aa 47E0     		b	.L23
 589              	.L27:
 302:Generated_Source\PSoC5/USBFS_std.c ****             case USBFS_SET_FEATURE:
 303:Generated_Source\PSoC5/USBFS_std.c ****                 switch (CY_GET_REG8(USBFS_bmRequestType) & USBFS_RQST_RCPT_MASK)
 590              		.loc 1 303 0
 591 03ac 2B4B     		ldr	r3, .L60+20
 592 03ae 1B78     		ldrb	r3, [r3]
 593 03b0 DBB2     		uxtb	r3, r3
 594 03b2 03F00303 		and	r3, r3, #3
 595 03b6 012B     		cmp	r3, #1
 596 03b8 22D0     		beq	.L46
 597 03ba 012B     		cmp	r3, #1
 598 03bc 0DD3     		bcc	.L47
 599 03be 022B     		cmp	r3, #2
 600 03c0 00D0     		beq	.L48
 304:Generated_Source\PSoC5/USBFS_std.c ****                 {
 305:Generated_Source\PSoC5/USBFS_std.c ****                     case USBFS_RQST_RCPT_EP:
 306:Generated_Source\PSoC5/USBFS_std.c ****                         if (CY_GET_REG8(USBFS_wValueLo) == USBFS_ENDPOINT_HALT)
 307:Generated_Source\PSoC5/USBFS_std.c ****                         {
 308:Generated_Source\PSoC5/USBFS_std.c ****                             requestHandled = USBFS_SetEndpointHalt();
 309:Generated_Source\PSoC5/USBFS_std.c ****                         }
 310:Generated_Source\PSoC5/USBFS_std.c ****                         break;
 311:Generated_Source\PSoC5/USBFS_std.c ****                     case USBFS_RQST_RCPT_DEV:
 312:Generated_Source\PSoC5/USBFS_std.c ****                         /* Set device REMOTE_WAKEUP */
 313:Generated_Source\PSoC5/USBFS_std.c ****                         if (CY_GET_REG8(USBFS_wValueLo) == USBFS_DEVICE_REMOTE_WAKEUP)
 314:Generated_Source\PSoC5/USBFS_std.c ****                         {
 315:Generated_Source\PSoC5/USBFS_std.c ****                             USBFS_deviceStatus |= USBFS_DEVICE_STATUS_REMOTE_WAKEUP;
 316:Generated_Source\PSoC5/USBFS_std.c ****                             requestHandled = USBFS_InitNoDataControlTransfer();
 317:Generated_Source\PSoC5/USBFS_std.c ****                         }
 318:Generated_Source\PSoC5/USBFS_std.c ****                         break;
 319:Generated_Source\PSoC5/USBFS_std.c ****                     case USBFS_RQST_RCPT_IFC:
 320:Generated_Source\PSoC5/USBFS_std.c ****                         /* Validate interfaceNumber */
 321:Generated_Source\PSoC5/USBFS_std.c ****                         if (CY_GET_REG8(USBFS_wIndexLo) < USBFS_MAX_INTERFACES_NUMBER)
 322:Generated_Source\PSoC5/USBFS_std.c ****                         {
 323:Generated_Source\PSoC5/USBFS_std.c ****                             USBFS_interfaceStatus[CY_GET_REG8(USBFS_wIndexLo)] &=
 324:Generated_Source\PSoC5/USBFS_std.c ****                                                                 (uint8)~(CY_GET_REG8(USBFS_wValueLo
 325:Generated_Source\PSoC5/USBFS_std.c ****                             requestHandled = USBFS_InitNoDataControlTransfer();
ARM GAS  C:\Users\JOSANT~1\AppData\Local\Temp\cceoxjZy.s 			page 18


 326:Generated_Source\PSoC5/USBFS_std.c ****                         }
 327:Generated_Source\PSoC5/USBFS_std.c ****                         break;
 328:Generated_Source\PSoC5/USBFS_std.c ****                     default:    /* requestHandled is initialized as FALSE by default */
 329:Generated_Source\PSoC5/USBFS_std.c ****                         break;
 601              		.loc 1 329 0
 602 03c2 39E0     		b	.L50
 603              	.L48:
 306:Generated_Source\PSoC5/USBFS_std.c ****                         {
 604              		.loc 1 306 0
 605 03c4 264B     		ldr	r3, .L60+24
 606 03c6 1B78     		ldrb	r3, [r3]
 607 03c8 DBB2     		uxtb	r3, r3
 608 03ca 002B     		cmp	r3, #0
 609 03cc 04D1     		bne	.L49
 308:Generated_Source\PSoC5/USBFS_std.c ****                         }
 610              		.loc 1 308 0
 611 03ce FFF7FEFF 		bl	USBFS_SetEndpointHalt
 612 03d2 0346     		mov	r3, r0
 613 03d4 FB75     		strb	r3, [r7, #23]
 310:Generated_Source\PSoC5/USBFS_std.c ****                     case USBFS_RQST_RCPT_DEV:
 614              		.loc 1 310 0
 615 03d6 2FE0     		b	.L50
 616              	.L49:
 617 03d8 2EE0     		b	.L50
 618              	.L47:
 313:Generated_Source\PSoC5/USBFS_std.c ****                         {
 619              		.loc 1 313 0
 620 03da 214B     		ldr	r3, .L60+24
 621 03dc 1B78     		ldrb	r3, [r3]
 622 03de DBB2     		uxtb	r3, r3
 623 03e0 012B     		cmp	r3, #1
 624 03e2 0CD1     		bne	.L51
 315:Generated_Source\PSoC5/USBFS_std.c ****                             requestHandled = USBFS_InitNoDataControlTransfer();
 625              		.loc 1 315 0
 626 03e4 1F4B     		ldr	r3, .L60+28
 627 03e6 1B78     		ldrb	r3, [r3]
 628 03e8 DBB2     		uxtb	r3, r3
 629 03ea 43F00203 		orr	r3, r3, #2
 630 03ee DAB2     		uxtb	r2, r3
 631 03f0 1C4B     		ldr	r3, .L60+28
 632 03f2 1A70     		strb	r2, [r3]
 316:Generated_Source\PSoC5/USBFS_std.c ****                         }
 633              		.loc 1 316 0
 634 03f4 FFF7FEFF 		bl	USBFS_InitNoDataControlTransfer
 635 03f8 0346     		mov	r3, r0
 636 03fa FB75     		strb	r3, [r7, #23]
 318:Generated_Source\PSoC5/USBFS_std.c ****                     case USBFS_RQST_RCPT_IFC:
 637              		.loc 1 318 0
 638 03fc 1CE0     		b	.L50
 639              	.L51:
 318:Generated_Source\PSoC5/USBFS_std.c ****                     case USBFS_RQST_RCPT_IFC:
 640              		.loc 1 318 0 is_stmt 0 discriminator 12
 641 03fe 1BE0     		b	.L50
 642              	.L46:
 321:Generated_Source\PSoC5/USBFS_std.c ****                         {
 643              		.loc 1 321 0 is_stmt 1
 644 0400 114B     		ldr	r3, .L60
ARM GAS  C:\Users\JOSANT~1\AppData\Local\Temp\cceoxjZy.s 			page 19


 645 0402 1B78     		ldrb	r3, [r3]
 646 0404 DBB2     		uxtb	r3, r3
 647 0406 012B     		cmp	r3, #1
 648 0408 15D8     		bhi	.L52
 324:Generated_Source\PSoC5/USBFS_std.c ****                             requestHandled = USBFS_InitNoDataControlTransfer();
 649              		.loc 1 324 0
 650 040a 154B     		ldr	r3, .L60+24
 651 040c 1B78     		ldrb	r3, [r3]
 652 040e DBB2     		uxtb	r3, r3
 653 0410 DB43     		mvns	r3, r3
 654 0412 DBB2     		uxtb	r3, r3
 323:Generated_Source\PSoC5/USBFS_std.c ****                                                                 (uint8)~(CY_GET_REG8(USBFS_wValueLo
 655              		.loc 1 323 0
 656 0414 0C4A     		ldr	r2, .L60
 657 0416 1278     		ldrb	r2, [r2]
 658 0418 D2B2     		uxtb	r2, r2
 659 041a 1146     		mov	r1, r2
 660 041c 1046     		mov	r0, r2
 661 041e 124A     		ldr	r2, .L60+32
 662 0420 125C     		ldrb	r2, [r2, r0]
 663 0422 D2B2     		uxtb	r2, r2
 664 0424 1340     		ands	r3, r3, r2
 665 0426 DAB2     		uxtb	r2, r3
 666 0428 0F4B     		ldr	r3, .L60+32
 667 042a 5A54     		strb	r2, [r3, r1]
 325:Generated_Source\PSoC5/USBFS_std.c ****                         }
 668              		.loc 1 325 0
 669 042c FFF7FEFF 		bl	USBFS_InitNoDataControlTransfer
 670 0430 0346     		mov	r3, r0
 671 0432 FB75     		strb	r3, [r7, #23]
 327:Generated_Source\PSoC5/USBFS_std.c ****                     default:    /* requestHandled is initialized as FALSE by default */
 672              		.loc 1 327 0
 673 0434 FFE7     		b	.L57
 674              	.L52:
 675              	.L57:
 676 0436 00BF     		nop
 677              	.L50:
 330:Generated_Source\PSoC5/USBFS_std.c ****                 }
 331:Generated_Source\PSoC5/USBFS_std.c ****                 break;
 678              		.loc 1 331 0 discriminator 11
 679 0438 00E0     		b	.L23
 680              	.L55:
 332:Generated_Source\PSoC5/USBFS_std.c ****             default:    /* requestHandled is initialized as FALSE by default */
 333:Generated_Source\PSoC5/USBFS_std.c ****                 break;
 681              		.loc 1 333 0
 682 043a 00BF     		nop
 683              	.L23:
 334:Generated_Source\PSoC5/USBFS_std.c ****         }
 335:Generated_Source\PSoC5/USBFS_std.c ****     }
 336:Generated_Source\PSoC5/USBFS_std.c ****     return(requestHandled);
 684              		.loc 1 336 0
 685 043c FB7D     		ldrb	r3, [r7, #23]	@ zero_extendqisi2
 337:Generated_Source\PSoC5/USBFS_std.c **** }
 686              		.loc 1 337 0
 687 043e 1846     		mov	r0, r3
 688 0440 1837     		adds	r7, r7, #24
 689              		.cfi_def_cfa_offset 8
ARM GAS  C:\Users\JOSANT~1\AppData\Local\Temp\cceoxjZy.s 			page 20


 690 0442 BD46     		mov	sp, r7
 691              		.cfi_def_cfa_register 13
 692              		@ sp needed
 693 0444 80BD     		pop	{r7, pc}
 694              	.L61:
 695 0446 00BF     		.align	2
 696              	.L60:
 697 0448 04600040 		.word	1073766404
 698 044c 00000000 		.word	USBFS_interfaceNumber
 699 0450 00000000 		.word	USBFS_configurationChanged
 700 0454 00000000 		.word	USBFS_interfaceSetting
 701 0458 00000000 		.word	USBFS_interfaceSetting_last
 702 045c 00600040 		.word	1073766400
 703 0460 02600040 		.word	1073766402
 704 0464 00000000 		.word	USBFS_deviceStatus
 705 0468 00000000 		.word	USBFS_interfaceStatus
 706              		.cfi_endproc
 707              	.LFE0:
 708              		.size	USBFS_HandleStandardRqst, .-USBFS_HandleStandardRqst
 709              		.section	.text.USBFS_ConfigReg,"ax",%progbits
 710              		.align	2
 711              		.global	USBFS_ConfigReg
 712              		.thumb
 713              		.thumb_func
 714              		.type	USBFS_ConfigReg, %function
 715              	USBFS_ConfigReg:
 716              	.LFB1:
 338:Generated_Source\PSoC5/USBFS_std.c **** 
 339:Generated_Source\PSoC5/USBFS_std.c **** 
 340:Generated_Source\PSoC5/USBFS_std.c **** #if defined(USBFS_ENABLE_IDSN_STRING)
 341:Generated_Source\PSoC5/USBFS_std.c **** 
 342:Generated_Source\PSoC5/USBFS_std.c ****     /***************************************************************************
 343:Generated_Source\PSoC5/USBFS_std.c ****     * Function Name: USBFS_ReadDieID
 344:Generated_Source\PSoC5/USBFS_std.c ****     ****************************************************************************
 345:Generated_Source\PSoC5/USBFS_std.c ****     *
 346:Generated_Source\PSoC5/USBFS_std.c ****     * Summary:
 347:Generated_Source\PSoC5/USBFS_std.c ****     *  This routine read Die ID and generate Serial Number string descriptor.
 348:Generated_Source\PSoC5/USBFS_std.c ****     *
 349:Generated_Source\PSoC5/USBFS_std.c ****     * Parameters:
 350:Generated_Source\PSoC5/USBFS_std.c ****     *  descr:  pointer on string descriptor.
 351:Generated_Source\PSoC5/USBFS_std.c ****     *
 352:Generated_Source\PSoC5/USBFS_std.c ****     * Return:
 353:Generated_Source\PSoC5/USBFS_std.c ****     *  None.
 354:Generated_Source\PSoC5/USBFS_std.c ****     *
 355:Generated_Source\PSoC5/USBFS_std.c ****     * Reentrant:
 356:Generated_Source\PSoC5/USBFS_std.c ****     *  No.
 357:Generated_Source\PSoC5/USBFS_std.c ****     *
 358:Generated_Source\PSoC5/USBFS_std.c ****     ***************************************************************************/
 359:Generated_Source\PSoC5/USBFS_std.c ****     void USBFS_ReadDieID(uint8 descr[]) 
 360:Generated_Source\PSoC5/USBFS_std.c ****     {
 361:Generated_Source\PSoC5/USBFS_std.c ****         uint8 i;
 362:Generated_Source\PSoC5/USBFS_std.c ****         uint8 j = 0u;
 363:Generated_Source\PSoC5/USBFS_std.c ****         uint8 value;
 364:Generated_Source\PSoC5/USBFS_std.c ****         const char8 CYCODE hex[16u] = "0123456789ABCDEF";
 365:Generated_Source\PSoC5/USBFS_std.c **** 
 366:Generated_Source\PSoC5/USBFS_std.c ****         /* Check descriptor validation */
 367:Generated_Source\PSoC5/USBFS_std.c ****         if( descr != NULL)
ARM GAS  C:\Users\JOSANT~1\AppData\Local\Temp\cceoxjZy.s 			page 21


 368:Generated_Source\PSoC5/USBFS_std.c ****         {
 369:Generated_Source\PSoC5/USBFS_std.c ****             descr[0u] = USBFS_IDSN_DESCR_LENGTH;
 370:Generated_Source\PSoC5/USBFS_std.c ****             descr[1u] = USBFS_DESCR_STRING;
 371:Generated_Source\PSoC5/USBFS_std.c **** 
 372:Generated_Source\PSoC5/USBFS_std.c ****             /* fill descriptor */
 373:Generated_Source\PSoC5/USBFS_std.c ****             for(i = 2u; i < USBFS_IDSN_DESCR_LENGTH; i += 4u)
 374:Generated_Source\PSoC5/USBFS_std.c ****             {
 375:Generated_Source\PSoC5/USBFS_std.c ****                 value = CY_GET_XTND_REG8((void CYFAR *)(USBFS_DIE_ID + j));
 376:Generated_Source\PSoC5/USBFS_std.c ****                 j++;
 377:Generated_Source\PSoC5/USBFS_std.c ****                 descr[i] = (uint8)hex[value >> 4u];
 378:Generated_Source\PSoC5/USBFS_std.c ****                 descr[i + 2u] = (uint8)hex[value & 0x0Fu];
 379:Generated_Source\PSoC5/USBFS_std.c ****             }
 380:Generated_Source\PSoC5/USBFS_std.c ****         }
 381:Generated_Source\PSoC5/USBFS_std.c ****     }
 382:Generated_Source\PSoC5/USBFS_std.c **** 
 383:Generated_Source\PSoC5/USBFS_std.c **** #endif /*  USBFS_ENABLE_IDSN_STRING */
 384:Generated_Source\PSoC5/USBFS_std.c **** 
 385:Generated_Source\PSoC5/USBFS_std.c **** 
 386:Generated_Source\PSoC5/USBFS_std.c **** /*******************************************************************************
 387:Generated_Source\PSoC5/USBFS_std.c **** * Function Name: USBFS_ConfigReg
 388:Generated_Source\PSoC5/USBFS_std.c **** ********************************************************************************
 389:Generated_Source\PSoC5/USBFS_std.c **** *
 390:Generated_Source\PSoC5/USBFS_std.c **** * Summary:
 391:Generated_Source\PSoC5/USBFS_std.c **** *  This routine configures hardware registers from the variables.
 392:Generated_Source\PSoC5/USBFS_std.c **** *  It is called from USBFS_Config() function and from RestoreConfig
 393:Generated_Source\PSoC5/USBFS_std.c **** *  after Wakeup.
 394:Generated_Source\PSoC5/USBFS_std.c **** *
 395:Generated_Source\PSoC5/USBFS_std.c **** * Parameters:
 396:Generated_Source\PSoC5/USBFS_std.c **** *  None.
 397:Generated_Source\PSoC5/USBFS_std.c **** *
 398:Generated_Source\PSoC5/USBFS_std.c **** * Return:
 399:Generated_Source\PSoC5/USBFS_std.c **** *  None.
 400:Generated_Source\PSoC5/USBFS_std.c **** *
 401:Generated_Source\PSoC5/USBFS_std.c **** *******************************************************************************/
 402:Generated_Source\PSoC5/USBFS_std.c **** void USBFS_ConfigReg(void) 
 403:Generated_Source\PSoC5/USBFS_std.c **** {
 717              		.loc 1 403 0
 718              		.cfi_startproc
 719              		@ args = 0, pretend = 0, frame = 8
 720              		@ frame_needed = 1, uses_anonymous_args = 0
 721              		@ link register save eliminated.
 722 0000 80B4     		push	{r7}
 723              		.cfi_def_cfa_offset 4
 724              		.cfi_offset 7, -4
 725 0002 83B0     		sub	sp, sp, #12
 726              		.cfi_def_cfa_offset 16
 727 0004 00AF     		add	r7, sp, #0
 728              		.cfi_def_cfa_register 7
 404:Generated_Source\PSoC5/USBFS_std.c ****     uint8 ep;
 405:Generated_Source\PSoC5/USBFS_std.c ****     uint8 i;
 406:Generated_Source\PSoC5/USBFS_std.c ****     #if(USBFS_EP_MM == USBFS__EP_DMAAUTO)
 407:Generated_Source\PSoC5/USBFS_std.c ****         uint8 epType = 0u;
 408:Generated_Source\PSoC5/USBFS_std.c ****     #endif /*  USBFS_EP_MM == USBFS__EP_DMAAUTO */
 409:Generated_Source\PSoC5/USBFS_std.c **** 
 410:Generated_Source\PSoC5/USBFS_std.c ****     /* Set the endpoint buffer addresses */
 411:Generated_Source\PSoC5/USBFS_std.c ****     ep = USBFS_EP1;
 729              		.loc 1 411 0
ARM GAS  C:\Users\JOSANT~1\AppData\Local\Temp\cceoxjZy.s 			page 22


 730 0006 0123     		movs	r3, #1
 731 0008 FB71     		strb	r3, [r7, #7]
 412:Generated_Source\PSoC5/USBFS_std.c ****     for (i = 0u; i < 0x80u; i+= 0x10u)
 732              		.loc 1 412 0
 733 000a 0023     		movs	r3, #0
 734 000c BB71     		strb	r3, [r7, #6]
 735 000e 9CE0     		b	.L63
 736              	.L68:
 413:Generated_Source\PSoC5/USBFS_std.c ****     {
 414:Generated_Source\PSoC5/USBFS_std.c ****         CY_SET_REG8((reg8 *)(USBFS_ARB_EP1_CFG_IND + i), USBFS_ARB_EPX_CFG_DEFAULT);
 737              		.loc 1 414 0
 738 0010 BB79     		ldrb	r3, [r7, #6]	@ zero_extendqisi2
 739 0012 03F18043 		add	r3, r3, #1073741824
 740 0016 03F5C143 		add	r3, r3, #24704
 741 001a 0C22     		movs	r2, #12
 742 001c 1A70     		strb	r2, [r3]
 415:Generated_Source\PSoC5/USBFS_std.c ****         #if(USBFS_EP_MM != USBFS__EP_MANUAL)
 416:Generated_Source\PSoC5/USBFS_std.c ****             /* Enable all Arbiter EP Interrupts : err, buf under, buf over, dma gnt(mode2 only), in
 417:Generated_Source\PSoC5/USBFS_std.c ****             CY_SET_REG8((reg8 *)(USBFS_ARB_EP1_INT_EN_IND + i), USBFS_ARB_EPX_INT_MASK);
 743              		.loc 1 417 0
 744 001e BA79     		ldrb	r2, [r7, #6]	@ zero_extendqisi2
 745 0020 504B     		ldr	r3, .L69
 746 0022 1344     		add	r3, r3, r2
 747 0024 1F22     		movs	r2, #31
 748 0026 1A70     		strb	r2, [r3]
 418:Generated_Source\PSoC5/USBFS_std.c ****         #endif   /*  USBFS_EP_MM != USBFS__EP_MANUAL */
 419:Generated_Source\PSoC5/USBFS_std.c **** 
 420:Generated_Source\PSoC5/USBFS_std.c ****         if(USBFS_EP[ep].epMode != USBFS_MODE_DISABLE)
 749              		.loc 1 420 0
 750 0028 FA79     		ldrb	r2, [r7, #7]	@ zero_extendqisi2
 751 002a 4F49     		ldr	r1, .L69+4
 752 002c 1346     		mov	r3, r2
 753 002e 5B00     		lsls	r3, r3, #1
 754 0030 1344     		add	r3, r3, r2
 755 0032 9B00     		lsls	r3, r3, #2
 756 0034 0B44     		add	r3, r3, r1
 757 0036 5B79     		ldrb	r3, [r3, #5]
 758 0038 DBB2     		uxtb	r3, r3
 759 003a 002B     		cmp	r3, #0
 760 003c 18D0     		beq	.L64
 421:Generated_Source\PSoC5/USBFS_std.c ****         {
 422:Generated_Source\PSoC5/USBFS_std.c ****             if((USBFS_EP[ep].addr & USBFS_DIR_IN) != 0u )
 761              		.loc 1 422 0
 762 003e FA79     		ldrb	r2, [r7, #7]	@ zero_extendqisi2
 763 0040 4949     		ldr	r1, .L69+4
 764 0042 1346     		mov	r3, r2
 765 0044 5B00     		lsls	r3, r3, #1
 766 0046 1344     		add	r3, r3, r2
 767 0048 9B00     		lsls	r3, r3, #2
 768 004a 0B44     		add	r3, r3, r1
 769 004c 1B79     		ldrb	r3, [r3, #4]
 770 004e DBB2     		uxtb	r3, r3
 771 0050 DBB2     		uxtb	r3, r3
 772 0052 5BB2     		sxtb	r3, r3
 773 0054 002B     		cmp	r3, #0
 774 0056 05DA     		bge	.L65
 423:Generated_Source\PSoC5/USBFS_std.c ****             {
ARM GAS  C:\Users\JOSANT~1\AppData\Local\Temp\cceoxjZy.s 			page 23


 424:Generated_Source\PSoC5/USBFS_std.c ****                 CY_SET_REG8((reg8 *)(USBFS_SIE_EP1_CR0_IND + i), USBFS_MODE_NAK_IN);
 775              		.loc 1 424 0
 776 0058 BA79     		ldrb	r2, [r7, #6]	@ zero_extendqisi2
 777 005a 444B     		ldr	r3, .L69+8
 778 005c 1344     		add	r3, r3, r2
 779 005e 0C22     		movs	r2, #12
 780 0060 1A70     		strb	r2, [r3]
 781 0062 0AE0     		b	.L67
 782              	.L65:
 425:Generated_Source\PSoC5/USBFS_std.c ****             }
 426:Generated_Source\PSoC5/USBFS_std.c ****             else
 427:Generated_Source\PSoC5/USBFS_std.c ****             {
 428:Generated_Source\PSoC5/USBFS_std.c ****                 CY_SET_REG8((reg8 *)(USBFS_SIE_EP1_CR0_IND + i), USBFS_MODE_NAK_OUT);
 783              		.loc 1 428 0
 784 0064 BA79     		ldrb	r2, [r7, #6]	@ zero_extendqisi2
 785 0066 414B     		ldr	r3, .L69+8
 786 0068 1344     		add	r3, r3, r2
 787 006a 0822     		movs	r2, #8
 788 006c 1A70     		strb	r2, [r3]
 789 006e 04E0     		b	.L67
 790              	.L64:
 429:Generated_Source\PSoC5/USBFS_std.c ****                 /* Prepare EP type mask for automatic memory allocation */
 430:Generated_Source\PSoC5/USBFS_std.c ****                 #if(USBFS_EP_MM == USBFS__EP_DMAAUTO)
 431:Generated_Source\PSoC5/USBFS_std.c ****                     epType |= (uint8)(0x01u << (ep - USBFS_EP1));
 432:Generated_Source\PSoC5/USBFS_std.c ****                 #endif /*  USBFS_EP_MM == USBFS__EP_DMAAUTO */
 433:Generated_Source\PSoC5/USBFS_std.c ****             }
 434:Generated_Source\PSoC5/USBFS_std.c ****         }
 435:Generated_Source\PSoC5/USBFS_std.c ****         else
 436:Generated_Source\PSoC5/USBFS_std.c ****         {
 437:Generated_Source\PSoC5/USBFS_std.c ****             CY_SET_REG8((reg8 *)(USBFS_SIE_EP1_CR0_IND + i), USBFS_MODE_STALL_DATA_EP);
 791              		.loc 1 437 0
 792 0070 BA79     		ldrb	r2, [r7, #6]	@ zero_extendqisi2
 793 0072 3E4B     		ldr	r3, .L69+8
 794 0074 1344     		add	r3, r3, r2
 795 0076 8022     		movs	r2, #128
 796 0078 1A70     		strb	r2, [r3]
 797              	.L67:
 438:Generated_Source\PSoC5/USBFS_std.c ****         }
 439:Generated_Source\PSoC5/USBFS_std.c **** 
 440:Generated_Source\PSoC5/USBFS_std.c ****         #if(USBFS_EP_MM != USBFS__EP_DMAAUTO)
 441:Generated_Source\PSoC5/USBFS_std.c ****             CY_SET_REG8((reg8 *)(USBFS_SIE_EP1_CNT0_IND + i),   USBFS_EP[ep].bufferSize >> 8u);
 798              		.loc 1 441 0 discriminator 2
 799 007a BA79     		ldrb	r2, [r7, #6]	@ zero_extendqisi2
 800 007c 3C4B     		ldr	r3, .L69+12
 801 007e 1344     		add	r3, r3, r2
 802 0080 1846     		mov	r0, r3
 803 0082 FA79     		ldrb	r2, [r7, #7]	@ zero_extendqisi2
 804 0084 3849     		ldr	r1, .L69+4
 805 0086 1346     		mov	r3, r2
 806 0088 5B00     		lsls	r3, r3, #1
 807 008a 1344     		add	r3, r3, r2
 808 008c 9B00     		lsls	r3, r3, #2
 809 008e 0B44     		add	r3, r3, r1
 810 0090 0833     		adds	r3, r3, #8
 811 0092 1B88     		ldrh	r3, [r3]	@ movhi
 812 0094 9BB2     		uxth	r3, r3
 813 0096 1B0A     		lsrs	r3, r3, #8
ARM GAS  C:\Users\JOSANT~1\AppData\Local\Temp\cceoxjZy.s 			page 24


 814 0098 9BB2     		uxth	r3, r3
 815 009a DBB2     		uxtb	r3, r3
 816 009c 0370     		strb	r3, [r0]
 442:Generated_Source\PSoC5/USBFS_std.c ****             CY_SET_REG8((reg8 *)(USBFS_SIE_EP1_CNT1_IND + i),   USBFS_EP[ep].bufferSize & 0xFFu);
 817              		.loc 1 442 0 discriminator 2
 818 009e BA79     		ldrb	r2, [r7, #6]	@ zero_extendqisi2
 819 00a0 344B     		ldr	r3, .L69+16
 820 00a2 1344     		add	r3, r3, r2
 821 00a4 1846     		mov	r0, r3
 822 00a6 FA79     		ldrb	r2, [r7, #7]	@ zero_extendqisi2
 823 00a8 2F49     		ldr	r1, .L69+4
 824 00aa 1346     		mov	r3, r2
 825 00ac 5B00     		lsls	r3, r3, #1
 826 00ae 1344     		add	r3, r3, r2
 827 00b0 9B00     		lsls	r3, r3, #2
 828 00b2 0B44     		add	r3, r3, r1
 829 00b4 0833     		adds	r3, r3, #8
 830 00b6 1B88     		ldrh	r3, [r3]	@ movhi
 831 00b8 9BB2     		uxth	r3, r3
 832 00ba DBB2     		uxtb	r3, r3
 833 00bc 0370     		strb	r3, [r0]
 443:Generated_Source\PSoC5/USBFS_std.c **** 
 444:Generated_Source\PSoC5/USBFS_std.c ****             CY_SET_REG8((reg8 *)(USBFS_ARB_RW1_RA_IND + i),     USBFS_EP[ep].buffOffset & 0xFFu);
 834              		.loc 1 444 0 discriminator 2
 835 00be BA79     		ldrb	r2, [r7, #6]	@ zero_extendqisi2
 836 00c0 2D4B     		ldr	r3, .L69+20
 837 00c2 1344     		add	r3, r3, r2
 838 00c4 1846     		mov	r0, r3
 839 00c6 FA79     		ldrb	r2, [r7, #7]	@ zero_extendqisi2
 840 00c8 2749     		ldr	r1, .L69+4
 841 00ca 1346     		mov	r3, r2
 842 00cc 5B00     		lsls	r3, r3, #1
 843 00ce 1344     		add	r3, r3, r2
 844 00d0 9B00     		lsls	r3, r3, #2
 845 00d2 0B44     		add	r3, r3, r1
 846 00d4 DB88     		ldrh	r3, [r3, #6]	@ movhi
 847 00d6 9BB2     		uxth	r3, r3
 848 00d8 DBB2     		uxtb	r3, r3
 849 00da 0370     		strb	r3, [r0]
 445:Generated_Source\PSoC5/USBFS_std.c ****             CY_SET_REG8((reg8 *)(USBFS_ARB_RW1_RA_MSB_IND + i), USBFS_EP[ep].buffOffset >> 8u);
 850              		.loc 1 445 0 discriminator 2
 851 00dc BA79     		ldrb	r2, [r7, #6]	@ zero_extendqisi2
 852 00de 274B     		ldr	r3, .L69+24
 853 00e0 1344     		add	r3, r3, r2
 854 00e2 1846     		mov	r0, r3
 855 00e4 FA79     		ldrb	r2, [r7, #7]	@ zero_extendqisi2
 856 00e6 2049     		ldr	r1, .L69+4
 857 00e8 1346     		mov	r3, r2
 858 00ea 5B00     		lsls	r3, r3, #1
 859 00ec 1344     		add	r3, r3, r2
 860 00ee 9B00     		lsls	r3, r3, #2
 861 00f0 0B44     		add	r3, r3, r1
 862 00f2 DB88     		ldrh	r3, [r3, #6]	@ movhi
 863 00f4 9BB2     		uxth	r3, r3
 864 00f6 1B0A     		lsrs	r3, r3, #8
 865 00f8 9BB2     		uxth	r3, r3
 866 00fa DBB2     		uxtb	r3, r3
ARM GAS  C:\Users\JOSANT~1\AppData\Local\Temp\cceoxjZy.s 			page 25


 867 00fc 0370     		strb	r3, [r0]
 446:Generated_Source\PSoC5/USBFS_std.c ****             CY_SET_REG8((reg8 *)(USBFS_ARB_RW1_WA_IND + i),     USBFS_EP[ep].buffOffset & 0xFFu);
 868              		.loc 1 446 0 discriminator 2
 869 00fe BA79     		ldrb	r2, [r7, #6]	@ zero_extendqisi2
 870 0100 1F4B     		ldr	r3, .L69+28
 871 0102 1344     		add	r3, r3, r2
 872 0104 1846     		mov	r0, r3
 873 0106 FA79     		ldrb	r2, [r7, #7]	@ zero_extendqisi2
 874 0108 1749     		ldr	r1, .L69+4
 875 010a 1346     		mov	r3, r2
 876 010c 5B00     		lsls	r3, r3, #1
 877 010e 1344     		add	r3, r3, r2
 878 0110 9B00     		lsls	r3, r3, #2
 879 0112 0B44     		add	r3, r3, r1
 880 0114 DB88     		ldrh	r3, [r3, #6]	@ movhi
 881 0116 9BB2     		uxth	r3, r3
 882 0118 DBB2     		uxtb	r3, r3
 883 011a 0370     		strb	r3, [r0]
 447:Generated_Source\PSoC5/USBFS_std.c ****             CY_SET_REG8((reg8 *)(USBFS_ARB_RW1_WA_MSB_IND + i), USBFS_EP[ep].buffOffset >> 8u);
 884              		.loc 1 447 0 discriminator 2
 885 011c BA79     		ldrb	r2, [r7, #6]	@ zero_extendqisi2
 886 011e 194B     		ldr	r3, .L69+32
 887 0120 1344     		add	r3, r3, r2
 888 0122 1846     		mov	r0, r3
 889 0124 FA79     		ldrb	r2, [r7, #7]	@ zero_extendqisi2
 890 0126 1049     		ldr	r1, .L69+4
 891 0128 1346     		mov	r3, r2
 892 012a 5B00     		lsls	r3, r3, #1
 893 012c 1344     		add	r3, r3, r2
 894 012e 9B00     		lsls	r3, r3, #2
 895 0130 0B44     		add	r3, r3, r1
 896 0132 DB88     		ldrh	r3, [r3, #6]	@ movhi
 897 0134 9BB2     		uxth	r3, r3
 898 0136 1B0A     		lsrs	r3, r3, #8
 899 0138 9BB2     		uxth	r3, r3
 900 013a DBB2     		uxtb	r3, r3
 901 013c 0370     		strb	r3, [r0]
 448:Generated_Source\PSoC5/USBFS_std.c ****         #endif /*  USBFS_EP_MM != USBFS__EP_DMAAUTO */
 449:Generated_Source\PSoC5/USBFS_std.c **** 
 450:Generated_Source\PSoC5/USBFS_std.c ****         ep++;
 902              		.loc 1 450 0 discriminator 2
 903 013e FB79     		ldrb	r3, [r7, #7]	@ zero_extendqisi2
 904 0140 0133     		adds	r3, r3, #1
 905 0142 FB71     		strb	r3, [r7, #7]
 412:Generated_Source\PSoC5/USBFS_std.c ****     {
 906              		.loc 1 412 0 discriminator 2
 907 0144 BB79     		ldrb	r3, [r7, #6]
 908 0146 1033     		adds	r3, r3, #16
 909 0148 BB71     		strb	r3, [r7, #6]
 910              	.L63:
 412:Generated_Source\PSoC5/USBFS_std.c ****     {
 911              		.loc 1 412 0 is_stmt 0 discriminator 1
 912 014a BB79     		ldrb	r3, [r7, #6]	@ zero_extendqisi2
 913 014c 5BB2     		sxtb	r3, r3
 914 014e 002B     		cmp	r3, #0
 915 0150 BFF65EAF 		bge	.L68
 451:Generated_Source\PSoC5/USBFS_std.c ****     }
ARM GAS  C:\Users\JOSANT~1\AppData\Local\Temp\cceoxjZy.s 			page 26


 452:Generated_Source\PSoC5/USBFS_std.c **** 
 453:Generated_Source\PSoC5/USBFS_std.c ****     #if(USBFS_EP_MM == USBFS__EP_DMAAUTO)
 454:Generated_Source\PSoC5/USBFS_std.c ****          /* BUF_SIZE depend on DMA_THRESS value: 55-32 bytes  44-16 bytes 33-8 bytes 22-4 bytes 11-
 455:Generated_Source\PSoC5/USBFS_std.c ****         USBFS_BUF_SIZE_REG = USBFS_DMA_BUF_SIZE;
 456:Generated_Source\PSoC5/USBFS_std.c ****         USBFS_DMA_THRES_REG = USBFS_DMA_BYTES_PER_BURST;   /* DMA burst threshold */
 457:Generated_Source\PSoC5/USBFS_std.c ****         USBFS_DMA_THRES_MSB_REG = 0u;
 458:Generated_Source\PSoC5/USBFS_std.c ****         USBFS_EP_ACTIVE_REG = USBFS_ARB_INT_MASK;
 459:Generated_Source\PSoC5/USBFS_std.c ****         USBFS_EP_TYPE_REG = epType;
 460:Generated_Source\PSoC5/USBFS_std.c ****         /* Cfg_cmp bit set to 1 once configuration is complete. */
 461:Generated_Source\PSoC5/USBFS_std.c ****         USBFS_ARB_CFG_REG = USBFS_ARB_CFG_AUTO_DMA | USBFS_ARB_CFG_AUTO_MEM |
 462:Generated_Source\PSoC5/USBFS_std.c ****                                        USBFS_ARB_CFG_CFG_CPM;
 463:Generated_Source\PSoC5/USBFS_std.c ****         /* Cfg_cmp bit set to 0 during configuration of PFSUSB Registers. */
 464:Generated_Source\PSoC5/USBFS_std.c ****         USBFS_ARB_CFG_REG = USBFS_ARB_CFG_AUTO_DMA | USBFS_ARB_CFG_AUTO_MEM;
 465:Generated_Source\PSoC5/USBFS_std.c ****     #endif /*  USBFS_EP_MM == USBFS__EP_DMAAUTO */
 466:Generated_Source\PSoC5/USBFS_std.c **** 
 467:Generated_Source\PSoC5/USBFS_std.c ****     CY_SET_REG8(USBFS_SIE_EP_INT_EN_PTR, 0xFFu);
 916              		.loc 1 467 0 is_stmt 1
 917 0154 0C4B     		ldr	r3, .L69+36
 918 0156 FF22     		movs	r2, #255
 919 0158 1A70     		strb	r2, [r3]
 468:Generated_Source\PSoC5/USBFS_std.c **** }
 920              		.loc 1 468 0
 921 015a 0C37     		adds	r7, r7, #12
 922              		.cfi_def_cfa_offset 4
 923 015c BD46     		mov	sp, r7
 924              		.cfi_def_cfa_register 13
 925              		@ sp needed
 926 015e 5DF8047B 		ldr	r7, [sp], #4
 927              		.cfi_restore 7
 928              		.cfi_def_cfa_offset 0
 929 0162 7047     		bx	lr
 930              	.L70:
 931              		.align	2
 932              	.L69:
 933 0164 81600040 		.word	1073766529
 934 0168 00000000 		.word	USBFS_EP
 935 016c 0E600040 		.word	1073766414
 936 0170 0C600040 		.word	1073766412
 937 0174 0D600040 		.word	1073766413
 938 0178 86600040 		.word	1073766534
 939 017c 87600040 		.word	1073766535
 940 0180 84600040 		.word	1073766532
 941 0184 85600040 		.word	1073766533
 942 0188 0A600040 		.word	1073766410
 943              		.cfi_endproc
 944              	.LFE1:
 945              		.size	USBFS_ConfigReg, .-USBFS_ConfigReg
 946              		.section	.text.USBFS_Config,"ax",%progbits
 947              		.align	2
 948              		.global	USBFS_Config
 949              		.thumb
 950              		.thumb_func
 951              		.type	USBFS_Config, %function
 952              	USBFS_Config:
 953              	.LFB2:
 469:Generated_Source\PSoC5/USBFS_std.c **** 
 470:Generated_Source\PSoC5/USBFS_std.c **** 
ARM GAS  C:\Users\JOSANT~1\AppData\Local\Temp\cceoxjZy.s 			page 27


 471:Generated_Source\PSoC5/USBFS_std.c **** /*******************************************************************************
 472:Generated_Source\PSoC5/USBFS_std.c **** * Function Name: USBFS_Config
 473:Generated_Source\PSoC5/USBFS_std.c **** ********************************************************************************
 474:Generated_Source\PSoC5/USBFS_std.c **** *
 475:Generated_Source\PSoC5/USBFS_std.c **** * Summary:
 476:Generated_Source\PSoC5/USBFS_std.c **** *  This routine configures endpoints for the entire configuration by scanning
 477:Generated_Source\PSoC5/USBFS_std.c **** *  the configuration descriptor.
 478:Generated_Source\PSoC5/USBFS_std.c **** *
 479:Generated_Source\PSoC5/USBFS_std.c **** * Parameters:
 480:Generated_Source\PSoC5/USBFS_std.c **** *  clearAltSetting: It configures the bAlternateSetting 0 for each interface.
 481:Generated_Source\PSoC5/USBFS_std.c **** *
 482:Generated_Source\PSoC5/USBFS_std.c **** * Return:
 483:Generated_Source\PSoC5/USBFS_std.c **** *  None.
 484:Generated_Source\PSoC5/USBFS_std.c **** *
 485:Generated_Source\PSoC5/USBFS_std.c **** * USBFS_interfaceClass - Initialized class array for each interface.
 486:Generated_Source\PSoC5/USBFS_std.c **** *   It is used for handling Class specific requests depend on interface class.
 487:Generated_Source\PSoC5/USBFS_std.c **** *   Different classes in multiple Alternate settings does not supported.
 488:Generated_Source\PSoC5/USBFS_std.c **** *
 489:Generated_Source\PSoC5/USBFS_std.c **** * Reentrant:
 490:Generated_Source\PSoC5/USBFS_std.c **** *  No.
 491:Generated_Source\PSoC5/USBFS_std.c **** *
 492:Generated_Source\PSoC5/USBFS_std.c **** *******************************************************************************/
 493:Generated_Source\PSoC5/USBFS_std.c **** void USBFS_Config(uint8 clearAltSetting) 
 494:Generated_Source\PSoC5/USBFS_std.c **** {
 954              		.loc 1 494 0
 955              		.cfi_startproc
 956              		@ args = 0, pretend = 0, frame = 32
 957              		@ frame_needed = 1, uses_anonymous_args = 0
 958 0000 80B5     		push	{r7, lr}
 959              		.cfi_def_cfa_offset 8
 960              		.cfi_offset 7, -8
 961              		.cfi_offset 14, -4
 962 0002 88B0     		sub	sp, sp, #32
 963              		.cfi_def_cfa_offset 40
 964 0004 00AF     		add	r7, sp, #0
 965              		.cfi_def_cfa_register 7
 966 0006 0346     		mov	r3, r0
 967 0008 FB71     		strb	r3, [r7, #7]
 495:Generated_Source\PSoC5/USBFS_std.c ****     uint8 ep;
 496:Generated_Source\PSoC5/USBFS_std.c ****     uint8 cur_ep;
 497:Generated_Source\PSoC5/USBFS_std.c ****     uint8 i;
 498:Generated_Source\PSoC5/USBFS_std.c ****     uint8 epType;
 499:Generated_Source\PSoC5/USBFS_std.c ****     const uint8 *pDescr;
 500:Generated_Source\PSoC5/USBFS_std.c ****     #if(USBFS_EP_MM != USBFS__EP_DMAAUTO)
 501:Generated_Source\PSoC5/USBFS_std.c ****         uint16 buffCount = 0u;
 968              		.loc 1 501 0
 969 000a 0023     		movs	r3, #0
 970 000c 7B83     		strh	r3, [r7, #26]	@ movhi
 502:Generated_Source\PSoC5/USBFS_std.c ****     #endif /*  USBFS_EP_MM != USBFS__EP_DMAAUTO */
 503:Generated_Source\PSoC5/USBFS_std.c **** 
 504:Generated_Source\PSoC5/USBFS_std.c ****     const T_USBFS_LUT CYCODE *pTmp;
 505:Generated_Source\PSoC5/USBFS_std.c ****     const T_USBFS_EP_SETTINGS_BLOCK CYCODE *pEP;
 506:Generated_Source\PSoC5/USBFS_std.c **** 
 507:Generated_Source\PSoC5/USBFS_std.c ****     /* Clear all of the endpoints */
 508:Generated_Source\PSoC5/USBFS_std.c ****     for (ep = 0u; ep < USBFS_MAX_EP; ep++)
 971              		.loc 1 508 0
 972 000e 0023     		movs	r3, #0
ARM GAS  C:\Users\JOSANT~1\AppData\Local\Temp\cceoxjZy.s 			page 28


 973 0010 FB77     		strb	r3, [r7, #31]
 974 0012 43E0     		b	.L72
 975              	.L73:
 509:Generated_Source\PSoC5/USBFS_std.c ****     {
 510:Generated_Source\PSoC5/USBFS_std.c ****         USBFS_EP[ep].attrib = 0u;
 976              		.loc 1 510 0 discriminator 3
 977 0014 FA7F     		ldrb	r2, [r7, #31]	@ zero_extendqisi2
 978 0016 A449     		ldr	r1, .L96
 979 0018 1346     		mov	r3, r2
 980 001a 5B00     		lsls	r3, r3, #1
 981 001c 1344     		add	r3, r3, r2
 982 001e 9B00     		lsls	r3, r3, #2
 983 0020 0B44     		add	r3, r3, r1
 984 0022 0022     		movs	r2, #0
 985 0024 1A70     		strb	r2, [r3]
 511:Generated_Source\PSoC5/USBFS_std.c ****         USBFS_EP[ep].hwEpState = 0u;
 986              		.loc 1 511 0 discriminator 3
 987 0026 FA7F     		ldrb	r2, [r7, #31]	@ zero_extendqisi2
 988 0028 9F49     		ldr	r1, .L96
 989 002a 1346     		mov	r3, r2
 990 002c 5B00     		lsls	r3, r3, #1
 991 002e 1344     		add	r3, r3, r2
 992 0030 9B00     		lsls	r3, r3, #2
 993 0032 0B44     		add	r3, r3, r1
 994 0034 0022     		movs	r2, #0
 995 0036 9A70     		strb	r2, [r3, #2]
 512:Generated_Source\PSoC5/USBFS_std.c ****         USBFS_EP[ep].apiEpState = USBFS_NO_EVENT_PENDING;
 996              		.loc 1 512 0 discriminator 3
 997 0038 FA7F     		ldrb	r2, [r7, #31]	@ zero_extendqisi2
 998 003a 9B49     		ldr	r1, .L96
 999 003c 1346     		mov	r3, r2
 1000 003e 5B00     		lsls	r3, r3, #1
 1001 0040 1344     		add	r3, r3, r2
 1002 0042 9B00     		lsls	r3, r3, #2
 1003 0044 0B44     		add	r3, r3, r1
 1004 0046 0022     		movs	r2, #0
 1005 0048 5A70     		strb	r2, [r3, #1]
 513:Generated_Source\PSoC5/USBFS_std.c ****         USBFS_EP[ep].epToggle = 0u;
 1006              		.loc 1 513 0 discriminator 3
 1007 004a FA7F     		ldrb	r2, [r7, #31]	@ zero_extendqisi2
 1008 004c 9649     		ldr	r1, .L96
 1009 004e 1346     		mov	r3, r2
 1010 0050 5B00     		lsls	r3, r3, #1
 1011 0052 1344     		add	r3, r3, r2
 1012 0054 9B00     		lsls	r3, r3, #2
 1013 0056 0B44     		add	r3, r3, r1
 1014 0058 0022     		movs	r2, #0
 1015 005a DA70     		strb	r2, [r3, #3]
 514:Generated_Source\PSoC5/USBFS_std.c ****         USBFS_EP[ep].epMode = USBFS_MODE_DISABLE;
 1016              		.loc 1 514 0 discriminator 3
 1017 005c FA7F     		ldrb	r2, [r7, #31]	@ zero_extendqisi2
 1018 005e 9249     		ldr	r1, .L96
 1019 0060 1346     		mov	r3, r2
 1020 0062 5B00     		lsls	r3, r3, #1
 1021 0064 1344     		add	r3, r3, r2
 1022 0066 9B00     		lsls	r3, r3, #2
 1023 0068 0B44     		add	r3, r3, r1
ARM GAS  C:\Users\JOSANT~1\AppData\Local\Temp\cceoxjZy.s 			page 29


 1024 006a 0022     		movs	r2, #0
 1025 006c 5A71     		strb	r2, [r3, #5]
 515:Generated_Source\PSoC5/USBFS_std.c ****         USBFS_EP[ep].bufferSize = 0u;
 1026              		.loc 1 515 0 discriminator 3
 1027 006e FA7F     		ldrb	r2, [r7, #31]	@ zero_extendqisi2
 1028 0070 8D49     		ldr	r1, .L96
 1029 0072 1346     		mov	r3, r2
 1030 0074 5B00     		lsls	r3, r3, #1
 1031 0076 1344     		add	r3, r3, r2
 1032 0078 9B00     		lsls	r3, r3, #2
 1033 007a 0B44     		add	r3, r3, r1
 1034 007c 0833     		adds	r3, r3, #8
 1035 007e 0022     		movs	r2, #0
 1036 0080 1A80     		strh	r2, [r3]	@ movhi
 516:Generated_Source\PSoC5/USBFS_std.c ****         USBFS_EP[ep].interface = 0u;
 1037              		.loc 1 516 0 discriminator 3
 1038 0082 FA7F     		ldrb	r2, [r7, #31]	@ zero_extendqisi2
 1039 0084 8849     		ldr	r1, .L96
 1040 0086 1346     		mov	r3, r2
 1041 0088 5B00     		lsls	r3, r3, #1
 1042 008a 1344     		add	r3, r3, r2
 1043 008c 9B00     		lsls	r3, r3, #2
 1044 008e 0B44     		add	r3, r3, r1
 1045 0090 0833     		adds	r3, r3, #8
 1046 0092 0022     		movs	r2, #0
 1047 0094 9A70     		strb	r2, [r3, #2]
 508:Generated_Source\PSoC5/USBFS_std.c ****     {
 1048              		.loc 1 508 0 discriminator 3
 1049 0096 FB7F     		ldrb	r3, [r7, #31]	@ zero_extendqisi2
 1050 0098 0133     		adds	r3, r3, #1
 1051 009a FB77     		strb	r3, [r7, #31]
 1052              	.L72:
 508:Generated_Source\PSoC5/USBFS_std.c ****     {
 1053              		.loc 1 508 0 is_stmt 0 discriminator 1
 1054 009c FB7F     		ldrb	r3, [r7, #31]	@ zero_extendqisi2
 1055 009e 082B     		cmp	r3, #8
 1056 00a0 B8D9     		bls	.L73
 517:Generated_Source\PSoC5/USBFS_std.c **** 
 518:Generated_Source\PSoC5/USBFS_std.c ****     }
 519:Generated_Source\PSoC5/USBFS_std.c **** 
 520:Generated_Source\PSoC5/USBFS_std.c ****     /* Clear Alternate settings for all interfaces */
 521:Generated_Source\PSoC5/USBFS_std.c ****     if(clearAltSetting != 0u)
 1057              		.loc 1 521 0 is_stmt 1
 1058 00a2 FB79     		ldrb	r3, [r7, #7]	@ zero_extendqisi2
 1059 00a4 002B     		cmp	r3, #0
 1060 00a6 10D0     		beq	.L74
 522:Generated_Source\PSoC5/USBFS_std.c ****     {
 523:Generated_Source\PSoC5/USBFS_std.c ****         for (i = 0u; i < USBFS_MAX_INTERFACES_NUMBER; i++)
 1061              		.loc 1 523 0
 1062 00a8 0023     		movs	r3, #0
 1063 00aa 7B77     		strb	r3, [r7, #29]
 1064 00ac 0AE0     		b	.L75
 1065              	.L76:
 524:Generated_Source\PSoC5/USBFS_std.c ****         {
 525:Generated_Source\PSoC5/USBFS_std.c ****             USBFS_interfaceSetting[i] = 0x00u;
 1066              		.loc 1 525 0 discriminator 3
 1067 00ae 7B7F     		ldrb	r3, [r7, #29]	@ zero_extendqisi2
ARM GAS  C:\Users\JOSANT~1\AppData\Local\Temp\cceoxjZy.s 			page 30


 1068 00b0 7E4A     		ldr	r2, .L96+4
 1069 00b2 0021     		movs	r1, #0
 1070 00b4 D154     		strb	r1, [r2, r3]
 526:Generated_Source\PSoC5/USBFS_std.c ****             USBFS_interfaceSetting_last[i] = 0x00u;
 1071              		.loc 1 526 0 discriminator 3
 1072 00b6 7B7F     		ldrb	r3, [r7, #29]	@ zero_extendqisi2
 1073 00b8 7D4A     		ldr	r2, .L96+8
 1074 00ba 0021     		movs	r1, #0
 1075 00bc D154     		strb	r1, [r2, r3]
 523:Generated_Source\PSoC5/USBFS_std.c ****         {
 1076              		.loc 1 523 0 discriminator 3
 1077 00be 7B7F     		ldrb	r3, [r7, #29]	@ zero_extendqisi2
 1078 00c0 0133     		adds	r3, r3, #1
 1079 00c2 7B77     		strb	r3, [r7, #29]
 1080              	.L75:
 523:Generated_Source\PSoC5/USBFS_std.c ****         {
 1081              		.loc 1 523 0 is_stmt 0 discriminator 1
 1082 00c4 7B7F     		ldrb	r3, [r7, #29]	@ zero_extendqisi2
 1083 00c6 012B     		cmp	r3, #1
 1084 00c8 F1D9     		bls	.L76
 1085              	.L74:
 527:Generated_Source\PSoC5/USBFS_std.c ****         }
 528:Generated_Source\PSoC5/USBFS_std.c ****     }
 529:Generated_Source\PSoC5/USBFS_std.c **** 
 530:Generated_Source\PSoC5/USBFS_std.c ****     /* Init Endpoints and Device Status if configured */
 531:Generated_Source\PSoC5/USBFS_std.c ****     if(USBFS_configuration > 0u)
 1086              		.loc 1 531 0 is_stmt 1
 1087 00ca 7A4B     		ldr	r3, .L96+12
 1088 00cc 1B78     		ldrb	r3, [r3]
 1089 00ce DBB2     		uxtb	r3, r3
 1090 00d0 002B     		cmp	r3, #0
 1091 00d2 00F01381 		beq	.L71
 532:Generated_Source\PSoC5/USBFS_std.c ****     {
 533:Generated_Source\PSoC5/USBFS_std.c ****         pTmp = USBFS_GetConfigTablePtr(USBFS_configuration - 1u);
 1092              		.loc 1 533 0
 1093 00d6 774B     		ldr	r3, .L96+12
 1094 00d8 1B78     		ldrb	r3, [r3]
 1095 00da DBB2     		uxtb	r3, r3
 1096 00dc 013B     		subs	r3, r3, #1
 1097 00de DBB2     		uxtb	r3, r3
 1098 00e0 1846     		mov	r0, r3
 1099 00e2 FFF7FEFF 		bl	USBFS_GetConfigTablePtr
 1100 00e6 3861     		str	r0, [r7, #16]
 534:Generated_Source\PSoC5/USBFS_std.c ****         /* Set Power status for current configuration */
 535:Generated_Source\PSoC5/USBFS_std.c ****         pDescr = (const uint8 *)pTmp->p_list;
 1101              		.loc 1 535 0
 1102 00e8 3B69     		ldr	r3, [r7, #16]
 1103 00ea 5B68     		ldr	r3, [r3, #4]
 1104 00ec FB60     		str	r3, [r7, #12]
 536:Generated_Source\PSoC5/USBFS_std.c ****         if((pDescr[USBFS_CONFIG_DESCR_ATTRIB] & USBFS_CONFIG_DESCR_ATTRIB_SELF_POWERED) != 0u)
 1105              		.loc 1 536 0
 1106 00ee FB68     		ldr	r3, [r7, #12]
 1107 00f0 0733     		adds	r3, r3, #7
 1108 00f2 1B78     		ldrb	r3, [r3]	@ zero_extendqisi2
 1109 00f4 03F04003 		and	r3, r3, #64
 1110 00f8 002B     		cmp	r3, #0
 1111 00fa 08D0     		beq	.L78
ARM GAS  C:\Users\JOSANT~1\AppData\Local\Temp\cceoxjZy.s 			page 31


 537:Generated_Source\PSoC5/USBFS_std.c ****         {
 538:Generated_Source\PSoC5/USBFS_std.c ****             USBFS_deviceStatus |=  USBFS_DEVICE_STATUS_SELF_POWERED;
 1112              		.loc 1 538 0
 1113 00fc 6E4B     		ldr	r3, .L96+16
 1114 00fe 1B78     		ldrb	r3, [r3]
 1115 0100 DBB2     		uxtb	r3, r3
 1116 0102 43F00103 		orr	r3, r3, #1
 1117 0106 DAB2     		uxtb	r2, r3
 1118 0108 6B4B     		ldr	r3, .L96+16
 1119 010a 1A70     		strb	r2, [r3]
 1120 010c 07E0     		b	.L79
 1121              	.L78:
 539:Generated_Source\PSoC5/USBFS_std.c ****         }
 540:Generated_Source\PSoC5/USBFS_std.c ****         else
 541:Generated_Source\PSoC5/USBFS_std.c ****         {
 542:Generated_Source\PSoC5/USBFS_std.c ****             USBFS_deviceStatus &=  (uint8)~USBFS_DEVICE_STATUS_SELF_POWERED;
 1122              		.loc 1 542 0
 1123 010e 6A4B     		ldr	r3, .L96+16
 1124 0110 1B78     		ldrb	r3, [r3]
 1125 0112 DBB2     		uxtb	r3, r3
 1126 0114 23F00103 		bic	r3, r3, #1
 1127 0118 DAB2     		uxtb	r2, r3
 1128 011a 674B     		ldr	r3, .L96+16
 1129 011c 1A70     		strb	r2, [r3]
 1130              	.L79:
 543:Generated_Source\PSoC5/USBFS_std.c ****         }
 544:Generated_Source\PSoC5/USBFS_std.c ****         /* Move to next element */
 545:Generated_Source\PSoC5/USBFS_std.c ****         pTmp = &pTmp[1u];
 1131              		.loc 1 545 0
 1132 011e 3B69     		ldr	r3, [r7, #16]
 1133 0120 0833     		adds	r3, r3, #8
 1134 0122 3B61     		str	r3, [r7, #16]
 546:Generated_Source\PSoC5/USBFS_std.c ****         ep = pTmp->c;  /* For this table, c is the number of endpoints configurations  */
 1135              		.loc 1 546 0
 1136 0124 3B69     		ldr	r3, [r7, #16]
 1137 0126 1B78     		ldrb	r3, [r3]
 1138 0128 FB77     		strb	r3, [r7, #31]
 547:Generated_Source\PSoC5/USBFS_std.c **** 
 548:Generated_Source\PSoC5/USBFS_std.c ****         #if ((USBFS_EP_MA == USBFS__MA_DYNAMIC) && \
 549:Generated_Source\PSoC5/USBFS_std.c ****              (USBFS_EP_MM == USBFS__EP_MANUAL) )
 550:Generated_Source\PSoC5/USBFS_std.c ****             /* Configure for dynamic EP memory allocation */
 551:Generated_Source\PSoC5/USBFS_std.c ****             /* p_list points the endpoint setting table. */
 552:Generated_Source\PSoC5/USBFS_std.c ****             pEP = (T_USBFS_EP_SETTINGS_BLOCK *) pTmp->p_list;
 553:Generated_Source\PSoC5/USBFS_std.c ****             for (i = 0u; i < ep; i++)
 554:Generated_Source\PSoC5/USBFS_std.c ****             {
 555:Generated_Source\PSoC5/USBFS_std.c ****                 /* Compare current Alternate setting with EP Alt */
 556:Generated_Source\PSoC5/USBFS_std.c ****                 if(USBFS_interfaceSetting[pEP->interface] == pEP->altSetting)
 557:Generated_Source\PSoC5/USBFS_std.c ****                 {
 558:Generated_Source\PSoC5/USBFS_std.c ****                     cur_ep = pEP->addr & USBFS_DIR_UNUSED;
 559:Generated_Source\PSoC5/USBFS_std.c ****                     epType = pEP->attributes & USBFS_EP_TYPE_MASK;
 560:Generated_Source\PSoC5/USBFS_std.c ****                     if (pEP->addr & USBFS_DIR_IN)
 561:Generated_Source\PSoC5/USBFS_std.c ****                     {
 562:Generated_Source\PSoC5/USBFS_std.c ****                         /* IN Endpoint */
 563:Generated_Source\PSoC5/USBFS_std.c ****                         USBFS_EP[cur_ep].apiEpState = USBFS_EVENT_PENDING;
 564:Generated_Source\PSoC5/USBFS_std.c ****                         USBFS_EP[cur_ep].epMode = (epType == USBFS_EP_TYPE_ISOC) ?
 565:Generated_Source\PSoC5/USBFS_std.c ****                                                         USBFS_MODE_ISO_IN : USBFS_MODE_ACK_IN;
 566:Generated_Source\PSoC5/USBFS_std.c ****                         #if defined(USBFS_ENABLE_CDC_CLASS)
ARM GAS  C:\Users\JOSANT~1\AppData\Local\Temp\cceoxjZy.s 			page 32


 567:Generated_Source\PSoC5/USBFS_std.c ****                             if(((pEP->bMisc == USBFS_CLASS_CDC_DATA) ||
 568:Generated_Source\PSoC5/USBFS_std.c ****                                 (pEP->bMisc == USBFS_CLASS_CDC)) &&
 569:Generated_Source\PSoC5/USBFS_std.c ****                                 (epType != USBFS_EP_TYPE_INT))
 570:Generated_Source\PSoC5/USBFS_std.c ****                             {
 571:Generated_Source\PSoC5/USBFS_std.c ****                                 USBFS_cdc_data_in_ep = cur_ep;
 572:Generated_Source\PSoC5/USBFS_std.c ****                             }
 573:Generated_Source\PSoC5/USBFS_std.c ****                         #endif  /*  USBFS_ENABLE_CDC_CLASS*/
 574:Generated_Source\PSoC5/USBFS_std.c ****                         #if ( defined(USBFS_ENABLE_MIDI_STREAMING) && \
 575:Generated_Source\PSoC5/USBFS_std.c ****                                              (USBFS_MIDI_IN_BUFF_SIZE > 0) )
 576:Generated_Source\PSoC5/USBFS_std.c ****                             if((pEP->bMisc == USBFS_CLASS_AUDIO) &&
 577:Generated_Source\PSoC5/USBFS_std.c ****                                (epType == USBFS_EP_TYPE_BULK))
 578:Generated_Source\PSoC5/USBFS_std.c ****                             {
 579:Generated_Source\PSoC5/USBFS_std.c ****                                 USBFS_midi_in_ep = cur_ep;
 580:Generated_Source\PSoC5/USBFS_std.c ****                             }
 581:Generated_Source\PSoC5/USBFS_std.c ****                         #endif  /*  USBFS_ENABLE_MIDI_STREAMING*/
 582:Generated_Source\PSoC5/USBFS_std.c ****                     }
 583:Generated_Source\PSoC5/USBFS_std.c ****                     else
 584:Generated_Source\PSoC5/USBFS_std.c ****                     {
 585:Generated_Source\PSoC5/USBFS_std.c ****                         /* OUT Endpoint */
 586:Generated_Source\PSoC5/USBFS_std.c ****                         USBFS_EP[cur_ep].apiEpState = USBFS_NO_EVENT_PENDING;
 587:Generated_Source\PSoC5/USBFS_std.c ****                         USBFS_EP[cur_ep].epMode = (epType == USBFS_EP_TYPE_ISOC) ?
 588:Generated_Source\PSoC5/USBFS_std.c ****                                                     USBFS_MODE_ISO_OUT : USBFS_MODE_ACK_OUT;
 589:Generated_Source\PSoC5/USBFS_std.c ****                         #if defined(USBFS_ENABLE_CDC_CLASS)
 590:Generated_Source\PSoC5/USBFS_std.c ****                             if(((pEP->bMisc == USBFS_CLASS_CDC_DATA) ||
 591:Generated_Source\PSoC5/USBFS_std.c ****                                 (pEP->bMisc == USBFS_CLASS_CDC)) &&
 592:Generated_Source\PSoC5/USBFS_std.c ****                                 (epType != USBFS_EP_TYPE_INT))
 593:Generated_Source\PSoC5/USBFS_std.c ****                             {
 594:Generated_Source\PSoC5/USBFS_std.c ****                                 USBFS_cdc_data_out_ep = cur_ep;
 595:Generated_Source\PSoC5/USBFS_std.c ****                             }
 596:Generated_Source\PSoC5/USBFS_std.c ****                         #endif  /*  USBFS_ENABLE_CDC_CLASS*/
 597:Generated_Source\PSoC5/USBFS_std.c ****                         #if ( defined(USBFS_ENABLE_MIDI_STREAMING) && \
 598:Generated_Source\PSoC5/USBFS_std.c ****                                      (USBFS_MIDI_OUT_BUFF_SIZE > 0) )
 599:Generated_Source\PSoC5/USBFS_std.c ****                             if((pEP->bMisc == USBFS_CLASS_AUDIO) &&
 600:Generated_Source\PSoC5/USBFS_std.c ****                                (epType == USBFS_EP_TYPE_BULK))
 601:Generated_Source\PSoC5/USBFS_std.c ****                             {
 602:Generated_Source\PSoC5/USBFS_std.c ****                                 USBFS_midi_out_ep = cur_ep;
 603:Generated_Source\PSoC5/USBFS_std.c ****                             }
 604:Generated_Source\PSoC5/USBFS_std.c ****                         #endif  /*  USBFS_ENABLE_MIDI_STREAMING*/
 605:Generated_Source\PSoC5/USBFS_std.c ****                     }
 606:Generated_Source\PSoC5/USBFS_std.c ****                     USBFS_EP[cur_ep].bufferSize = pEP->bufferSize;
 607:Generated_Source\PSoC5/USBFS_std.c ****                     USBFS_EP[cur_ep].addr = pEP->addr;
 608:Generated_Source\PSoC5/USBFS_std.c ****                     USBFS_EP[cur_ep].attrib = pEP->attributes;
 609:Generated_Source\PSoC5/USBFS_std.c ****                 }
 610:Generated_Source\PSoC5/USBFS_std.c ****                 pEP = &pEP[1u];
 611:Generated_Source\PSoC5/USBFS_std.c ****             }
 612:Generated_Source\PSoC5/USBFS_std.c ****         #else /* Configure for static EP memory allocation  */
 613:Generated_Source\PSoC5/USBFS_std.c ****             for (i = USBFS_EP1; i < USBFS_MAX_EP; i++)
 1139              		.loc 1 613 0
 1140 012a 0123     		movs	r3, #1
 1141 012c 7B77     		strb	r3, [r7, #29]
 1142 012e 90E0     		b	.L80
 1143              	.L91:
 614:Generated_Source\PSoC5/USBFS_std.c ****             {
 615:Generated_Source\PSoC5/USBFS_std.c ****                 /* p_list points the endpoint setting table. */
 616:Generated_Source\PSoC5/USBFS_std.c ****                 pEP = (const T_USBFS_EP_SETTINGS_BLOCK CYCODE *) pTmp->p_list;
 1144              		.loc 1 616 0
 1145 0130 3B69     		ldr	r3, [r7, #16]
ARM GAS  C:\Users\JOSANT~1\AppData\Local\Temp\cceoxjZy.s 			page 33


 1146 0132 5B68     		ldr	r3, [r3, #4]
 1147 0134 7B61     		str	r3, [r7, #20]
 617:Generated_Source\PSoC5/USBFS_std.c ****                 /* Find max length for each EP and select it (length could be different in differen
 618:Generated_Source\PSoC5/USBFS_std.c ****                 /* but other settings should be correct with regards to Interface alt Setting */
 619:Generated_Source\PSoC5/USBFS_std.c ****                 for (cur_ep = 0u; cur_ep < ep; cur_ep++)
 1148              		.loc 1 619 0
 1149 0136 0023     		movs	r3, #0
 1150 0138 BB77     		strb	r3, [r7, #30]
 1151 013a 82E0     		b	.L81
 1152              	.L90:
 620:Generated_Source\PSoC5/USBFS_std.c ****                 {
 621:Generated_Source\PSoC5/USBFS_std.c ****                     /* EP count is equal to EP # in table and we found larger EP length than have b
 622:Generated_Source\PSoC5/USBFS_std.c ****                     if(i == (pEP->addr & USBFS_DIR_UNUSED))
 1153              		.loc 1 622 0
 1154 013c 7A7F     		ldrb	r2, [r7, #29]	@ zero_extendqisi2
 1155 013e 7B69     		ldr	r3, [r7, #20]
 1156 0140 9B78     		ldrb	r3, [r3, #2]	@ zero_extendqisi2
 1157 0142 03F07F03 		and	r3, r3, #127
 1158 0146 9A42     		cmp	r2, r3
 1159 0148 75D1     		bne	.L82
 623:Generated_Source\PSoC5/USBFS_std.c ****                     {
 624:Generated_Source\PSoC5/USBFS_std.c ****                         if(USBFS_EP[i].bufferSize < pEP->bufferSize)
 1160              		.loc 1 624 0
 1161 014a 7A7F     		ldrb	r2, [r7, #29]	@ zero_extendqisi2
 1162 014c 5649     		ldr	r1, .L96
 1163 014e 1346     		mov	r3, r2
 1164 0150 5B00     		lsls	r3, r3, #1
 1165 0152 1344     		add	r3, r3, r2
 1166 0154 9B00     		lsls	r3, r3, #2
 1167 0156 0B44     		add	r3, r3, r1
 1168 0158 0833     		adds	r3, r3, #8
 1169 015a 1B88     		ldrh	r3, [r3]	@ movhi
 1170 015c 9AB2     		uxth	r2, r3
 1171 015e 7B69     		ldr	r3, [r7, #20]
 1172 0160 9B88     		ldrh	r3, [r3, #4]
 1173 0162 9A42     		cmp	r2, r3
 1174 0164 0BD2     		bcs	.L83
 625:Generated_Source\PSoC5/USBFS_std.c ****                         {
 626:Generated_Source\PSoC5/USBFS_std.c ****                             USBFS_EP[i].bufferSize = pEP->bufferSize;
 1175              		.loc 1 626 0
 1176 0166 7A7F     		ldrb	r2, [r7, #29]	@ zero_extendqisi2
 1177 0168 7B69     		ldr	r3, [r7, #20]
 1178 016a 9888     		ldrh	r0, [r3, #4]
 1179 016c 4E49     		ldr	r1, .L96
 1180 016e 1346     		mov	r3, r2
 1181 0170 5B00     		lsls	r3, r3, #1
 1182 0172 1344     		add	r3, r3, r2
 1183 0174 9B00     		lsls	r3, r3, #2
 1184 0176 0B44     		add	r3, r3, r1
 1185 0178 0833     		adds	r3, r3, #8
 1186 017a 0246     		mov	r2, r0	@ movhi
 1187 017c 1A80     		strh	r2, [r3]	@ movhi
 1188              	.L83:
 627:Generated_Source\PSoC5/USBFS_std.c ****                         }
 628:Generated_Source\PSoC5/USBFS_std.c ****                         /* Compare current Alternate setting with EP Alt*/
 629:Generated_Source\PSoC5/USBFS_std.c ****                         if(USBFS_interfaceSetting[pEP->interface] == pEP->altSetting)
 1189              		.loc 1 629 0
ARM GAS  C:\Users\JOSANT~1\AppData\Local\Temp\cceoxjZy.s 			page 34


 1190 017e 7B69     		ldr	r3, [r7, #20]
 1191 0180 1B78     		ldrb	r3, [r3]	@ zero_extendqisi2
 1192 0182 1A46     		mov	r2, r3
 1193 0184 494B     		ldr	r3, .L96+4
 1194 0186 9B5C     		ldrb	r3, [r3, r2]
 1195 0188 DAB2     		uxtb	r2, r3
 1196 018a 7B69     		ldr	r3, [r7, #20]
 1197 018c 5B78     		ldrb	r3, [r3, #1]	@ zero_extendqisi2
 1198 018e 9A42     		cmp	r2, r3
 1199 0190 51D1     		bne	.L82
 630:Generated_Source\PSoC5/USBFS_std.c ****                         {
 631:Generated_Source\PSoC5/USBFS_std.c ****                             epType = pEP->attributes & USBFS_EP_TYPE_MASK;
 1200              		.loc 1 631 0
 1201 0192 7B69     		ldr	r3, [r7, #20]
 1202 0194 DB78     		ldrb	r3, [r3, #3]	@ zero_extendqisi2
 1203 0196 03F00303 		and	r3, r3, #3
 1204 019a FB72     		strb	r3, [r7, #11]
 632:Generated_Source\PSoC5/USBFS_std.c ****                             if ((pEP->addr & USBFS_DIR_IN) != 0u)
 1205              		.loc 1 632 0
 1206 019c 7B69     		ldr	r3, [r7, #20]
 1207 019e 9B78     		ldrb	r3, [r3, #2]	@ zero_extendqisi2
 1208 01a0 DBB2     		uxtb	r3, r3
 1209 01a2 5BB2     		sxtb	r3, r3
 1210 01a4 002B     		cmp	r3, #0
 1211 01a6 18DA     		bge	.L84
 633:Generated_Source\PSoC5/USBFS_std.c ****                             {
 634:Generated_Source\PSoC5/USBFS_std.c ****                                 /* IN Endpoint */
 635:Generated_Source\PSoC5/USBFS_std.c ****                                 USBFS_EP[i].apiEpState = USBFS_EVENT_PENDING;
 1212              		.loc 1 635 0
 1213 01a8 7A7F     		ldrb	r2, [r7, #29]	@ zero_extendqisi2
 1214 01aa 3F49     		ldr	r1, .L96
 1215 01ac 1346     		mov	r3, r2
 1216 01ae 5B00     		lsls	r3, r3, #1
 1217 01b0 1344     		add	r3, r3, r2
 1218 01b2 9B00     		lsls	r3, r3, #2
 1219 01b4 0B44     		add	r3, r3, r1
 1220 01b6 0122     		movs	r2, #1
 1221 01b8 5A70     		strb	r2, [r3, #1]
 636:Generated_Source\PSoC5/USBFS_std.c ****                                 USBFS_EP[i].epMode = (epType == USBFS_EP_TYPE_ISOC) ?
 1222              		.loc 1 636 0
 1223 01ba 7A7F     		ldrb	r2, [r7, #29]	@ zero_extendqisi2
 1224 01bc FB7A     		ldrb	r3, [r7, #11]	@ zero_extendqisi2
 1225 01be 012B     		cmp	r3, #1
 1226 01c0 01D1     		bne	.L85
 1227              		.loc 1 636 0 is_stmt 0 discriminator 1
 1228 01c2 0720     		movs	r0, #7
 1229 01c4 00E0     		b	.L86
 1230              	.L85:
 1231              		.loc 1 636 0 discriminator 2
 1232 01c6 0D20     		movs	r0, #13
 1233              	.L86:
 1234              		.loc 1 636 0 discriminator 4
 1235 01c8 3749     		ldr	r1, .L96
 1236 01ca 1346     		mov	r3, r2
 1237 01cc 5B00     		lsls	r3, r3, #1
 1238 01ce 1344     		add	r3, r3, r2
 1239 01d0 9B00     		lsls	r3, r3, #2
ARM GAS  C:\Users\JOSANT~1\AppData\Local\Temp\cceoxjZy.s 			page 35


 1240 01d2 0B44     		add	r3, r3, r1
 1241 01d4 0246     		mov	r2, r0
 1242 01d6 5A71     		strb	r2, [r3, #5]
 1243 01d8 17E0     		b	.L87
 1244              	.L84:
 637:Generated_Source\PSoC5/USBFS_std.c ****                                                         USBFS_MODE_ISO_IN : USBFS_MODE_ACK_IN;
 638:Generated_Source\PSoC5/USBFS_std.c ****                                 /* Find and initialize CDC IN endpoint number */
 639:Generated_Source\PSoC5/USBFS_std.c ****                                 #if defined(USBFS_ENABLE_CDC_CLASS)
 640:Generated_Source\PSoC5/USBFS_std.c ****                                     if(((pEP->bMisc == USBFS_CLASS_CDC_DATA) ||
 641:Generated_Source\PSoC5/USBFS_std.c ****                                         (pEP->bMisc == USBFS_CLASS_CDC)) &&
 642:Generated_Source\PSoC5/USBFS_std.c ****                                         (epType != USBFS_EP_TYPE_INT))
 643:Generated_Source\PSoC5/USBFS_std.c ****                                     {
 644:Generated_Source\PSoC5/USBFS_std.c ****                                         USBFS_cdc_data_in_ep = i;
 645:Generated_Source\PSoC5/USBFS_std.c ****                                     }
 646:Generated_Source\PSoC5/USBFS_std.c ****                                 #endif  /*  USBFS_ENABLE_CDC_CLASS*/
 647:Generated_Source\PSoC5/USBFS_std.c ****                                 #if ( defined(USBFS_ENABLE_MIDI_STREAMING) && \
 648:Generated_Source\PSoC5/USBFS_std.c ****                                              (USBFS_MIDI_IN_BUFF_SIZE > 0) )
 649:Generated_Source\PSoC5/USBFS_std.c ****                                     if((pEP->bMisc == USBFS_CLASS_AUDIO) &&
 650:Generated_Source\PSoC5/USBFS_std.c ****                                        (epType == USBFS_EP_TYPE_BULK))
 651:Generated_Source\PSoC5/USBFS_std.c ****                                     {
 652:Generated_Source\PSoC5/USBFS_std.c ****                                         USBFS_midi_in_ep = i;
 653:Generated_Source\PSoC5/USBFS_std.c ****                                     }
 654:Generated_Source\PSoC5/USBFS_std.c ****                                 #endif  /*  USBFS_ENABLE_MIDI_STREAMING*/
 655:Generated_Source\PSoC5/USBFS_std.c ****                             }
 656:Generated_Source\PSoC5/USBFS_std.c ****                             else
 657:Generated_Source\PSoC5/USBFS_std.c ****                             {
 658:Generated_Source\PSoC5/USBFS_std.c ****                                 /* OUT Endpoint */
 659:Generated_Source\PSoC5/USBFS_std.c ****                                 USBFS_EP[i].apiEpState = USBFS_NO_EVENT_PENDING;
 1245              		.loc 1 659 0 is_stmt 1
 1246 01da 7A7F     		ldrb	r2, [r7, #29]	@ zero_extendqisi2
 1247 01dc 3249     		ldr	r1, .L96
 1248 01de 1346     		mov	r3, r2
 1249 01e0 5B00     		lsls	r3, r3, #1
 1250 01e2 1344     		add	r3, r3, r2
 1251 01e4 9B00     		lsls	r3, r3, #2
 1252 01e6 0B44     		add	r3, r3, r1
 1253 01e8 0022     		movs	r2, #0
 1254 01ea 5A70     		strb	r2, [r3, #1]
 660:Generated_Source\PSoC5/USBFS_std.c ****                                 USBFS_EP[i].epMode = (epType == USBFS_EP_TYPE_ISOC) ?
 1255              		.loc 1 660 0
 1256 01ec 7A7F     		ldrb	r2, [r7, #29]	@ zero_extendqisi2
 1257 01ee FB7A     		ldrb	r3, [r7, #11]	@ zero_extendqisi2
 1258 01f0 012B     		cmp	r3, #1
 1259 01f2 01D1     		bne	.L88
 1260              		.loc 1 660 0 is_stmt 0 discriminator 1
 1261 01f4 0520     		movs	r0, #5
 1262 01f6 00E0     		b	.L89
 1263              	.L88:
 1264              		.loc 1 660 0 discriminator 2
 1265 01f8 0920     		movs	r0, #9
 1266              	.L89:
 1267              		.loc 1 660 0 discriminator 4
 1268 01fa 2B49     		ldr	r1, .L96
 1269 01fc 1346     		mov	r3, r2
 1270 01fe 5B00     		lsls	r3, r3, #1
 1271 0200 1344     		add	r3, r3, r2
 1272 0202 9B00     		lsls	r3, r3, #2
ARM GAS  C:\Users\JOSANT~1\AppData\Local\Temp\cceoxjZy.s 			page 36


 1273 0204 0B44     		add	r3, r3, r1
 1274 0206 0246     		mov	r2, r0
 1275 0208 5A71     		strb	r2, [r3, #5]
 1276              	.L87:
 661:Generated_Source\PSoC5/USBFS_std.c ****                                                     USBFS_MODE_ISO_OUT : USBFS_MODE_ACK_OUT;
 662:Generated_Source\PSoC5/USBFS_std.c ****                                 /* Find and initialize CDC IN endpoint number */
 663:Generated_Source\PSoC5/USBFS_std.c ****                                 #if defined(USBFS_ENABLE_CDC_CLASS)
 664:Generated_Source\PSoC5/USBFS_std.c ****                                     if(((pEP->bMisc == USBFS_CLASS_CDC_DATA) ||
 665:Generated_Source\PSoC5/USBFS_std.c ****                                         (pEP->bMisc == USBFS_CLASS_CDC)) &&
 666:Generated_Source\PSoC5/USBFS_std.c ****                                         (epType != USBFS_EP_TYPE_INT))
 667:Generated_Source\PSoC5/USBFS_std.c ****                                     {
 668:Generated_Source\PSoC5/USBFS_std.c ****                                         USBFS_cdc_data_out_ep = i;
 669:Generated_Source\PSoC5/USBFS_std.c ****                                     }
 670:Generated_Source\PSoC5/USBFS_std.c ****                                 #endif  /*  USBFS_ENABLE_CDC_CLASS*/
 671:Generated_Source\PSoC5/USBFS_std.c ****                                 #if ( defined(USBFS_ENABLE_MIDI_STREAMING) && \
 672:Generated_Source\PSoC5/USBFS_std.c ****                                              (USBFS_MIDI_OUT_BUFF_SIZE > 0) )
 673:Generated_Source\PSoC5/USBFS_std.c ****                                     if((pEP->bMisc == USBFS_CLASS_AUDIO) &&
 674:Generated_Source\PSoC5/USBFS_std.c ****                                        (epType == USBFS_EP_TYPE_BULK))
 675:Generated_Source\PSoC5/USBFS_std.c ****                                     {
 676:Generated_Source\PSoC5/USBFS_std.c ****                                         USBFS_midi_out_ep = i;
 677:Generated_Source\PSoC5/USBFS_std.c ****                                     }
 678:Generated_Source\PSoC5/USBFS_std.c ****                                 #endif  /*  USBFS_ENABLE_MIDI_STREAMING*/
 679:Generated_Source\PSoC5/USBFS_std.c ****                             }
 680:Generated_Source\PSoC5/USBFS_std.c ****                             USBFS_EP[i].addr = pEP->addr;
 1277              		.loc 1 680 0 is_stmt 1
 1278 020a 7A7F     		ldrb	r2, [r7, #29]	@ zero_extendqisi2
 1279 020c 7B69     		ldr	r3, [r7, #20]
 1280 020e 9878     		ldrb	r0, [r3, #2]	@ zero_extendqisi2
 1281 0210 2549     		ldr	r1, .L96
 1282 0212 1346     		mov	r3, r2
 1283 0214 5B00     		lsls	r3, r3, #1
 1284 0216 1344     		add	r3, r3, r2
 1285 0218 9B00     		lsls	r3, r3, #2
 1286 021a 0B44     		add	r3, r3, r1
 1287 021c 0246     		mov	r2, r0
 1288 021e 1A71     		strb	r2, [r3, #4]
 681:Generated_Source\PSoC5/USBFS_std.c ****                             USBFS_EP[i].attrib = pEP->attributes;
 1289              		.loc 1 681 0
 1290 0220 7A7F     		ldrb	r2, [r7, #29]	@ zero_extendqisi2
 1291 0222 7B69     		ldr	r3, [r7, #20]
 1292 0224 D878     		ldrb	r0, [r3, #3]	@ zero_extendqisi2
 1293 0226 2049     		ldr	r1, .L96
 1294 0228 1346     		mov	r3, r2
 1295 022a 5B00     		lsls	r3, r3, #1
 1296 022c 1344     		add	r3, r3, r2
 1297 022e 9B00     		lsls	r3, r3, #2
 1298 0230 0B44     		add	r3, r3, r1
 1299 0232 0246     		mov	r2, r0
 1300 0234 1A70     		strb	r2, [r3]
 1301              	.L82:
 682:Generated_Source\PSoC5/USBFS_std.c **** 
 683:Generated_Source\PSoC5/USBFS_std.c ****                             #if(USBFS_EP_MM == USBFS__EP_DMAAUTO)
 684:Generated_Source\PSoC5/USBFS_std.c ****                                 break;      /* use first EP setting in Auto memory managment */
 685:Generated_Source\PSoC5/USBFS_std.c ****                             #endif /*  USBFS_EP_MM == USBFS__EP_DMAAUTO */
 686:Generated_Source\PSoC5/USBFS_std.c ****                         }
 687:Generated_Source\PSoC5/USBFS_std.c ****                     }
 688:Generated_Source\PSoC5/USBFS_std.c ****                     pEP = &pEP[1u];
ARM GAS  C:\Users\JOSANT~1\AppData\Local\Temp\cceoxjZy.s 			page 37


 1302              		.loc 1 688 0 discriminator 2
 1303 0236 7B69     		ldr	r3, [r7, #20]
 1304 0238 0833     		adds	r3, r3, #8
 1305 023a 7B61     		str	r3, [r7, #20]
 619:Generated_Source\PSoC5/USBFS_std.c ****                 {
 1306              		.loc 1 619 0 discriminator 2
 1307 023c BB7F     		ldrb	r3, [r7, #30]	@ zero_extendqisi2
 1308 023e 0133     		adds	r3, r3, #1
 1309 0240 BB77     		strb	r3, [r7, #30]
 1310              	.L81:
 619:Generated_Source\PSoC5/USBFS_std.c ****                 {
 1311              		.loc 1 619 0 is_stmt 0 discriminator 1
 1312 0242 BA7F     		ldrb	r2, [r7, #30]	@ zero_extendqisi2
 1313 0244 FB7F     		ldrb	r3, [r7, #31]	@ zero_extendqisi2
 1314 0246 9A42     		cmp	r2, r3
 1315 0248 FFF478AF 		bcc	.L90
 613:Generated_Source\PSoC5/USBFS_std.c ****             {
 1316              		.loc 1 613 0 is_stmt 1 discriminator 2
 1317 024c 7B7F     		ldrb	r3, [r7, #29]	@ zero_extendqisi2
 1318 024e 0133     		adds	r3, r3, #1
 1319 0250 7B77     		strb	r3, [r7, #29]
 1320              	.L80:
 613:Generated_Source\PSoC5/USBFS_std.c ****             {
 1321              		.loc 1 613 0 is_stmt 0 discriminator 1
 1322 0252 7B7F     		ldrb	r3, [r7, #29]	@ zero_extendqisi2
 1323 0254 082B     		cmp	r3, #8
 1324 0256 7FF66BAF 		bls	.L91
 689:Generated_Source\PSoC5/USBFS_std.c ****                 }
 690:Generated_Source\PSoC5/USBFS_std.c ****             }
 691:Generated_Source\PSoC5/USBFS_std.c ****         #endif /*  (USBFS_EP_MA == USBFS__MA_DYNAMIC) */
 692:Generated_Source\PSoC5/USBFS_std.c **** 
 693:Generated_Source\PSoC5/USBFS_std.c ****         /* Init class array for each interface and interface number for each EP.
 694:Generated_Source\PSoC5/USBFS_std.c ****         *  It is used for handling Class specific requests directed to either an
 695:Generated_Source\PSoC5/USBFS_std.c ****         *  interface or the endpoint.
 696:Generated_Source\PSoC5/USBFS_std.c ****         */
 697:Generated_Source\PSoC5/USBFS_std.c ****         /* p_list points the endpoint setting table. */
 698:Generated_Source\PSoC5/USBFS_std.c ****         pEP = (const T_USBFS_EP_SETTINGS_BLOCK CYCODE *) pTmp->p_list;
 1325              		.loc 1 698 0 is_stmt 1
 1326 025a 3B69     		ldr	r3, [r7, #16]
 1327 025c 5B68     		ldr	r3, [r3, #4]
 1328 025e 7B61     		str	r3, [r7, #20]
 699:Generated_Source\PSoC5/USBFS_std.c ****         for (i = 0u; i < ep; i++)
 1329              		.loc 1 699 0
 1330 0260 0023     		movs	r3, #0
 1331 0262 7B77     		strb	r3, [r7, #29]
 1332 0264 14E0     		b	.L92
 1333              	.L93:
 700:Generated_Source\PSoC5/USBFS_std.c ****         {
 701:Generated_Source\PSoC5/USBFS_std.c ****             /* Configure interface number for each EP*/
 702:Generated_Source\PSoC5/USBFS_std.c ****             USBFS_EP[pEP->addr & USBFS_DIR_UNUSED].interface = pEP->interface;
 1334              		.loc 1 702 0 discriminator 3
 1335 0266 7B69     		ldr	r3, [r7, #20]
 1336 0268 9B78     		ldrb	r3, [r3, #2]	@ zero_extendqisi2
 1337 026a 03F07F02 		and	r2, r3, #127
 1338 026e 7B69     		ldr	r3, [r7, #20]
 1339 0270 1878     		ldrb	r0, [r3]	@ zero_extendqisi2
 1340 0272 0D49     		ldr	r1, .L96
ARM GAS  C:\Users\JOSANT~1\AppData\Local\Temp\cceoxjZy.s 			page 38


 1341 0274 1346     		mov	r3, r2
 1342 0276 5B00     		lsls	r3, r3, #1
 1343 0278 1344     		add	r3, r3, r2
 1344 027a 9B00     		lsls	r3, r3, #2
 1345 027c 0B44     		add	r3, r3, r1
 1346 027e 0833     		adds	r3, r3, #8
 1347 0280 0246     		mov	r2, r0
 1348 0282 9A70     		strb	r2, [r3, #2]
 703:Generated_Source\PSoC5/USBFS_std.c ****             pEP = &pEP[1u];
 1349              		.loc 1 703 0 discriminator 3
 1350 0284 7B69     		ldr	r3, [r7, #20]
 1351 0286 0833     		adds	r3, r3, #8
 1352 0288 7B61     		str	r3, [r7, #20]
 699:Generated_Source\PSoC5/USBFS_std.c ****         for (i = 0u; i < ep; i++)
 1353              		.loc 1 699 0 discriminator 3
 1354 028a 7B7F     		ldrb	r3, [r7, #29]	@ zero_extendqisi2
 1355 028c 0133     		adds	r3, r3, #1
 1356 028e 7B77     		strb	r3, [r7, #29]
 1357              	.L92:
 699:Generated_Source\PSoC5/USBFS_std.c ****         for (i = 0u; i < ep; i++)
 1358              		.loc 1 699 0 is_stmt 0 discriminator 1
 1359 0290 7A7F     		ldrb	r2, [r7, #29]	@ zero_extendqisi2
 1360 0292 FB7F     		ldrb	r3, [r7, #31]	@ zero_extendqisi2
 1361 0294 9A42     		cmp	r2, r3
 1362 0296 E6D3     		bcc	.L93
 704:Generated_Source\PSoC5/USBFS_std.c ****         }
 705:Generated_Source\PSoC5/USBFS_std.c ****         /* Init pointer on interface class table*/
 706:Generated_Source\PSoC5/USBFS_std.c ****         USBFS_interfaceClass = USBFS_GetInterfaceClassTablePtr();
 1363              		.loc 1 706 0 is_stmt 1
 1364 0298 FFF7FEFF 		bl	USBFS_GetInterfaceClassTablePtr
 1365 029c 0246     		mov	r2, r0
 1366 029e 074B     		ldr	r3, .L96+20
 1367 02a0 1A60     		str	r2, [r3]
 707:Generated_Source\PSoC5/USBFS_std.c ****         /* Set the endpoint buffer addresses */
 708:Generated_Source\PSoC5/USBFS_std.c **** 
 709:Generated_Source\PSoC5/USBFS_std.c ****         #if(USBFS_EP_MM != USBFS__EP_DMAAUTO)
 710:Generated_Source\PSoC5/USBFS_std.c ****             for (ep = USBFS_EP1; ep < USBFS_MAX_EP; ep++)
 1368              		.loc 1 710 0
 1369 02a2 0123     		movs	r3, #1
 1370 02a4 FB77     		strb	r3, [r7, #31]
 1371 02a6 24E0     		b	.L94
 1372              	.L97:
 1373              		.align	2
 1374              	.L96:
 1375 02a8 00000000 		.word	USBFS_EP
 1376 02ac 00000000 		.word	USBFS_interfaceSetting
 1377 02b0 00000000 		.word	USBFS_interfaceSetting_last
 1378 02b4 00000000 		.word	USBFS_configuration
 1379 02b8 00000000 		.word	USBFS_deviceStatus
 1380 02bc 00000000 		.word	USBFS_interfaceClass
 1381              	.L95:
 711:Generated_Source\PSoC5/USBFS_std.c ****             {
 712:Generated_Source\PSoC5/USBFS_std.c ****                 USBFS_EP[ep].buffOffset = buffCount;
 1382              		.loc 1 712 0 discriminator 3
 1383 02c0 FA7F     		ldrb	r2, [r7, #31]	@ zero_extendqisi2
 1384 02c2 1049     		ldr	r1, .L98
 1385 02c4 1346     		mov	r3, r2
ARM GAS  C:\Users\JOSANT~1\AppData\Local\Temp\cceoxjZy.s 			page 39


 1386 02c6 5B00     		lsls	r3, r3, #1
 1387 02c8 1344     		add	r3, r3, r2
 1388 02ca 9B00     		lsls	r3, r3, #2
 1389 02cc 0B44     		add	r3, r3, r1
 1390 02ce 7A8B     		ldrh	r2, [r7, #26]	@ movhi
 1391 02d0 DA80     		strh	r2, [r3, #6]	@ movhi
 713:Generated_Source\PSoC5/USBFS_std.c ****                  buffCount += USBFS_EP[ep].bufferSize;
 1392              		.loc 1 713 0 discriminator 3
 1393 02d2 FA7F     		ldrb	r2, [r7, #31]	@ zero_extendqisi2
 1394 02d4 0B49     		ldr	r1, .L98
 1395 02d6 1346     		mov	r3, r2
 1396 02d8 5B00     		lsls	r3, r3, #1
 1397 02da 1344     		add	r3, r3, r2
 1398 02dc 9B00     		lsls	r3, r3, #2
 1399 02de 0B44     		add	r3, r3, r1
 1400 02e0 0833     		adds	r3, r3, #8
 1401 02e2 1B88     		ldrh	r3, [r3]	@ movhi
 1402 02e4 9AB2     		uxth	r2, r3
 1403 02e6 7B8B     		ldrh	r3, [r7, #26]	@ movhi
 1404 02e8 1344     		add	r3, r3, r2
 1405 02ea 7B83     		strh	r3, [r7, #26]	@ movhi
 710:Generated_Source\PSoC5/USBFS_std.c ****             {
 1406              		.loc 1 710 0 discriminator 3
 1407 02ec FB7F     		ldrb	r3, [r7, #31]	@ zero_extendqisi2
 1408 02ee 0133     		adds	r3, r3, #1
 1409 02f0 FB77     		strb	r3, [r7, #31]
 1410              	.L94:
 710:Generated_Source\PSoC5/USBFS_std.c ****             {
 1411              		.loc 1 710 0 is_stmt 0 discriminator 1
 1412 02f2 FB7F     		ldrb	r3, [r7, #31]	@ zero_extendqisi2
 1413 02f4 082B     		cmp	r3, #8
 1414 02f6 E3D9     		bls	.L95
 714:Generated_Source\PSoC5/USBFS_std.c ****             }
 715:Generated_Source\PSoC5/USBFS_std.c ****         #endif /*  USBFS_EP_MM != USBFS__EP_DMAAUTO */
 716:Generated_Source\PSoC5/USBFS_std.c **** 
 717:Generated_Source\PSoC5/USBFS_std.c ****         /* Configure hardware registers */
 718:Generated_Source\PSoC5/USBFS_std.c ****         USBFS_ConfigReg();
 1415              		.loc 1 718 0 is_stmt 1
 1416 02f8 FFF7FEFF 		bl	USBFS_ConfigReg
 1417              	.L71:
 719:Generated_Source\PSoC5/USBFS_std.c ****     } /* USBFS_configuration > 0 */
 720:Generated_Source\PSoC5/USBFS_std.c **** }
 1418              		.loc 1 720 0
 1419 02fc 2037     		adds	r7, r7, #32
 1420              		.cfi_def_cfa_offset 8
 1421 02fe BD46     		mov	sp, r7
 1422              		.cfi_def_cfa_register 13
 1423              		@ sp needed
 1424 0300 80BD     		pop	{r7, pc}
 1425              	.L99:
 1426 0302 00BF     		.align	2
 1427              	.L98:
 1428 0304 00000000 		.word	USBFS_EP
 1429              		.cfi_endproc
 1430              	.LFE2:
 1431              		.size	USBFS_Config, .-USBFS_Config
 1432              		.section	.text.USBFS_ConfigAltChanged,"ax",%progbits
ARM GAS  C:\Users\JOSANT~1\AppData\Local\Temp\cceoxjZy.s 			page 40


 1433              		.align	2
 1434              		.global	USBFS_ConfigAltChanged
 1435              		.thumb
 1436              		.thumb_func
 1437              		.type	USBFS_ConfigAltChanged, %function
 1438              	USBFS_ConfigAltChanged:
 1439              	.LFB3:
 721:Generated_Source\PSoC5/USBFS_std.c **** 
 722:Generated_Source\PSoC5/USBFS_std.c **** 
 723:Generated_Source\PSoC5/USBFS_std.c **** /*******************************************************************************
 724:Generated_Source\PSoC5/USBFS_std.c **** * Function Name: USBFS_ConfigAltChanged
 725:Generated_Source\PSoC5/USBFS_std.c **** ********************************************************************************
 726:Generated_Source\PSoC5/USBFS_std.c **** *
 727:Generated_Source\PSoC5/USBFS_std.c **** * Summary:
 728:Generated_Source\PSoC5/USBFS_std.c **** *  This routine update configuration for the required endpoints only.
 729:Generated_Source\PSoC5/USBFS_std.c **** *  It is called after SET_INTERFACE request when Static memory allocation used.
 730:Generated_Source\PSoC5/USBFS_std.c **** *
 731:Generated_Source\PSoC5/USBFS_std.c **** * Parameters:
 732:Generated_Source\PSoC5/USBFS_std.c **** *  None.
 733:Generated_Source\PSoC5/USBFS_std.c **** *
 734:Generated_Source\PSoC5/USBFS_std.c **** * Return:
 735:Generated_Source\PSoC5/USBFS_std.c **** *  None.
 736:Generated_Source\PSoC5/USBFS_std.c **** *
 737:Generated_Source\PSoC5/USBFS_std.c **** * Reentrant:
 738:Generated_Source\PSoC5/USBFS_std.c **** *  No.
 739:Generated_Source\PSoC5/USBFS_std.c **** *
 740:Generated_Source\PSoC5/USBFS_std.c **** *******************************************************************************/
 741:Generated_Source\PSoC5/USBFS_std.c **** void USBFS_ConfigAltChanged(void) 
 742:Generated_Source\PSoC5/USBFS_std.c **** {
 1440              		.loc 1 742 0
 1441              		.cfi_startproc
 1442              		@ args = 0, pretend = 0, frame = 16
 1443              		@ frame_needed = 1, uses_anonymous_args = 0
 1444 0000 80B5     		push	{r7, lr}
 1445              		.cfi_def_cfa_offset 8
 1446              		.cfi_offset 7, -8
 1447              		.cfi_offset 14, -4
 1448 0002 84B0     		sub	sp, sp, #16
 1449              		.cfi_def_cfa_offset 24
 1450 0004 00AF     		add	r7, sp, #0
 1451              		.cfi_def_cfa_register 7
 743:Generated_Source\PSoC5/USBFS_std.c ****     uint8 ep;
 744:Generated_Source\PSoC5/USBFS_std.c ****     uint8 cur_ep;
 745:Generated_Source\PSoC5/USBFS_std.c ****     uint8 i;
 746:Generated_Source\PSoC5/USBFS_std.c ****     uint8 epType;
 747:Generated_Source\PSoC5/USBFS_std.c ****     uint8 ri;
 748:Generated_Source\PSoC5/USBFS_std.c **** 
 749:Generated_Source\PSoC5/USBFS_std.c ****     const T_USBFS_LUT CYCODE *pTmp;
 750:Generated_Source\PSoC5/USBFS_std.c ****     const T_USBFS_EP_SETTINGS_BLOCK CYCODE *pEP;
 751:Generated_Source\PSoC5/USBFS_std.c **** 
 752:Generated_Source\PSoC5/USBFS_std.c **** 
 753:Generated_Source\PSoC5/USBFS_std.c ****     /* Init Endpoints and Device Status if configured */
 754:Generated_Source\PSoC5/USBFS_std.c ****     if(USBFS_configuration > 0u)
 1452              		.loc 1 754 0
 1453 0006 914B     		ldr	r3, .L111
 1454 0008 1B78     		ldrb	r3, [r3]
 1455 000a DBB2     		uxtb	r3, r3
ARM GAS  C:\Users\JOSANT~1\AppData\Local\Temp\cceoxjZy.s 			page 41


 1456 000c 002B     		cmp	r3, #0
 1457 000e 00F01A81 		beq	.L100
 755:Generated_Source\PSoC5/USBFS_std.c ****     {
 756:Generated_Source\PSoC5/USBFS_std.c ****         pTmp = USBFS_GetConfigTablePtr(USBFS_configuration - 1u);
 1458              		.loc 1 756 0
 1459 0012 8E4B     		ldr	r3, .L111
 1460 0014 1B78     		ldrb	r3, [r3]
 1461 0016 DBB2     		uxtb	r3, r3
 1462 0018 013B     		subs	r3, r3, #1
 1463 001a DBB2     		uxtb	r3, r3
 1464 001c 1846     		mov	r0, r3
 1465 001e FFF7FEFF 		bl	USBFS_GetConfigTablePtr
 1466 0022 7860     		str	r0, [r7, #4]
 757:Generated_Source\PSoC5/USBFS_std.c ****         pTmp = &pTmp[1u];
 1467              		.loc 1 757 0
 1468 0024 7B68     		ldr	r3, [r7, #4]
 1469 0026 0833     		adds	r3, r3, #8
 1470 0028 7B60     		str	r3, [r7, #4]
 758:Generated_Source\PSoC5/USBFS_std.c ****         ep = pTmp->c;  /* For this table, c is the number of endpoints configurations  */
 1471              		.loc 1 758 0
 1472 002a 7B68     		ldr	r3, [r7, #4]
 1473 002c 1B78     		ldrb	r3, [r3]
 1474 002e FB70     		strb	r3, [r7, #3]
 759:Generated_Source\PSoC5/USBFS_std.c **** 
 760:Generated_Source\PSoC5/USBFS_std.c ****         /* Do not touch EP which doesn't need reconfiguration */
 761:Generated_Source\PSoC5/USBFS_std.c ****         /* When Alt setting changed, the only required endpoints need to be reconfigured */
 762:Generated_Source\PSoC5/USBFS_std.c ****         /* p_list points the endpoint setting table. */
 763:Generated_Source\PSoC5/USBFS_std.c ****         pEP = (const T_USBFS_EP_SETTINGS_BLOCK CYCODE *) pTmp->p_list;
 1475              		.loc 1 763 0
 1476 0030 7B68     		ldr	r3, [r7, #4]
 1477 0032 5B68     		ldr	r3, [r3, #4]
 1478 0034 BB60     		str	r3, [r7, #8]
 764:Generated_Source\PSoC5/USBFS_std.c ****         for (i = 0u; i < ep; i++)
 1479              		.loc 1 764 0
 1480 0036 0023     		movs	r3, #0
 1481 0038 FB73     		strb	r3, [r7, #15]
 1482 003a FFE0     		b	.L102
 1483              	.L110:
 765:Generated_Source\PSoC5/USBFS_std.c ****         {
 766:Generated_Source\PSoC5/USBFS_std.c ****             /*If Alt setting changed and new is same with EP Alt */
 767:Generated_Source\PSoC5/USBFS_std.c ****             if((USBFS_interfaceSetting[pEP->interface] !=
 1484              		.loc 1 767 0
 1485 003c BB68     		ldr	r3, [r7, #8]
 1486 003e 1B78     		ldrb	r3, [r3]	@ zero_extendqisi2
 1487 0040 1A46     		mov	r2, r3
 1488 0042 834B     		ldr	r3, .L111+4
 1489 0044 9B5C     		ldrb	r3, [r3, r2]
 1490 0046 DAB2     		uxtb	r2, r3
 768:Generated_Source\PSoC5/USBFS_std.c ****                 USBFS_interfaceSetting_last[pEP->interface] ) &&
 1491              		.loc 1 768 0
 1492 0048 BB68     		ldr	r3, [r7, #8]
 1493 004a 1B78     		ldrb	r3, [r3]	@ zero_extendqisi2
 1494 004c 1946     		mov	r1, r3
 1495 004e 814B     		ldr	r3, .L111+8
 1496 0050 5B5C     		ldrb	r3, [r3, r1]
 1497 0052 DBB2     		uxtb	r3, r3
 767:Generated_Source\PSoC5/USBFS_std.c ****                 USBFS_interfaceSetting_last[pEP->interface] ) &&
ARM GAS  C:\Users\JOSANT~1\AppData\Local\Temp\cceoxjZy.s 			page 42


 1498              		.loc 1 767 0
 1499 0054 9A42     		cmp	r2, r3
 1500 0056 00F0EB80 		beq	.L103
 769:Generated_Source\PSoC5/USBFS_std.c ****                (USBFS_interfaceSetting[pEP->interface] == pEP->altSetting) &&
 1501              		.loc 1 769 0
 1502 005a BB68     		ldr	r3, [r7, #8]
 1503 005c 1B78     		ldrb	r3, [r3]	@ zero_extendqisi2
 1504 005e 1A46     		mov	r2, r3
 1505 0060 7B4B     		ldr	r3, .L111+4
 1506 0062 9B5C     		ldrb	r3, [r3, r2]
 1507 0064 DAB2     		uxtb	r2, r3
 1508 0066 BB68     		ldr	r3, [r7, #8]
 1509 0068 5B78     		ldrb	r3, [r3, #1]	@ zero_extendqisi2
 768:Generated_Source\PSoC5/USBFS_std.c ****                 USBFS_interfaceSetting_last[pEP->interface] ) &&
 1510              		.loc 1 768 0
 1511 006a 9A42     		cmp	r2, r3
 1512 006c 40F0E080 		bne	.L103
 770:Generated_Source\PSoC5/USBFS_std.c ****                (pEP->interface == CY_GET_REG8(USBFS_wIndexLo)))
 1513              		.loc 1 770 0
 1514 0070 BB68     		ldr	r3, [r7, #8]
 1515 0072 1A78     		ldrb	r2, [r3]	@ zero_extendqisi2
 1516 0074 784B     		ldr	r3, .L111+12
 1517 0076 1B78     		ldrb	r3, [r3]
 1518 0078 DBB2     		uxtb	r3, r3
 769:Generated_Source\PSoC5/USBFS_std.c ****                (USBFS_interfaceSetting[pEP->interface] == pEP->altSetting) &&
 1519              		.loc 1 769 0
 1520 007a 9A42     		cmp	r2, r3
 1521 007c 40F0D880 		bne	.L103
 771:Generated_Source\PSoC5/USBFS_std.c ****             {
 772:Generated_Source\PSoC5/USBFS_std.c ****                 cur_ep = pEP->addr & USBFS_DIR_UNUSED;
 1522              		.loc 1 772 0
 1523 0080 BB68     		ldr	r3, [r7, #8]
 1524 0082 9B78     		ldrb	r3, [r3, #2]	@ zero_extendqisi2
 1525 0084 03F07F03 		and	r3, r3, #127
 1526 0088 BB70     		strb	r3, [r7, #2]
 773:Generated_Source\PSoC5/USBFS_std.c ****                 ri = ((cur_ep - USBFS_EP1) << USBFS_EPX_CNTX_ADDR_SHIFT);
 1527              		.loc 1 773 0
 1528 008a BB78     		ldrb	r3, [r7, #2]
 1529 008c 013B     		subs	r3, r3, #1
 1530 008e DBB2     		uxtb	r3, r3
 1531 0090 1B01     		lsls	r3, r3, #4
 1532 0092 7B70     		strb	r3, [r7, #1]
 774:Generated_Source\PSoC5/USBFS_std.c ****                 epType = pEP->attributes & USBFS_EP_TYPE_MASK;
 1533              		.loc 1 774 0
 1534 0094 BB68     		ldr	r3, [r7, #8]
 1535 0096 DB78     		ldrb	r3, [r3, #3]	@ zero_extendqisi2
 1536 0098 03F00303 		and	r3, r3, #3
 1537 009c 3B70     		strb	r3, [r7]
 775:Generated_Source\PSoC5/USBFS_std.c ****                 if ((pEP->addr & USBFS_DIR_IN) != 0u)
 1538              		.loc 1 775 0
 1539 009e BB68     		ldr	r3, [r7, #8]
 1540 00a0 9B78     		ldrb	r3, [r3, #2]	@ zero_extendqisi2
 1541 00a2 DBB2     		uxtb	r3, r3
 1542 00a4 5BB2     		sxtb	r3, r3
 1543 00a6 002B     		cmp	r3, #0
 1544 00a8 18DA     		bge	.L104
 776:Generated_Source\PSoC5/USBFS_std.c ****                 {
ARM GAS  C:\Users\JOSANT~1\AppData\Local\Temp\cceoxjZy.s 			page 43


 777:Generated_Source\PSoC5/USBFS_std.c ****                     /* IN Endpoint */
 778:Generated_Source\PSoC5/USBFS_std.c ****                     USBFS_EP[cur_ep].apiEpState = USBFS_EVENT_PENDING;
 1545              		.loc 1 778 0
 1546 00aa BA78     		ldrb	r2, [r7, #2]	@ zero_extendqisi2
 1547 00ac 6B49     		ldr	r1, .L111+16
 1548 00ae 1346     		mov	r3, r2
 1549 00b0 5B00     		lsls	r3, r3, #1
 1550 00b2 1344     		add	r3, r3, r2
 1551 00b4 9B00     		lsls	r3, r3, #2
 1552 00b6 0B44     		add	r3, r3, r1
 1553 00b8 0122     		movs	r2, #1
 1554 00ba 5A70     		strb	r2, [r3, #1]
 779:Generated_Source\PSoC5/USBFS_std.c ****                     USBFS_EP[cur_ep].epMode = (epType == USBFS_EP_TYPE_ISOC) ?
 1555              		.loc 1 779 0
 1556 00bc BA78     		ldrb	r2, [r7, #2]	@ zero_extendqisi2
 1557 00be 3B78     		ldrb	r3, [r7]	@ zero_extendqisi2
 1558 00c0 012B     		cmp	r3, #1
 1559 00c2 01D1     		bne	.L105
 1560              		.loc 1 779 0 is_stmt 0 discriminator 1
 1561 00c4 0720     		movs	r0, #7
 1562 00c6 00E0     		b	.L106
 1563              	.L105:
 1564              		.loc 1 779 0 discriminator 2
 1565 00c8 0D20     		movs	r0, #13
 1566              	.L106:
 1567              		.loc 1 779 0 discriminator 4
 1568 00ca 6449     		ldr	r1, .L111+16
 1569 00cc 1346     		mov	r3, r2
 1570 00ce 5B00     		lsls	r3, r3, #1
 1571 00d0 1344     		add	r3, r3, r2
 1572 00d2 9B00     		lsls	r3, r3, #2
 1573 00d4 0B44     		add	r3, r3, r1
 1574 00d6 0246     		mov	r2, r0
 1575 00d8 5A71     		strb	r2, [r3, #5]
 1576 00da 17E0     		b	.L107
 1577              	.L104:
 780:Generated_Source\PSoC5/USBFS_std.c ****                                                 USBFS_MODE_ISO_IN : USBFS_MODE_ACK_IN;
 781:Generated_Source\PSoC5/USBFS_std.c ****                 }
 782:Generated_Source\PSoC5/USBFS_std.c ****                 else
 783:Generated_Source\PSoC5/USBFS_std.c ****                 {
 784:Generated_Source\PSoC5/USBFS_std.c ****                     /* OUT Endpoint */
 785:Generated_Source\PSoC5/USBFS_std.c ****                     USBFS_EP[cur_ep].apiEpState = USBFS_NO_EVENT_PENDING;
 1578              		.loc 1 785 0 is_stmt 1
 1579 00dc BA78     		ldrb	r2, [r7, #2]	@ zero_extendqisi2
 1580 00de 5F49     		ldr	r1, .L111+16
 1581 00e0 1346     		mov	r3, r2
 1582 00e2 5B00     		lsls	r3, r3, #1
 1583 00e4 1344     		add	r3, r3, r2
 1584 00e6 9B00     		lsls	r3, r3, #2
 1585 00e8 0B44     		add	r3, r3, r1
 1586 00ea 0022     		movs	r2, #0
 1587 00ec 5A70     		strb	r2, [r3, #1]
 786:Generated_Source\PSoC5/USBFS_std.c ****                     USBFS_EP[cur_ep].epMode = (epType == USBFS_EP_TYPE_ISOC) ?
 1588              		.loc 1 786 0
 1589 00ee BA78     		ldrb	r2, [r7, #2]	@ zero_extendqisi2
 1590 00f0 3B78     		ldrb	r3, [r7]	@ zero_extendqisi2
 1591 00f2 012B     		cmp	r3, #1
ARM GAS  C:\Users\JOSANT~1\AppData\Local\Temp\cceoxjZy.s 			page 44


 1592 00f4 01D1     		bne	.L108
 1593              		.loc 1 786 0 is_stmt 0 discriminator 1
 1594 00f6 0520     		movs	r0, #5
 1595 00f8 00E0     		b	.L109
 1596              	.L108:
 1597              		.loc 1 786 0 discriminator 2
 1598 00fa 0920     		movs	r0, #9
 1599              	.L109:
 1600              		.loc 1 786 0 discriminator 4
 1601 00fc 5749     		ldr	r1, .L111+16
 1602 00fe 1346     		mov	r3, r2
 1603 0100 5B00     		lsls	r3, r3, #1
 1604 0102 1344     		add	r3, r3, r2
 1605 0104 9B00     		lsls	r3, r3, #2
 1606 0106 0B44     		add	r3, r3, r1
 1607 0108 0246     		mov	r2, r0
 1608 010a 5A71     		strb	r2, [r3, #5]
 1609              	.L107:
 787:Generated_Source\PSoC5/USBFS_std.c ****                                                 USBFS_MODE_ISO_OUT : USBFS_MODE_ACK_OUT;
 788:Generated_Source\PSoC5/USBFS_std.c ****                 }
 789:Generated_Source\PSoC5/USBFS_std.c ****                  /* Change the SIE mode for the selected EP to NAK ALL */
 790:Generated_Source\PSoC5/USBFS_std.c ****                  CY_SET_REG8((reg8 *)(USBFS_SIE_EP1_CR0_IND + ri), USBFS_MODE_NAK_IN_OUT);
 1610              		.loc 1 790 0 is_stmt 1
 1611 010c 7A78     		ldrb	r2, [r7, #1]	@ zero_extendqisi2
 1612 010e 544B     		ldr	r3, .L111+20
 1613 0110 1344     		add	r3, r3, r2
 1614 0112 0122     		movs	r2, #1
 1615 0114 1A70     		strb	r2, [r3]
 791:Generated_Source\PSoC5/USBFS_std.c ****                 USBFS_EP[cur_ep].bufferSize = pEP->bufferSize;
 1616              		.loc 1 791 0
 1617 0116 BA78     		ldrb	r2, [r7, #2]	@ zero_extendqisi2
 1618 0118 BB68     		ldr	r3, [r7, #8]
 1619 011a 9888     		ldrh	r0, [r3, #4]
 1620 011c 4F49     		ldr	r1, .L111+16
 1621 011e 1346     		mov	r3, r2
 1622 0120 5B00     		lsls	r3, r3, #1
 1623 0122 1344     		add	r3, r3, r2
 1624 0124 9B00     		lsls	r3, r3, #2
 1625 0126 0B44     		add	r3, r3, r1
 1626 0128 0833     		adds	r3, r3, #8
 1627 012a 0246     		mov	r2, r0	@ movhi
 1628 012c 1A80     		strh	r2, [r3]	@ movhi
 792:Generated_Source\PSoC5/USBFS_std.c ****                 USBFS_EP[cur_ep].addr = pEP->addr;
 1629              		.loc 1 792 0
 1630 012e BA78     		ldrb	r2, [r7, #2]	@ zero_extendqisi2
 1631 0130 BB68     		ldr	r3, [r7, #8]
 1632 0132 9878     		ldrb	r0, [r3, #2]	@ zero_extendqisi2
 1633 0134 4949     		ldr	r1, .L111+16
 1634 0136 1346     		mov	r3, r2
 1635 0138 5B00     		lsls	r3, r3, #1
 1636 013a 1344     		add	r3, r3, r2
 1637 013c 9B00     		lsls	r3, r3, #2
 1638 013e 0B44     		add	r3, r3, r1
 1639 0140 0246     		mov	r2, r0
 1640 0142 1A71     		strb	r2, [r3, #4]
 793:Generated_Source\PSoC5/USBFS_std.c ****                 USBFS_EP[cur_ep].attrib = pEP->attributes;
 1641              		.loc 1 793 0
ARM GAS  C:\Users\JOSANT~1\AppData\Local\Temp\cceoxjZy.s 			page 45


 1642 0144 BA78     		ldrb	r2, [r7, #2]	@ zero_extendqisi2
 1643 0146 BB68     		ldr	r3, [r7, #8]
 1644 0148 D878     		ldrb	r0, [r3, #3]	@ zero_extendqisi2
 1645 014a 4449     		ldr	r1, .L111+16
 1646 014c 1346     		mov	r3, r2
 1647 014e 5B00     		lsls	r3, r3, #1
 1648 0150 1344     		add	r3, r3, r2
 1649 0152 9B00     		lsls	r3, r3, #2
 1650 0154 0B44     		add	r3, r3, r1
 1651 0156 0246     		mov	r2, r0
 1652 0158 1A70     		strb	r2, [r3]
 794:Generated_Source\PSoC5/USBFS_std.c **** 
 795:Generated_Source\PSoC5/USBFS_std.c ****                 /* Clear the data toggle */
 796:Generated_Source\PSoC5/USBFS_std.c ****                 USBFS_EP[cur_ep].epToggle = 0u;
 1653              		.loc 1 796 0
 1654 015a BA78     		ldrb	r2, [r7, #2]	@ zero_extendqisi2
 1655 015c 3F49     		ldr	r1, .L111+16
 1656 015e 1346     		mov	r3, r2
 1657 0160 5B00     		lsls	r3, r3, #1
 1658 0162 1344     		add	r3, r3, r2
 1659 0164 9B00     		lsls	r3, r3, #2
 1660 0166 0B44     		add	r3, r3, r1
 1661 0168 0022     		movs	r2, #0
 1662 016a DA70     		strb	r2, [r3, #3]
 797:Generated_Source\PSoC5/USBFS_std.c **** 
 798:Generated_Source\PSoC5/USBFS_std.c ****                 /* Dynamic reconfiguration for mode 3 transfer */
 799:Generated_Source\PSoC5/USBFS_std.c ****             #if(USBFS_EP_MM == USBFS__EP_DMAAUTO)
 800:Generated_Source\PSoC5/USBFS_std.c ****                 /* In_data_rdy for selected EP should be set to 0 */
 801:Generated_Source\PSoC5/USBFS_std.c ****                 * (reg8 *)(USBFS_ARB_EP1_CFG_IND + ri) &= (uint8)~USBFS_ARB_EPX_CFG_IN_DATA_RDY;
 802:Generated_Source\PSoC5/USBFS_std.c **** 
 803:Generated_Source\PSoC5/USBFS_std.c ****                 /* write the EP number for which reconfiguration is required */
 804:Generated_Source\PSoC5/USBFS_std.c ****                 USBFS_DYN_RECONFIG_REG = (cur_ep - USBFS_EP1) <<
 805:Generated_Source\PSoC5/USBFS_std.c ****                                                     USBFS_DYN_RECONFIG_EP_SHIFT;
 806:Generated_Source\PSoC5/USBFS_std.c ****                 /* Set the dyn_config_en bit in dynamic reconfiguration register */
 807:Generated_Source\PSoC5/USBFS_std.c ****                 USBFS_DYN_RECONFIG_REG |= USBFS_DYN_RECONFIG_ENABLE;
 808:Generated_Source\PSoC5/USBFS_std.c ****                 /* wait for the dyn_config_rdy bit to set by the block,
 809:Generated_Source\PSoC5/USBFS_std.c ****                 *  this bit will be set to 1 when block is ready for reconfiguration.
 810:Generated_Source\PSoC5/USBFS_std.c ****                 */
 811:Generated_Source\PSoC5/USBFS_std.c ****                 while((USBFS_DYN_RECONFIG_REG & USBFS_DYN_RECONFIG_RDY_STS) == 0u)
 812:Generated_Source\PSoC5/USBFS_std.c ****                 {
 813:Generated_Source\PSoC5/USBFS_std.c ****                     ;
 814:Generated_Source\PSoC5/USBFS_std.c ****                 }
 815:Generated_Source\PSoC5/USBFS_std.c ****                 /* Once dyn_config_rdy bit is set, FW can change the EP configuration. */
 816:Generated_Source\PSoC5/USBFS_std.c ****                 /* Change EP Type with new direction */
 817:Generated_Source\PSoC5/USBFS_std.c ****                 if((pEP->addr & USBFS_DIR_IN) == 0u)
 818:Generated_Source\PSoC5/USBFS_std.c ****                 {
 819:Generated_Source\PSoC5/USBFS_std.c ****                     USBFS_EP_TYPE_REG |= (uint8)(0x01u << (cur_ep - USBFS_EP1));
 820:Generated_Source\PSoC5/USBFS_std.c ****                 }
 821:Generated_Source\PSoC5/USBFS_std.c ****                 else
 822:Generated_Source\PSoC5/USBFS_std.c ****                 {
 823:Generated_Source\PSoC5/USBFS_std.c ****                     USBFS_EP_TYPE_REG &= (uint8)~(uint8)(0x01u << (cur_ep - USBFS_EP1));
 824:Generated_Source\PSoC5/USBFS_std.c ****                 }
 825:Generated_Source\PSoC5/USBFS_std.c ****                 /* dynamic reconfiguration enable bit cleared, pointers and control/status
 826:Generated_Source\PSoC5/USBFS_std.c ****                 *  signals for the selected EP is cleared/re-initialized on negative edge
 827:Generated_Source\PSoC5/USBFS_std.c ****                 *  of dynamic reconfiguration enable bit).
 828:Generated_Source\PSoC5/USBFS_std.c ****                 */
 829:Generated_Source\PSoC5/USBFS_std.c ****                 USBFS_DYN_RECONFIG_REG &= (uint8)~USBFS_DYN_RECONFIG_ENABLE;
ARM GAS  C:\Users\JOSANT~1\AppData\Local\Temp\cceoxjZy.s 			page 46


 830:Generated_Source\PSoC5/USBFS_std.c ****                 /* The main loop has to re-enable DMA and OUT endpoint*/
 831:Generated_Source\PSoC5/USBFS_std.c ****             #else
 832:Generated_Source\PSoC5/USBFS_std.c ****                 CY_SET_REG8((reg8 *)(USBFS_SIE_EP1_CNT0_IND + ri),
 1663              		.loc 1 832 0
 1664 016c 7A78     		ldrb	r2, [r7, #1]	@ zero_extendqisi2
 1665 016e 3D4B     		ldr	r3, .L111+24
 1666 0170 1344     		add	r3, r3, r2
 1667 0172 1846     		mov	r0, r3
 1668 0174 BA78     		ldrb	r2, [r7, #2]	@ zero_extendqisi2
 1669 0176 3949     		ldr	r1, .L111+16
 1670 0178 1346     		mov	r3, r2
 1671 017a 5B00     		lsls	r3, r3, #1
 1672 017c 1344     		add	r3, r3, r2
 1673 017e 9B00     		lsls	r3, r3, #2
 1674 0180 0B44     		add	r3, r3, r1
 1675 0182 0833     		adds	r3, r3, #8
 1676 0184 1B88     		ldrh	r3, [r3]	@ movhi
 1677 0186 9BB2     		uxth	r3, r3
 1678 0188 1B0A     		lsrs	r3, r3, #8
 1679 018a 9BB2     		uxth	r3, r3
 1680 018c DBB2     		uxtb	r3, r3
 1681 018e 0370     		strb	r3, [r0]
 833:Generated_Source\PSoC5/USBFS_std.c ****                                                                 USBFS_EP[cur_ep].bufferSize >> 8u);
 834:Generated_Source\PSoC5/USBFS_std.c ****                 CY_SET_REG8((reg8 *)(USBFS_SIE_EP1_CNT1_IND + ri),
 1682              		.loc 1 834 0
 1683 0190 7A78     		ldrb	r2, [r7, #1]	@ zero_extendqisi2
 1684 0192 354B     		ldr	r3, .L111+28
 1685 0194 1344     		add	r3, r3, r2
 1686 0196 1846     		mov	r0, r3
 1687 0198 BA78     		ldrb	r2, [r7, #2]	@ zero_extendqisi2
 1688 019a 3049     		ldr	r1, .L111+16
 1689 019c 1346     		mov	r3, r2
 1690 019e 5B00     		lsls	r3, r3, #1
 1691 01a0 1344     		add	r3, r3, r2
 1692 01a2 9B00     		lsls	r3, r3, #2
 1693 01a4 0B44     		add	r3, r3, r1
 1694 01a6 0833     		adds	r3, r3, #8
 1695 01a8 1B88     		ldrh	r3, [r3]	@ movhi
 1696 01aa 9BB2     		uxth	r3, r3
 1697 01ac DBB2     		uxtb	r3, r3
 1698 01ae 0370     		strb	r3, [r0]
 835:Generated_Source\PSoC5/USBFS_std.c ****                                                                 USBFS_EP[cur_ep].bufferSize & 0xFFu
 836:Generated_Source\PSoC5/USBFS_std.c ****                 CY_SET_REG8((reg8 *)(USBFS_ARB_RW1_RA_IND + ri),
 1699              		.loc 1 836 0
 1700 01b0 7A78     		ldrb	r2, [r7, #1]	@ zero_extendqisi2
 1701 01b2 2E4B     		ldr	r3, .L111+32
 1702 01b4 1344     		add	r3, r3, r2
 1703 01b6 1846     		mov	r0, r3
 1704 01b8 BA78     		ldrb	r2, [r7, #2]	@ zero_extendqisi2
 1705 01ba 2849     		ldr	r1, .L111+16
 1706 01bc 1346     		mov	r3, r2
 1707 01be 5B00     		lsls	r3, r3, #1
 1708 01c0 1344     		add	r3, r3, r2
 1709 01c2 9B00     		lsls	r3, r3, #2
 1710 01c4 0B44     		add	r3, r3, r1
 1711 01c6 DB88     		ldrh	r3, [r3, #6]	@ movhi
 1712 01c8 9BB2     		uxth	r3, r3
ARM GAS  C:\Users\JOSANT~1\AppData\Local\Temp\cceoxjZy.s 			page 47


 1713 01ca DBB2     		uxtb	r3, r3
 1714 01cc 0370     		strb	r3, [r0]
 837:Generated_Source\PSoC5/USBFS_std.c ****                                                                 USBFS_EP[cur_ep].buffOffset & 0xFFu
 838:Generated_Source\PSoC5/USBFS_std.c ****                 CY_SET_REG8((reg8 *)(USBFS_ARB_RW1_RA_MSB_IND + ri),
 1715              		.loc 1 838 0
 1716 01ce 7A78     		ldrb	r2, [r7, #1]	@ zero_extendqisi2
 1717 01d0 274B     		ldr	r3, .L111+36
 1718 01d2 1344     		add	r3, r3, r2
 1719 01d4 1846     		mov	r0, r3
 1720 01d6 BA78     		ldrb	r2, [r7, #2]	@ zero_extendqisi2
 1721 01d8 2049     		ldr	r1, .L111+16
 1722 01da 1346     		mov	r3, r2
 1723 01dc 5B00     		lsls	r3, r3, #1
 1724 01de 1344     		add	r3, r3, r2
 1725 01e0 9B00     		lsls	r3, r3, #2
 1726 01e2 0B44     		add	r3, r3, r1
 1727 01e4 DB88     		ldrh	r3, [r3, #6]	@ movhi
 1728 01e6 9BB2     		uxth	r3, r3
 1729 01e8 1B0A     		lsrs	r3, r3, #8
 1730 01ea 9BB2     		uxth	r3, r3
 1731 01ec DBB2     		uxtb	r3, r3
 1732 01ee 0370     		strb	r3, [r0]
 839:Generated_Source\PSoC5/USBFS_std.c ****                                                                 USBFS_EP[cur_ep].buffOffset >> 8u);
 840:Generated_Source\PSoC5/USBFS_std.c ****                 CY_SET_REG8((reg8 *)(USBFS_ARB_RW1_WA_IND + ri),
 1733              		.loc 1 840 0
 1734 01f0 7A78     		ldrb	r2, [r7, #1]	@ zero_extendqisi2
 1735 01f2 204B     		ldr	r3, .L111+40
 1736 01f4 1344     		add	r3, r3, r2
 1737 01f6 1846     		mov	r0, r3
 1738 01f8 BA78     		ldrb	r2, [r7, #2]	@ zero_extendqisi2
 1739 01fa 1849     		ldr	r1, .L111+16
 1740 01fc 1346     		mov	r3, r2
 1741 01fe 5B00     		lsls	r3, r3, #1
 1742 0200 1344     		add	r3, r3, r2
 1743 0202 9B00     		lsls	r3, r3, #2
 1744 0204 0B44     		add	r3, r3, r1
 1745 0206 DB88     		ldrh	r3, [r3, #6]	@ movhi
 1746 0208 9BB2     		uxth	r3, r3
 1747 020a DBB2     		uxtb	r3, r3
 1748 020c 0370     		strb	r3, [r0]
 841:Generated_Source\PSoC5/USBFS_std.c ****                                                                 USBFS_EP[cur_ep].buffOffset & 0xFFu
 842:Generated_Source\PSoC5/USBFS_std.c ****                 CY_SET_REG8((reg8 *)(USBFS_ARB_RW1_WA_MSB_IND + ri),
 1749              		.loc 1 842 0
 1750 020e 7A78     		ldrb	r2, [r7, #1]	@ zero_extendqisi2
 1751 0210 194B     		ldr	r3, .L111+44
 1752 0212 1344     		add	r3, r3, r2
 1753 0214 1846     		mov	r0, r3
 1754 0216 BA78     		ldrb	r2, [r7, #2]	@ zero_extendqisi2
 1755 0218 1049     		ldr	r1, .L111+16
 1756 021a 1346     		mov	r3, r2
 1757 021c 5B00     		lsls	r3, r3, #1
 1758 021e 1344     		add	r3, r3, r2
 1759 0220 9B00     		lsls	r3, r3, #2
 1760 0222 0B44     		add	r3, r3, r1
 1761 0224 DB88     		ldrh	r3, [r3, #6]	@ movhi
 1762 0226 9BB2     		uxth	r3, r3
 1763 0228 1B0A     		lsrs	r3, r3, #8
ARM GAS  C:\Users\JOSANT~1\AppData\Local\Temp\cceoxjZy.s 			page 48


 1764 022a 9BB2     		uxth	r3, r3
 1765 022c DBB2     		uxtb	r3, r3
 1766 022e 0370     		strb	r3, [r0]
 1767              	.L103:
 843:Generated_Source\PSoC5/USBFS_std.c ****                                                                 USBFS_EP[cur_ep].buffOffset >> 8u);
 844:Generated_Source\PSoC5/USBFS_std.c ****             #endif /*  USBFS_EP_MM == USBFS__EP_DMAAUTO */
 845:Generated_Source\PSoC5/USBFS_std.c ****             }
 846:Generated_Source\PSoC5/USBFS_std.c ****             /* Get next EP element */
 847:Generated_Source\PSoC5/USBFS_std.c ****             pEP = &pEP[1u];
 1768              		.loc 1 847 0 discriminator 2
 1769 0230 BB68     		ldr	r3, [r7, #8]
 1770 0232 0833     		adds	r3, r3, #8
 1771 0234 BB60     		str	r3, [r7, #8]
 764:Generated_Source\PSoC5/USBFS_std.c ****         {
 1772              		.loc 1 764 0 discriminator 2
 1773 0236 FB7B     		ldrb	r3, [r7, #15]	@ zero_extendqisi2
 1774 0238 0133     		adds	r3, r3, #1
 1775 023a FB73     		strb	r3, [r7, #15]
 1776              	.L102:
 764:Generated_Source\PSoC5/USBFS_std.c ****         {
 1777              		.loc 1 764 0 is_stmt 0 discriminator 1
 1778 023c FA7B     		ldrb	r2, [r7, #15]	@ zero_extendqisi2
 1779 023e FB78     		ldrb	r3, [r7, #3]	@ zero_extendqisi2
 1780 0240 9A42     		cmp	r2, r3
 1781 0242 FFF4FBAE 		bcc	.L110
 1782              	.L100:
 848:Generated_Source\PSoC5/USBFS_std.c ****         }
 849:Generated_Source\PSoC5/USBFS_std.c ****     }   /* USBFS_configuration > 0 */
 850:Generated_Source\PSoC5/USBFS_std.c **** }
 1783              		.loc 1 850 0 is_stmt 1
 1784 0246 1037     		adds	r7, r7, #16
 1785              		.cfi_def_cfa_offset 8
 1786 0248 BD46     		mov	sp, r7
 1787              		.cfi_def_cfa_register 13
 1788              		@ sp needed
 1789 024a 80BD     		pop	{r7, pc}
 1790              	.L112:
 1791              		.align	2
 1792              	.L111:
 1793 024c 00000000 		.word	USBFS_configuration
 1794 0250 00000000 		.word	USBFS_interfaceSetting
 1795 0254 00000000 		.word	USBFS_interfaceSetting_last
 1796 0258 04600040 		.word	1073766404
 1797 025c 00000000 		.word	USBFS_EP
 1798 0260 0E600040 		.word	1073766414
 1799 0264 0C600040 		.word	1073766412
 1800 0268 0D600040 		.word	1073766413
 1801 026c 86600040 		.word	1073766534
 1802 0270 87600040 		.word	1073766535
 1803 0274 84600040 		.word	1073766532
 1804 0278 85600040 		.word	1073766533
 1805              		.cfi_endproc
 1806              	.LFE3:
 1807              		.size	USBFS_ConfigAltChanged, .-USBFS_ConfigAltChanged
 1808              		.section	.text.USBFS_GetConfigTablePtr,"ax",%progbits
 1809              		.align	2
 1810              		.global	USBFS_GetConfigTablePtr
ARM GAS  C:\Users\JOSANT~1\AppData\Local\Temp\cceoxjZy.s 			page 49


 1811              		.thumb
 1812              		.thumb_func
 1813              		.type	USBFS_GetConfigTablePtr, %function
 1814              	USBFS_GetConfigTablePtr:
 1815              	.LFB4:
 851:Generated_Source\PSoC5/USBFS_std.c **** 
 852:Generated_Source\PSoC5/USBFS_std.c **** 
 853:Generated_Source\PSoC5/USBFS_std.c **** /*******************************************************************************
 854:Generated_Source\PSoC5/USBFS_std.c **** * Function Name: USBFS_GetConfigTablePtr
 855:Generated_Source\PSoC5/USBFS_std.c **** ********************************************************************************
 856:Generated_Source\PSoC5/USBFS_std.c **** *
 857:Generated_Source\PSoC5/USBFS_std.c **** * Summary:
 858:Generated_Source\PSoC5/USBFS_std.c **** *  This routine returns a pointer a configuration table entry
 859:Generated_Source\PSoC5/USBFS_std.c **** *
 860:Generated_Source\PSoC5/USBFS_std.c **** * Parameters:
 861:Generated_Source\PSoC5/USBFS_std.c **** *  confIndex:  Configuration Index
 862:Generated_Source\PSoC5/USBFS_std.c **** *
 863:Generated_Source\PSoC5/USBFS_std.c **** * Return:
 864:Generated_Source\PSoC5/USBFS_std.c **** *  Device Descriptor pointer or NULL when descriptor isn't exists.
 865:Generated_Source\PSoC5/USBFS_std.c **** *
 866:Generated_Source\PSoC5/USBFS_std.c **** *******************************************************************************/
 867:Generated_Source\PSoC5/USBFS_std.c **** const T_USBFS_LUT CYCODE *USBFS_GetConfigTablePtr(uint8 confIndex)
 868:Generated_Source\PSoC5/USBFS_std.c ****                                                         
 869:Generated_Source\PSoC5/USBFS_std.c **** {
 1816              		.loc 1 869 0
 1817              		.cfi_startproc
 1818              		@ args = 0, pretend = 0, frame = 16
 1819              		@ frame_needed = 1, uses_anonymous_args = 0
 1820              		@ link register save eliminated.
 1821 0000 80B4     		push	{r7}
 1822              		.cfi_def_cfa_offset 4
 1823              		.cfi_offset 7, -4
 1824 0002 85B0     		sub	sp, sp, #20
 1825              		.cfi_def_cfa_offset 24
 1826 0004 00AF     		add	r7, sp, #0
 1827              		.cfi_def_cfa_register 7
 1828 0006 0346     		mov	r3, r0
 1829 0008 FB71     		strb	r3, [r7, #7]
 870:Generated_Source\PSoC5/USBFS_std.c ****     /* Device Table */
 871:Generated_Source\PSoC5/USBFS_std.c ****     const T_USBFS_LUT CYCODE *pTmp;
 872:Generated_Source\PSoC5/USBFS_std.c **** 
 873:Generated_Source\PSoC5/USBFS_std.c ****     pTmp = (const T_USBFS_LUT CYCODE *) USBFS_TABLE[USBFS_device].p_list;
 1830              		.loc 1 873 0
 1831 000a 104B     		ldr	r3, .L117
 1832 000c 1B78     		ldrb	r3, [r3]
 1833 000e DBB2     		uxtb	r3, r3
 1834 0010 0F4A     		ldr	r2, .L117+4
 1835 0012 DB00     		lsls	r3, r3, #3
 1836 0014 1344     		add	r3, r3, r2
 1837 0016 5B68     		ldr	r3, [r3, #4]
 1838 0018 FB60     		str	r3, [r7, #12]
 874:Generated_Source\PSoC5/USBFS_std.c **** 
 875:Generated_Source\PSoC5/USBFS_std.c ****     /* The first entry points to the Device Descriptor,
 876:Generated_Source\PSoC5/USBFS_std.c ****     *  the rest configuration entries.
 877:Generated_Source\PSoC5/USBFS_std.c ****     *  Set pointer to the first Configuration Descriptor
 878:Generated_Source\PSoC5/USBFS_std.c ****     */
 879:Generated_Source\PSoC5/USBFS_std.c ****     pTmp = &pTmp[1u];
ARM GAS  C:\Users\JOSANT~1\AppData\Local\Temp\cceoxjZy.s 			page 50


 1839              		.loc 1 879 0
 1840 001a FB68     		ldr	r3, [r7, #12]
 1841 001c 0833     		adds	r3, r3, #8
 1842 001e FB60     		str	r3, [r7, #12]
 880:Generated_Source\PSoC5/USBFS_std.c ****     /* For this table, c is the number of configuration descriptors  */
 881:Generated_Source\PSoC5/USBFS_std.c ****     if(confIndex >= pTmp->c)   /* Verify that required configuration descriptor exists */
 1843              		.loc 1 881 0
 1844 0020 FB68     		ldr	r3, [r7, #12]
 1845 0022 1B78     		ldrb	r3, [r3]	@ zero_extendqisi2
 1846 0024 FA79     		ldrb	r2, [r7, #7]	@ zero_extendqisi2
 1847 0026 9A42     		cmp	r2, r3
 1848 0028 02D3     		bcc	.L114
 882:Generated_Source\PSoC5/USBFS_std.c ****     {
 883:Generated_Source\PSoC5/USBFS_std.c ****         pTmp = (const T_USBFS_LUT CYCODE *) NULL;
 1849              		.loc 1 883 0
 1850 002a 0023     		movs	r3, #0
 1851 002c FB60     		str	r3, [r7, #12]
 1852 002e 05E0     		b	.L115
 1853              	.L114:
 884:Generated_Source\PSoC5/USBFS_std.c ****     }
 885:Generated_Source\PSoC5/USBFS_std.c ****     else
 886:Generated_Source\PSoC5/USBFS_std.c ****     {
 887:Generated_Source\PSoC5/USBFS_std.c ****         pTmp = (const T_USBFS_LUT CYCODE *) pTmp[confIndex].p_list;
 1854              		.loc 1 887 0
 1855 0030 FB79     		ldrb	r3, [r7, #7]	@ zero_extendqisi2
 1856 0032 DB00     		lsls	r3, r3, #3
 1857 0034 FA68     		ldr	r2, [r7, #12]
 1858 0036 1344     		add	r3, r3, r2
 1859 0038 5B68     		ldr	r3, [r3, #4]
 1860 003a FB60     		str	r3, [r7, #12]
 1861              	.L115:
 888:Generated_Source\PSoC5/USBFS_std.c ****     }
 889:Generated_Source\PSoC5/USBFS_std.c ****     
 890:Generated_Source\PSoC5/USBFS_std.c ****     return( pTmp );
 1862              		.loc 1 890 0
 1863 003c FB68     		ldr	r3, [r7, #12]
 891:Generated_Source\PSoC5/USBFS_std.c **** }
 1864              		.loc 1 891 0
 1865 003e 1846     		mov	r0, r3
 1866 0040 1437     		adds	r7, r7, #20
 1867              		.cfi_def_cfa_offset 4
 1868 0042 BD46     		mov	sp, r7
 1869              		.cfi_def_cfa_register 13
 1870              		@ sp needed
 1871 0044 5DF8047B 		ldr	r7, [sp], #4
 1872              		.cfi_restore 7
 1873              		.cfi_def_cfa_offset 0
 1874 0048 7047     		bx	lr
 1875              	.L118:
 1876 004a 00BF     		.align	2
 1877              	.L117:
 1878 004c 00000000 		.word	USBFS_device
 1879 0050 00000000 		.word	USBFS_TABLE
 1880              		.cfi_endproc
 1881              	.LFE4:
 1882              		.size	USBFS_GetConfigTablePtr, .-USBFS_GetConfigTablePtr
 1883              		.section	.text.USBFS_GetDeviceTablePtr,"ax",%progbits
ARM GAS  C:\Users\JOSANT~1\AppData\Local\Temp\cceoxjZy.s 			page 51


 1884              		.align	2
 1885              		.global	USBFS_GetDeviceTablePtr
 1886              		.thumb
 1887              		.thumb_func
 1888              		.type	USBFS_GetDeviceTablePtr, %function
 1889              	USBFS_GetDeviceTablePtr:
 1890              	.LFB5:
 892:Generated_Source\PSoC5/USBFS_std.c **** 
 893:Generated_Source\PSoC5/USBFS_std.c **** 
 894:Generated_Source\PSoC5/USBFS_std.c **** /*******************************************************************************
 895:Generated_Source\PSoC5/USBFS_std.c **** * Function Name: USBFS_GetDeviceTablePtr
 896:Generated_Source\PSoC5/USBFS_std.c **** ********************************************************************************
 897:Generated_Source\PSoC5/USBFS_std.c **** *
 898:Generated_Source\PSoC5/USBFS_std.c **** * Summary:
 899:Generated_Source\PSoC5/USBFS_std.c **** *  This routine returns a pointer to the Device table
 900:Generated_Source\PSoC5/USBFS_std.c **** *
 901:Generated_Source\PSoC5/USBFS_std.c **** * Parameters:
 902:Generated_Source\PSoC5/USBFS_std.c **** *  None.
 903:Generated_Source\PSoC5/USBFS_std.c **** *
 904:Generated_Source\PSoC5/USBFS_std.c **** * Return:
 905:Generated_Source\PSoC5/USBFS_std.c **** *  Device Table pointer
 906:Generated_Source\PSoC5/USBFS_std.c **** *
 907:Generated_Source\PSoC5/USBFS_std.c **** *******************************************************************************/
 908:Generated_Source\PSoC5/USBFS_std.c **** const T_USBFS_LUT CYCODE *USBFS_GetDeviceTablePtr(void)
 909:Generated_Source\PSoC5/USBFS_std.c ****                                                             
 910:Generated_Source\PSoC5/USBFS_std.c **** {
 1891              		.loc 1 910 0
 1892              		.cfi_startproc
 1893              		@ args = 0, pretend = 0, frame = 0
 1894              		@ frame_needed = 1, uses_anonymous_args = 0
 1895              		@ link register save eliminated.
 1896 0000 80B4     		push	{r7}
 1897              		.cfi_def_cfa_offset 4
 1898              		.cfi_offset 7, -4
 1899 0002 00AF     		add	r7, sp, #0
 1900              		.cfi_def_cfa_register 7
 911:Generated_Source\PSoC5/USBFS_std.c ****     /* Device Table */
 912:Generated_Source\PSoC5/USBFS_std.c ****     return( (const T_USBFS_LUT CYCODE *) USBFS_TABLE[USBFS_device].p_list );
 1901              		.loc 1 912 0
 1902 0004 054B     		ldr	r3, .L121
 1903 0006 1B78     		ldrb	r3, [r3]
 1904 0008 DBB2     		uxtb	r3, r3
 1905 000a 054A     		ldr	r2, .L121+4
 1906 000c DB00     		lsls	r3, r3, #3
 1907 000e 1344     		add	r3, r3, r2
 1908 0010 5B68     		ldr	r3, [r3, #4]
 913:Generated_Source\PSoC5/USBFS_std.c **** }
 1909              		.loc 1 913 0
 1910 0012 1846     		mov	r0, r3
 1911 0014 BD46     		mov	sp, r7
 1912              		.cfi_def_cfa_register 13
 1913              		@ sp needed
 1914 0016 5DF8047B 		ldr	r7, [sp], #4
 1915              		.cfi_restore 7
 1916              		.cfi_def_cfa_offset 0
 1917 001a 7047     		bx	lr
 1918              	.L122:
ARM GAS  C:\Users\JOSANT~1\AppData\Local\Temp\cceoxjZy.s 			page 52


 1919              		.align	2
 1920              	.L121:
 1921 001c 00000000 		.word	USBFS_device
 1922 0020 00000000 		.word	USBFS_TABLE
 1923              		.cfi_endproc
 1924              	.LFE5:
 1925              		.size	USBFS_GetDeviceTablePtr, .-USBFS_GetDeviceTablePtr
 1926              		.section	.text.USBFS_GetInterfaceClassTablePtr,"ax",%progbits
 1927              		.align	2
 1928              		.global	USBFS_GetInterfaceClassTablePtr
 1929              		.thumb
 1930              		.thumb_func
 1931              		.type	USBFS_GetInterfaceClassTablePtr, %function
 1932              	USBFS_GetInterfaceClassTablePtr:
 1933              	.LFB6:
 914:Generated_Source\PSoC5/USBFS_std.c **** 
 915:Generated_Source\PSoC5/USBFS_std.c **** 
 916:Generated_Source\PSoC5/USBFS_std.c **** /*******************************************************************************
 917:Generated_Source\PSoC5/USBFS_std.c **** * Function Name: USB_GetInterfaceClassTablePtr
 918:Generated_Source\PSoC5/USBFS_std.c **** ********************************************************************************
 919:Generated_Source\PSoC5/USBFS_std.c **** *
 920:Generated_Source\PSoC5/USBFS_std.c **** * Summary:
 921:Generated_Source\PSoC5/USBFS_std.c **** *  This routine returns Interface Class table pointer, which contains
 922:Generated_Source\PSoC5/USBFS_std.c **** *  the relation between interface number and interface class.
 923:Generated_Source\PSoC5/USBFS_std.c **** *
 924:Generated_Source\PSoC5/USBFS_std.c **** * Parameters:
 925:Generated_Source\PSoC5/USBFS_std.c **** *  None.
 926:Generated_Source\PSoC5/USBFS_std.c **** *
 927:Generated_Source\PSoC5/USBFS_std.c **** * Return:
 928:Generated_Source\PSoC5/USBFS_std.c **** *  Interface Class table pointer.
 929:Generated_Source\PSoC5/USBFS_std.c **** *
 930:Generated_Source\PSoC5/USBFS_std.c **** *******************************************************************************/
 931:Generated_Source\PSoC5/USBFS_std.c **** const uint8 CYCODE *USBFS_GetInterfaceClassTablePtr(void)
 932:Generated_Source\PSoC5/USBFS_std.c ****                                                         
 933:Generated_Source\PSoC5/USBFS_std.c **** {
 1934              		.loc 1 933 0
 1935              		.cfi_startproc
 1936              		@ args = 0, pretend = 0, frame = 16
 1937              		@ frame_needed = 1, uses_anonymous_args = 0
 1938 0000 80B5     		push	{r7, lr}
 1939              		.cfi_def_cfa_offset 8
 1940              		.cfi_offset 7, -8
 1941              		.cfi_offset 14, -4
 1942 0002 84B0     		sub	sp, sp, #16
 1943              		.cfi_def_cfa_offset 24
 1944 0004 00AF     		add	r7, sp, #0
 1945              		.cfi_def_cfa_register 7
 934:Generated_Source\PSoC5/USBFS_std.c ****     const T_USBFS_LUT CYCODE *pTmp;
 935:Generated_Source\PSoC5/USBFS_std.c ****     const uint8 CYCODE *pInterfaceClass;
 936:Generated_Source\PSoC5/USBFS_std.c ****     uint8 currentInterfacesNum;
 937:Generated_Source\PSoC5/USBFS_std.c **** 
 938:Generated_Source\PSoC5/USBFS_std.c ****     pTmp = USBFS_GetConfigTablePtr(USBFS_configuration - 1u);
 1946              		.loc 1 938 0
 1947 0006 104B     		ldr	r3, .L127
 1948 0008 1B78     		ldrb	r3, [r3]
 1949 000a DBB2     		uxtb	r3, r3
 1950 000c 013B     		subs	r3, r3, #1
ARM GAS  C:\Users\JOSANT~1\AppData\Local\Temp\cceoxjZy.s 			page 53


 1951 000e DBB2     		uxtb	r3, r3
 1952 0010 1846     		mov	r0, r3
 1953 0012 FFF7FEFF 		bl	USBFS_GetConfigTablePtr
 1954 0016 B860     		str	r0, [r7, #8]
 939:Generated_Source\PSoC5/USBFS_std.c ****     if( pTmp != NULL )
 1955              		.loc 1 939 0
 1956 0018 BB68     		ldr	r3, [r7, #8]
 1957 001a 002B     		cmp	r3, #0
 1958 001c 0DD0     		beq	.L124
 940:Generated_Source\PSoC5/USBFS_std.c ****     {
 941:Generated_Source\PSoC5/USBFS_std.c ****         currentInterfacesNum  = ((const uint8 *) pTmp->p_list)[USBFS_CONFIG_DESCR_NUM_INTERFACES];
 1959              		.loc 1 941 0
 1960 001e BB68     		ldr	r3, [r7, #8]
 1961 0020 5B68     		ldr	r3, [r3, #4]
 1962 0022 1B79     		ldrb	r3, [r3, #4]
 1963 0024 FB71     		strb	r3, [r7, #7]
 942:Generated_Source\PSoC5/USBFS_std.c ****         /* Third entry in the LUT starts the Interface Table pointers */
 943:Generated_Source\PSoC5/USBFS_std.c ****         /* The INTERFACE_CLASS table is located after all interfaces */
 944:Generated_Source\PSoC5/USBFS_std.c ****         pTmp = &pTmp[currentInterfacesNum + 2u];
 1964              		.loc 1 944 0
 1965 0026 FB79     		ldrb	r3, [r7, #7]	@ zero_extendqisi2
 1966 0028 0233     		adds	r3, r3, #2
 1967 002a DB00     		lsls	r3, r3, #3
 1968 002c BA68     		ldr	r2, [r7, #8]
 1969 002e 1344     		add	r3, r3, r2
 1970 0030 BB60     		str	r3, [r7, #8]
 945:Generated_Source\PSoC5/USBFS_std.c ****         pInterfaceClass = (const uint8 CYCODE *) pTmp->p_list;
 1971              		.loc 1 945 0
 1972 0032 BB68     		ldr	r3, [r7, #8]
 1973 0034 5B68     		ldr	r3, [r3, #4]
 1974 0036 FB60     		str	r3, [r7, #12]
 1975 0038 01E0     		b	.L125
 1976              	.L124:
 946:Generated_Source\PSoC5/USBFS_std.c ****     }
 947:Generated_Source\PSoC5/USBFS_std.c ****     else
 948:Generated_Source\PSoC5/USBFS_std.c ****     {
 949:Generated_Source\PSoC5/USBFS_std.c ****         pInterfaceClass = (const uint8 CYCODE *) NULL;
 1977              		.loc 1 949 0
 1978 003a 0023     		movs	r3, #0
 1979 003c FB60     		str	r3, [r7, #12]
 1980              	.L125:
 950:Generated_Source\PSoC5/USBFS_std.c ****     }
 951:Generated_Source\PSoC5/USBFS_std.c ****     
 952:Generated_Source\PSoC5/USBFS_std.c ****     return( pInterfaceClass );
 1981              		.loc 1 952 0
 1982 003e FB68     		ldr	r3, [r7, #12]
 953:Generated_Source\PSoC5/USBFS_std.c **** }
 1983              		.loc 1 953 0
 1984 0040 1846     		mov	r0, r3
 1985 0042 1037     		adds	r7, r7, #16
 1986              		.cfi_def_cfa_offset 8
 1987 0044 BD46     		mov	sp, r7
 1988              		.cfi_def_cfa_register 13
 1989              		@ sp needed
 1990 0046 80BD     		pop	{r7, pc}
 1991              	.L128:
 1992              		.align	2
ARM GAS  C:\Users\JOSANT~1\AppData\Local\Temp\cceoxjZy.s 			page 54


 1993              	.L127:
 1994 0048 00000000 		.word	USBFS_configuration
 1995              		.cfi_endproc
 1996              	.LFE6:
 1997              		.size	USBFS_GetInterfaceClassTablePtr, .-USBFS_GetInterfaceClassTablePtr
 1998              		.section	.text.USBFS_TerminateEP,"ax",%progbits
 1999              		.align	2
 2000              		.global	USBFS_TerminateEP
 2001              		.thumb
 2002              		.thumb_func
 2003              		.type	USBFS_TerminateEP, %function
 2004              	USBFS_TerminateEP:
 2005              	.LFB7:
 954:Generated_Source\PSoC5/USBFS_std.c **** 
 955:Generated_Source\PSoC5/USBFS_std.c **** 
 956:Generated_Source\PSoC5/USBFS_std.c **** /*******************************************************************************
 957:Generated_Source\PSoC5/USBFS_std.c **** * Function Name: USBFS_TerminateEP
 958:Generated_Source\PSoC5/USBFS_std.c **** ********************************************************************************
 959:Generated_Source\PSoC5/USBFS_std.c **** *
 960:Generated_Source\PSoC5/USBFS_std.c **** * Summary:
 961:Generated_Source\PSoC5/USBFS_std.c **** *  This function terminates the specified USBFS endpoint.
 962:Generated_Source\PSoC5/USBFS_std.c **** *  This function should be used before endpoint reconfiguration.
 963:Generated_Source\PSoC5/USBFS_std.c **** *
 964:Generated_Source\PSoC5/USBFS_std.c **** * Parameters:
 965:Generated_Source\PSoC5/USBFS_std.c **** *  Endpoint number.
 966:Generated_Source\PSoC5/USBFS_std.c **** *
 967:Generated_Source\PSoC5/USBFS_std.c **** * Return:
 968:Generated_Source\PSoC5/USBFS_std.c **** *  None.
 969:Generated_Source\PSoC5/USBFS_std.c **** *
 970:Generated_Source\PSoC5/USBFS_std.c **** * Reentrant:
 971:Generated_Source\PSoC5/USBFS_std.c **** *  No.
 972:Generated_Source\PSoC5/USBFS_std.c **** *
 973:Generated_Source\PSoC5/USBFS_std.c **** *******************************************************************************/
 974:Generated_Source\PSoC5/USBFS_std.c **** void USBFS_TerminateEP(uint8 ep) 
 975:Generated_Source\PSoC5/USBFS_std.c **** {
 2006              		.loc 1 975 0
 2007              		.cfi_startproc
 2008              		@ args = 0, pretend = 0, frame = 16
 2009              		@ frame_needed = 1, uses_anonymous_args = 0
 2010              		@ link register save eliminated.
 2011 0000 80B4     		push	{r7}
 2012              		.cfi_def_cfa_offset 4
 2013              		.cfi_offset 7, -4
 2014 0002 85B0     		sub	sp, sp, #20
 2015              		.cfi_def_cfa_offset 24
 2016 0004 00AF     		add	r7, sp, #0
 2017              		.cfi_def_cfa_register 7
 2018 0006 0346     		mov	r3, r0
 2019 0008 FB71     		strb	r3, [r7, #7]
 976:Generated_Source\PSoC5/USBFS_std.c ****     uint8 ri;
 977:Generated_Source\PSoC5/USBFS_std.c **** 
 978:Generated_Source\PSoC5/USBFS_std.c ****     ep &= USBFS_DIR_UNUSED;
 2020              		.loc 1 978 0
 2021 000a FB79     		ldrb	r3, [r7, #7]
 2022 000c 03F07F03 		and	r3, r3, #127
 2023 0010 FB71     		strb	r3, [r7, #7]
 979:Generated_Source\PSoC5/USBFS_std.c ****     ri = ((ep - USBFS_EP1) << USBFS_EPX_CNTX_ADDR_SHIFT);
ARM GAS  C:\Users\JOSANT~1\AppData\Local\Temp\cceoxjZy.s 			page 55


 2024              		.loc 1 979 0
 2025 0012 FB79     		ldrb	r3, [r7, #7]
 2026 0014 013B     		subs	r3, r3, #1
 2027 0016 DBB2     		uxtb	r3, r3
 2028 0018 1B01     		lsls	r3, r3, #4
 2029 001a FB73     		strb	r3, [r7, #15]
 980:Generated_Source\PSoC5/USBFS_std.c **** 
 981:Generated_Source\PSoC5/USBFS_std.c ****     if ((ep > USBFS_EP0) && (ep < USBFS_MAX_EP))
 2030              		.loc 1 981 0
 2031 001c FB79     		ldrb	r3, [r7, #7]	@ zero_extendqisi2
 2032 001e 002B     		cmp	r3, #0
 2033 0020 41D0     		beq	.L129
 2034              		.loc 1 981 0 is_stmt 0 discriminator 1
 2035 0022 FB79     		ldrb	r3, [r7, #7]	@ zero_extendqisi2
 2036 0024 082B     		cmp	r3, #8
 2037 0026 3ED8     		bhi	.L129
 982:Generated_Source\PSoC5/USBFS_std.c ****     {
 983:Generated_Source\PSoC5/USBFS_std.c ****         /* Set the endpoint Halt */
 984:Generated_Source\PSoC5/USBFS_std.c ****         USBFS_EP[ep].hwEpState |= (USBFS_ENDPOINT_STATUS_HALT);
 2038              		.loc 1 984 0 is_stmt 1
 2039 0028 FA79     		ldrb	r2, [r7, #7]	@ zero_extendqisi2
 2040 002a F979     		ldrb	r1, [r7, #7]	@ zero_extendqisi2
 2041 002c 2048     		ldr	r0, .L132
 2042 002e 0B46     		mov	r3, r1
 2043 0030 5B00     		lsls	r3, r3, #1
 2044 0032 0B44     		add	r3, r3, r1
 2045 0034 9B00     		lsls	r3, r3, #2
 2046 0036 0344     		add	r3, r3, r0
 2047 0038 9B78     		ldrb	r3, [r3, #2]
 2048 003a DBB2     		uxtb	r3, r3
 2049 003c 43F00103 		orr	r3, r3, #1
 2050 0040 D8B2     		uxtb	r0, r3
 2051 0042 1B49     		ldr	r1, .L132
 2052 0044 1346     		mov	r3, r2
 2053 0046 5B00     		lsls	r3, r3, #1
 2054 0048 1344     		add	r3, r3, r2
 2055 004a 9B00     		lsls	r3, r3, #2
 2056 004c 0B44     		add	r3, r3, r1
 2057 004e 0246     		mov	r2, r0
 2058 0050 9A70     		strb	r2, [r3, #2]
 985:Generated_Source\PSoC5/USBFS_std.c **** 
 986:Generated_Source\PSoC5/USBFS_std.c ****         /* Clear the data toggle */
 987:Generated_Source\PSoC5/USBFS_std.c ****         USBFS_EP[ep].epToggle = 0u;
 2059              		.loc 1 987 0
 2060 0052 FA79     		ldrb	r2, [r7, #7]	@ zero_extendqisi2
 2061 0054 1649     		ldr	r1, .L132
 2062 0056 1346     		mov	r3, r2
 2063 0058 5B00     		lsls	r3, r3, #1
 2064 005a 1344     		add	r3, r3, r2
 2065 005c 9B00     		lsls	r3, r3, #2
 2066 005e 0B44     		add	r3, r3, r1
 2067 0060 0022     		movs	r2, #0
 2068 0062 DA70     		strb	r2, [r3, #3]
 988:Generated_Source\PSoC5/USBFS_std.c ****         USBFS_EP[ep].apiEpState = USBFS_NO_EVENT_ALLOWED;
 2069              		.loc 1 988 0
 2070 0064 FA79     		ldrb	r2, [r7, #7]	@ zero_extendqisi2
 2071 0066 1249     		ldr	r1, .L132
ARM GAS  C:\Users\JOSANT~1\AppData\Local\Temp\cceoxjZy.s 			page 56


 2072 0068 1346     		mov	r3, r2
 2073 006a 5B00     		lsls	r3, r3, #1
 2074 006c 1344     		add	r3, r3, r2
 2075 006e 9B00     		lsls	r3, r3, #2
 2076 0070 0B44     		add	r3, r3, r1
 2077 0072 0222     		movs	r2, #2
 2078 0074 5A70     		strb	r2, [r3, #1]
 989:Generated_Source\PSoC5/USBFS_std.c **** 
 990:Generated_Source\PSoC5/USBFS_std.c ****         if ((USBFS_EP[ep].addr & USBFS_DIR_IN) != 0u)
 2079              		.loc 1 990 0
 2080 0076 FA79     		ldrb	r2, [r7, #7]	@ zero_extendqisi2
 2081 0078 0D49     		ldr	r1, .L132
 2082 007a 1346     		mov	r3, r2
 2083 007c 5B00     		lsls	r3, r3, #1
 2084 007e 1344     		add	r3, r3, r2
 2085 0080 9B00     		lsls	r3, r3, #2
 2086 0082 0B44     		add	r3, r3, r1
 2087 0084 1B79     		ldrb	r3, [r3, #4]
 2088 0086 DBB2     		uxtb	r3, r3
 2089 0088 DBB2     		uxtb	r3, r3
 2090 008a 5BB2     		sxtb	r3, r3
 2091 008c 002B     		cmp	r3, #0
 2092 008e 05DA     		bge	.L131
 991:Generated_Source\PSoC5/USBFS_std.c ****         {
 992:Generated_Source\PSoC5/USBFS_std.c ****             /* IN Endpoint */
 993:Generated_Source\PSoC5/USBFS_std.c ****             CY_SET_REG8((reg8 *)(USBFS_SIE_EP1_CR0_IND + ri), USBFS_MODE_NAK_IN);
 2093              		.loc 1 993 0
 2094 0090 FA7B     		ldrb	r2, [r7, #15]	@ zero_extendqisi2
 2095 0092 084B     		ldr	r3, .L132+4
 2096 0094 1344     		add	r3, r3, r2
 2097 0096 0C22     		movs	r2, #12
 2098 0098 1A70     		strb	r2, [r3]
 2099 009a 04E0     		b	.L129
 2100              	.L131:
 994:Generated_Source\PSoC5/USBFS_std.c ****         }
 995:Generated_Source\PSoC5/USBFS_std.c ****         else
 996:Generated_Source\PSoC5/USBFS_std.c ****         {
 997:Generated_Source\PSoC5/USBFS_std.c ****             /* OUT Endpoint */
 998:Generated_Source\PSoC5/USBFS_std.c ****             CY_SET_REG8((reg8 *)(USBFS_SIE_EP1_CR0_IND + ri), USBFS_MODE_NAK_OUT);
 2101              		.loc 1 998 0
 2102 009c FA7B     		ldrb	r2, [r7, #15]	@ zero_extendqisi2
 2103 009e 054B     		ldr	r3, .L132+4
 2104 00a0 1344     		add	r3, r3, r2
 2105 00a2 0822     		movs	r2, #8
 2106 00a4 1A70     		strb	r2, [r3]
 2107              	.L129:
 999:Generated_Source\PSoC5/USBFS_std.c ****         }
1000:Generated_Source\PSoC5/USBFS_std.c ****     }
1001:Generated_Source\PSoC5/USBFS_std.c **** }
 2108              		.loc 1 1001 0
 2109 00a6 1437     		adds	r7, r7, #20
 2110              		.cfi_def_cfa_offset 4
 2111 00a8 BD46     		mov	sp, r7
 2112              		.cfi_def_cfa_register 13
 2113              		@ sp needed
 2114 00aa 5DF8047B 		ldr	r7, [sp], #4
 2115              		.cfi_restore 7
ARM GAS  C:\Users\JOSANT~1\AppData\Local\Temp\cceoxjZy.s 			page 57


 2116              		.cfi_def_cfa_offset 0
 2117 00ae 7047     		bx	lr
 2118              	.L133:
 2119              		.align	2
 2120              	.L132:
 2121 00b0 00000000 		.word	USBFS_EP
 2122 00b4 0E600040 		.word	1073766414
 2123              		.cfi_endproc
 2124              	.LFE7:
 2125              		.size	USBFS_TerminateEP, .-USBFS_TerminateEP
 2126              		.section	.text.USBFS_SetEndpointHalt,"ax",%progbits
 2127              		.align	2
 2128              		.global	USBFS_SetEndpointHalt
 2129              		.thumb
 2130              		.thumb_func
 2131              		.type	USBFS_SetEndpointHalt, %function
 2132              	USBFS_SetEndpointHalt:
 2133              	.LFB8:
1002:Generated_Source\PSoC5/USBFS_std.c **** 
1003:Generated_Source\PSoC5/USBFS_std.c **** 
1004:Generated_Source\PSoC5/USBFS_std.c **** /*******************************************************************************
1005:Generated_Source\PSoC5/USBFS_std.c **** * Function Name: USBFS_SetEndpointHalt
1006:Generated_Source\PSoC5/USBFS_std.c **** ********************************************************************************
1007:Generated_Source\PSoC5/USBFS_std.c **** *
1008:Generated_Source\PSoC5/USBFS_std.c **** * Summary:
1009:Generated_Source\PSoC5/USBFS_std.c **** *  This routine handles set endpoint halt.
1010:Generated_Source\PSoC5/USBFS_std.c **** *
1011:Generated_Source\PSoC5/USBFS_std.c **** * Parameters:
1012:Generated_Source\PSoC5/USBFS_std.c **** *  None.
1013:Generated_Source\PSoC5/USBFS_std.c **** *
1014:Generated_Source\PSoC5/USBFS_std.c **** * Return:
1015:Generated_Source\PSoC5/USBFS_std.c **** *  requestHandled.
1016:Generated_Source\PSoC5/USBFS_std.c **** *
1017:Generated_Source\PSoC5/USBFS_std.c **** * Reentrant:
1018:Generated_Source\PSoC5/USBFS_std.c **** *  No.
1019:Generated_Source\PSoC5/USBFS_std.c **** *
1020:Generated_Source\PSoC5/USBFS_std.c **** *******************************************************************************/
1021:Generated_Source\PSoC5/USBFS_std.c **** uint8 USBFS_SetEndpointHalt(void) 
1022:Generated_Source\PSoC5/USBFS_std.c **** {
 2134              		.loc 1 1022 0
 2135              		.cfi_startproc
 2136              		@ args = 0, pretend = 0, frame = 8
 2137              		@ frame_needed = 1, uses_anonymous_args = 0
 2138 0000 80B5     		push	{r7, lr}
 2139              		.cfi_def_cfa_offset 8
 2140              		.cfi_offset 7, -8
 2141              		.cfi_offset 14, -4
 2142 0002 82B0     		sub	sp, sp, #8
 2143              		.cfi_def_cfa_offset 16
 2144 0004 00AF     		add	r7, sp, #0
 2145              		.cfi_def_cfa_register 7
1023:Generated_Source\PSoC5/USBFS_std.c ****     uint8 ep;
1024:Generated_Source\PSoC5/USBFS_std.c ****     uint8 ri;
1025:Generated_Source\PSoC5/USBFS_std.c ****     uint8 requestHandled = USBFS_FALSE;
 2146              		.loc 1 1025 0
 2147 0006 0023     		movs	r3, #0
 2148 0008 FB71     		strb	r3, [r7, #7]
ARM GAS  C:\Users\JOSANT~1\AppData\Local\Temp\cceoxjZy.s 			page 58


1026:Generated_Source\PSoC5/USBFS_std.c **** 
1027:Generated_Source\PSoC5/USBFS_std.c ****     /* Set endpoint halt */
1028:Generated_Source\PSoC5/USBFS_std.c ****     ep = CY_GET_REG8(USBFS_wIndexLo) & USBFS_DIR_UNUSED;
 2149              		.loc 1 1028 0
 2150 000a 324B     		ldr	r3, .L139
 2151 000c 1B78     		ldrb	r3, [r3]
 2152 000e DBB2     		uxtb	r3, r3
 2153 0010 03F07F03 		and	r3, r3, #127
 2154 0014 BB71     		strb	r3, [r7, #6]
1029:Generated_Source\PSoC5/USBFS_std.c ****     ri = ((ep - USBFS_EP1) << USBFS_EPX_CNTX_ADDR_SHIFT);
 2155              		.loc 1 1029 0
 2156 0016 BB79     		ldrb	r3, [r7, #6]
 2157 0018 013B     		subs	r3, r3, #1
 2158 001a DBB2     		uxtb	r3, r3
 2159 001c 1B01     		lsls	r3, r3, #4
 2160 001e 7B71     		strb	r3, [r7, #5]
1030:Generated_Source\PSoC5/USBFS_std.c **** 
1031:Generated_Source\PSoC5/USBFS_std.c ****     if ((ep > USBFS_EP0) && (ep < USBFS_MAX_EP))
 2161              		.loc 1 1031 0
 2162 0020 BB79     		ldrb	r3, [r7, #6]	@ zero_extendqisi2
 2163 0022 002B     		cmp	r3, #0
 2164 0024 51D0     		beq	.L135
 2165              		.loc 1 1031 0 is_stmt 0 discriminator 1
 2166 0026 BB79     		ldrb	r3, [r7, #6]	@ zero_extendqisi2
 2167 0028 082B     		cmp	r3, #8
 2168 002a 4ED8     		bhi	.L135
1032:Generated_Source\PSoC5/USBFS_std.c ****     {
1033:Generated_Source\PSoC5/USBFS_std.c ****         /* Set the endpoint Halt */
1034:Generated_Source\PSoC5/USBFS_std.c ****         USBFS_EP[ep].hwEpState |= (USBFS_ENDPOINT_STATUS_HALT);
 2169              		.loc 1 1034 0 is_stmt 1
 2170 002c BA79     		ldrb	r2, [r7, #6]	@ zero_extendqisi2
 2171 002e B979     		ldrb	r1, [r7, #6]	@ zero_extendqisi2
 2172 0030 2948     		ldr	r0, .L139+4
 2173 0032 0B46     		mov	r3, r1
 2174 0034 5B00     		lsls	r3, r3, #1
 2175 0036 0B44     		add	r3, r3, r1
 2176 0038 9B00     		lsls	r3, r3, #2
 2177 003a 0344     		add	r3, r3, r0
 2178 003c 9B78     		ldrb	r3, [r3, #2]
 2179 003e DBB2     		uxtb	r3, r3
 2180 0040 43F00103 		orr	r3, r3, #1
 2181 0044 D8B2     		uxtb	r0, r3
 2182 0046 2449     		ldr	r1, .L139+4
 2183 0048 1346     		mov	r3, r2
 2184 004a 5B00     		lsls	r3, r3, #1
 2185 004c 1344     		add	r3, r3, r2
 2186 004e 9B00     		lsls	r3, r3, #2
 2187 0050 0B44     		add	r3, r3, r1
 2188 0052 0246     		mov	r2, r0
 2189 0054 9A70     		strb	r2, [r3, #2]
1035:Generated_Source\PSoC5/USBFS_std.c **** 
1036:Generated_Source\PSoC5/USBFS_std.c ****         /* Clear the data toggle */
1037:Generated_Source\PSoC5/USBFS_std.c ****         USBFS_EP[ep].epToggle = 0u;
 2190              		.loc 1 1037 0
 2191 0056 BA79     		ldrb	r2, [r7, #6]	@ zero_extendqisi2
 2192 0058 1F49     		ldr	r1, .L139+4
 2193 005a 1346     		mov	r3, r2
ARM GAS  C:\Users\JOSANT~1\AppData\Local\Temp\cceoxjZy.s 			page 59


 2194 005c 5B00     		lsls	r3, r3, #1
 2195 005e 1344     		add	r3, r3, r2
 2196 0060 9B00     		lsls	r3, r3, #2
 2197 0062 0B44     		add	r3, r3, r1
 2198 0064 0022     		movs	r2, #0
 2199 0066 DA70     		strb	r2, [r3, #3]
1038:Generated_Source\PSoC5/USBFS_std.c ****         USBFS_EP[ep].apiEpState |= USBFS_NO_EVENT_ALLOWED;
 2200              		.loc 1 1038 0
 2201 0068 BA79     		ldrb	r2, [r7, #6]	@ zero_extendqisi2
 2202 006a B979     		ldrb	r1, [r7, #6]	@ zero_extendqisi2
 2203 006c 1A48     		ldr	r0, .L139+4
 2204 006e 0B46     		mov	r3, r1
 2205 0070 5B00     		lsls	r3, r3, #1
 2206 0072 0B44     		add	r3, r3, r1
 2207 0074 9B00     		lsls	r3, r3, #2
 2208 0076 0344     		add	r3, r3, r0
 2209 0078 5B78     		ldrb	r3, [r3, #1]
 2210 007a DBB2     		uxtb	r3, r3
 2211 007c 43F00203 		orr	r3, r3, #2
 2212 0080 D8B2     		uxtb	r0, r3
 2213 0082 1549     		ldr	r1, .L139+4
 2214 0084 1346     		mov	r3, r2
 2215 0086 5B00     		lsls	r3, r3, #1
 2216 0088 1344     		add	r3, r3, r2
 2217 008a 9B00     		lsls	r3, r3, #2
 2218 008c 0B44     		add	r3, r3, r1
 2219 008e 0246     		mov	r2, r0
 2220 0090 5A70     		strb	r2, [r3, #1]
1039:Generated_Source\PSoC5/USBFS_std.c **** 
1040:Generated_Source\PSoC5/USBFS_std.c ****         if ((USBFS_EP[ep].addr & USBFS_DIR_IN) != 0u)
 2221              		.loc 1 1040 0
 2222 0092 BA79     		ldrb	r2, [r7, #6]	@ zero_extendqisi2
 2223 0094 1049     		ldr	r1, .L139+4
 2224 0096 1346     		mov	r3, r2
 2225 0098 5B00     		lsls	r3, r3, #1
 2226 009a 1344     		add	r3, r3, r2
 2227 009c 9B00     		lsls	r3, r3, #2
 2228 009e 0B44     		add	r3, r3, r1
 2229 00a0 1B79     		ldrb	r3, [r3, #4]
 2230 00a2 DBB2     		uxtb	r3, r3
 2231 00a4 DBB2     		uxtb	r3, r3
 2232 00a6 5BB2     		sxtb	r3, r3
 2233 00a8 002B     		cmp	r3, #0
 2234 00aa 05DA     		bge	.L136
1041:Generated_Source\PSoC5/USBFS_std.c ****         {
1042:Generated_Source\PSoC5/USBFS_std.c ****             /* IN Endpoint */
1043:Generated_Source\PSoC5/USBFS_std.c ****             CY_SET_REG8((reg8 *)(USBFS_SIE_EP1_CR0_IND + ri), USBFS_MODE_STALL_DATA_EP |
 2235              		.loc 1 1043 0
 2236 00ac 7A79     		ldrb	r2, [r7, #5]	@ zero_extendqisi2
 2237 00ae 0B4B     		ldr	r3, .L139+8
 2238 00b0 1344     		add	r3, r3, r2
 2239 00b2 8D22     		movs	r2, #141
 2240 00b4 1A70     		strb	r2, [r3]
 2241 00b6 04E0     		b	.L137
 2242              	.L136:
1044:Generated_Source\PSoC5/USBFS_std.c ****                                                                USBFS_MODE_ACK_IN);
1045:Generated_Source\PSoC5/USBFS_std.c ****         }
ARM GAS  C:\Users\JOSANT~1\AppData\Local\Temp\cceoxjZy.s 			page 60


1046:Generated_Source\PSoC5/USBFS_std.c ****         else
1047:Generated_Source\PSoC5/USBFS_std.c ****         {
1048:Generated_Source\PSoC5/USBFS_std.c ****             /* OUT Endpoint */
1049:Generated_Source\PSoC5/USBFS_std.c ****             CY_SET_REG8((reg8 *)(USBFS_SIE_EP1_CR0_IND + ri), USBFS_MODE_STALL_DATA_EP |
 2243              		.loc 1 1049 0
 2244 00b8 7A79     		ldrb	r2, [r7, #5]	@ zero_extendqisi2
 2245 00ba 084B     		ldr	r3, .L139+8
 2246 00bc 1344     		add	r3, r3, r2
 2247 00be 8922     		movs	r2, #137
 2248 00c0 1A70     		strb	r2, [r3]
 2249              	.L137:
1050:Generated_Source\PSoC5/USBFS_std.c ****                                                                USBFS_MODE_ACK_OUT);
1051:Generated_Source\PSoC5/USBFS_std.c ****         }
1052:Generated_Source\PSoC5/USBFS_std.c ****         requestHandled = USBFS_InitNoDataControlTransfer();
 2250              		.loc 1 1052 0
 2251 00c2 FFF7FEFF 		bl	USBFS_InitNoDataControlTransfer
 2252 00c6 0346     		mov	r3, r0
 2253 00c8 FB71     		strb	r3, [r7, #7]
 2254              	.L135:
1053:Generated_Source\PSoC5/USBFS_std.c ****     }
1054:Generated_Source\PSoC5/USBFS_std.c **** 
1055:Generated_Source\PSoC5/USBFS_std.c ****     return(requestHandled);
 2255              		.loc 1 1055 0
 2256 00ca FB79     		ldrb	r3, [r7, #7]	@ zero_extendqisi2
1056:Generated_Source\PSoC5/USBFS_std.c **** }
 2257              		.loc 1 1056 0
 2258 00cc 1846     		mov	r0, r3
 2259 00ce 0837     		adds	r7, r7, #8
 2260              		.cfi_def_cfa_offset 8
 2261 00d0 BD46     		mov	sp, r7
 2262              		.cfi_def_cfa_register 13
 2263              		@ sp needed
 2264 00d2 80BD     		pop	{r7, pc}
 2265              	.L140:
 2266              		.align	2
 2267              	.L139:
 2268 00d4 04600040 		.word	1073766404
 2269 00d8 00000000 		.word	USBFS_EP
 2270 00dc 0E600040 		.word	1073766414
 2271              		.cfi_endproc
 2272              	.LFE8:
 2273              		.size	USBFS_SetEndpointHalt, .-USBFS_SetEndpointHalt
 2274              		.section	.text.USBFS_ClearEndpointHalt,"ax",%progbits
 2275              		.align	2
 2276              		.global	USBFS_ClearEndpointHalt
 2277              		.thumb
 2278              		.thumb_func
 2279              		.type	USBFS_ClearEndpointHalt, %function
 2280              	USBFS_ClearEndpointHalt:
 2281              	.LFB9:
1057:Generated_Source\PSoC5/USBFS_std.c **** 
1058:Generated_Source\PSoC5/USBFS_std.c **** 
1059:Generated_Source\PSoC5/USBFS_std.c **** /*******************************************************************************
1060:Generated_Source\PSoC5/USBFS_std.c **** * Function Name: USBFS_ClearEndpointHalt
1061:Generated_Source\PSoC5/USBFS_std.c **** ********************************************************************************
1062:Generated_Source\PSoC5/USBFS_std.c **** *
1063:Generated_Source\PSoC5/USBFS_std.c **** * Summary:
ARM GAS  C:\Users\JOSANT~1\AppData\Local\Temp\cceoxjZy.s 			page 61


1064:Generated_Source\PSoC5/USBFS_std.c **** *  This routine handles clear endpoint halt.
1065:Generated_Source\PSoC5/USBFS_std.c **** *
1066:Generated_Source\PSoC5/USBFS_std.c **** * Parameters:
1067:Generated_Source\PSoC5/USBFS_std.c **** *  None.
1068:Generated_Source\PSoC5/USBFS_std.c **** *
1069:Generated_Source\PSoC5/USBFS_std.c **** * Return:
1070:Generated_Source\PSoC5/USBFS_std.c **** *  requestHandled.
1071:Generated_Source\PSoC5/USBFS_std.c **** *
1072:Generated_Source\PSoC5/USBFS_std.c **** * Reentrant:
1073:Generated_Source\PSoC5/USBFS_std.c **** *  No.
1074:Generated_Source\PSoC5/USBFS_std.c **** *
1075:Generated_Source\PSoC5/USBFS_std.c **** *******************************************************************************/
1076:Generated_Source\PSoC5/USBFS_std.c **** uint8 USBFS_ClearEndpointHalt(void) 
1077:Generated_Source\PSoC5/USBFS_std.c **** {
 2282              		.loc 1 1077 0
 2283              		.cfi_startproc
 2284              		@ args = 0, pretend = 0, frame = 8
 2285              		@ frame_needed = 1, uses_anonymous_args = 0
 2286 0000 80B5     		push	{r7, lr}
 2287              		.cfi_def_cfa_offset 8
 2288              		.cfi_offset 7, -8
 2289              		.cfi_offset 14, -4
 2290 0002 82B0     		sub	sp, sp, #8
 2291              		.cfi_def_cfa_offset 16
 2292 0004 00AF     		add	r7, sp, #0
 2293              		.cfi_def_cfa_register 7
1078:Generated_Source\PSoC5/USBFS_std.c ****     uint8 ep;
1079:Generated_Source\PSoC5/USBFS_std.c ****     uint8 ri;
1080:Generated_Source\PSoC5/USBFS_std.c ****     uint8 requestHandled = USBFS_FALSE;
 2294              		.loc 1 1080 0
 2295 0006 0023     		movs	r3, #0
 2296 0008 FB71     		strb	r3, [r7, #7]
1081:Generated_Source\PSoC5/USBFS_std.c **** 
1082:Generated_Source\PSoC5/USBFS_std.c ****     /* Clear endpoint halt */
1083:Generated_Source\PSoC5/USBFS_std.c ****     ep = CY_GET_REG8(USBFS_wIndexLo) & USBFS_DIR_UNUSED;
 2297              		.loc 1 1083 0
 2298 000a 4A4B     		ldr	r3, .L149
 2299 000c 1B78     		ldrb	r3, [r3]
 2300 000e DBB2     		uxtb	r3, r3
 2301 0010 03F07F03 		and	r3, r3, #127
 2302 0014 BB71     		strb	r3, [r7, #6]
1084:Generated_Source\PSoC5/USBFS_std.c ****     ri = ((ep - USBFS_EP1) << USBFS_EPX_CNTX_ADDR_SHIFT);
 2303              		.loc 1 1084 0
 2304 0016 BB79     		ldrb	r3, [r7, #6]
 2305 0018 013B     		subs	r3, r3, #1
 2306 001a DBB2     		uxtb	r3, r3
 2307 001c 1B01     		lsls	r3, r3, #4
 2308 001e 7B71     		strb	r3, [r7, #5]
1085:Generated_Source\PSoC5/USBFS_std.c **** 
1086:Generated_Source\PSoC5/USBFS_std.c ****     if ((ep > USBFS_EP0) && (ep < USBFS_MAX_EP))
 2309              		.loc 1 1086 0
 2310 0020 BB79     		ldrb	r3, [r7, #6]	@ zero_extendqisi2
 2311 0022 002B     		cmp	r3, #0
 2312 0024 00F08180 		beq	.L142
 2313              		.loc 1 1086 0 is_stmt 0 discriminator 1
 2314 0028 BB79     		ldrb	r3, [r7, #6]	@ zero_extendqisi2
 2315 002a 082B     		cmp	r3, #8
ARM GAS  C:\Users\JOSANT~1\AppData\Local\Temp\cceoxjZy.s 			page 62


 2316 002c 7DD8     		bhi	.L142
1087:Generated_Source\PSoC5/USBFS_std.c ****     {
1088:Generated_Source\PSoC5/USBFS_std.c ****         /* Clear the endpoint Halt */
1089:Generated_Source\PSoC5/USBFS_std.c ****         USBFS_EP[ep].hwEpState &= (uint8)~(USBFS_ENDPOINT_STATUS_HALT);
 2317              		.loc 1 1089 0 is_stmt 1
 2318 002e BA79     		ldrb	r2, [r7, #6]	@ zero_extendqisi2
 2319 0030 B979     		ldrb	r1, [r7, #6]	@ zero_extendqisi2
 2320 0032 4148     		ldr	r0, .L149+4
 2321 0034 0B46     		mov	r3, r1
 2322 0036 5B00     		lsls	r3, r3, #1
 2323 0038 0B44     		add	r3, r3, r1
 2324 003a 9B00     		lsls	r3, r3, #2
 2325 003c 0344     		add	r3, r3, r0
 2326 003e 9B78     		ldrb	r3, [r3, #2]
 2327 0040 DBB2     		uxtb	r3, r3
 2328 0042 23F00103 		bic	r3, r3, #1
 2329 0046 D8B2     		uxtb	r0, r3
 2330 0048 3B49     		ldr	r1, .L149+4
 2331 004a 1346     		mov	r3, r2
 2332 004c 5B00     		lsls	r3, r3, #1
 2333 004e 1344     		add	r3, r3, r2
 2334 0050 9B00     		lsls	r3, r3, #2
 2335 0052 0B44     		add	r3, r3, r1
 2336 0054 0246     		mov	r2, r0
 2337 0056 9A70     		strb	r2, [r3, #2]
1090:Generated_Source\PSoC5/USBFS_std.c **** 
1091:Generated_Source\PSoC5/USBFS_std.c ****         /* Clear the data toggle */
1092:Generated_Source\PSoC5/USBFS_std.c ****         USBFS_EP[ep].epToggle = 0u;
 2338              		.loc 1 1092 0
 2339 0058 BA79     		ldrb	r2, [r7, #6]	@ zero_extendqisi2
 2340 005a 3749     		ldr	r1, .L149+4
 2341 005c 1346     		mov	r3, r2
 2342 005e 5B00     		lsls	r3, r3, #1
 2343 0060 1344     		add	r3, r3, r2
 2344 0062 9B00     		lsls	r3, r3, #2
 2345 0064 0B44     		add	r3, r3, r1
 2346 0066 0022     		movs	r2, #0
 2347 0068 DA70     		strb	r2, [r3, #3]
1093:Generated_Source\PSoC5/USBFS_std.c ****         /* Clear toggle bit for already armed packet */
1094:Generated_Source\PSoC5/USBFS_std.c ****         CY_SET_REG8((reg8 *)(USBFS_SIE_EP1_CNT0_IND + ri), CY_GET_REG8(
 2348              		.loc 1 1094 0
 2349 006a 7A79     		ldrb	r2, [r7, #5]	@ zero_extendqisi2
 2350 006c 334B     		ldr	r3, .L149+8
 2351 006e 1344     		add	r3, r3, r2
 2352 0070 1946     		mov	r1, r3
 2353 0072 7A79     		ldrb	r2, [r7, #5]	@ zero_extendqisi2
 2354 0074 314B     		ldr	r3, .L149+8
 2355 0076 1344     		add	r3, r3, r2
 2356 0078 1B78     		ldrb	r3, [r3]
 2357 007a DBB2     		uxtb	r3, r3
 2358 007c 03F07F03 		and	r3, r3, #127
 2359 0080 DBB2     		uxtb	r3, r3
 2360 0082 0B70     		strb	r3, [r1]
1095:Generated_Source\PSoC5/USBFS_std.c ****                     (reg8 *)(USBFS_SIE_EP1_CNT0_IND + ri)) & (uint8)~USBFS_EPX_CNT_DATA_TOGGLE);
1096:Generated_Source\PSoC5/USBFS_std.c ****         /* Return API State as it was defined before */
1097:Generated_Source\PSoC5/USBFS_std.c ****         USBFS_EP[ep].apiEpState &= (uint8)~USBFS_NO_EVENT_ALLOWED;
 2361              		.loc 1 1097 0
ARM GAS  C:\Users\JOSANT~1\AppData\Local\Temp\cceoxjZy.s 			page 63


 2362 0084 BA79     		ldrb	r2, [r7, #6]	@ zero_extendqisi2
 2363 0086 B979     		ldrb	r1, [r7, #6]	@ zero_extendqisi2
 2364 0088 2B48     		ldr	r0, .L149+4
 2365 008a 0B46     		mov	r3, r1
 2366 008c 5B00     		lsls	r3, r3, #1
 2367 008e 0B44     		add	r3, r3, r1
 2368 0090 9B00     		lsls	r3, r3, #2
 2369 0092 0344     		add	r3, r3, r0
 2370 0094 5B78     		ldrb	r3, [r3, #1]
 2371 0096 DBB2     		uxtb	r3, r3
 2372 0098 23F00203 		bic	r3, r3, #2
 2373 009c D8B2     		uxtb	r0, r3
 2374 009e 2649     		ldr	r1, .L149+4
 2375 00a0 1346     		mov	r3, r2
 2376 00a2 5B00     		lsls	r3, r3, #1
 2377 00a4 1344     		add	r3, r3, r2
 2378 00a6 9B00     		lsls	r3, r3, #2
 2379 00a8 0B44     		add	r3, r3, r1
 2380 00aa 0246     		mov	r2, r0
 2381 00ac 5A70     		strb	r2, [r3, #1]
1098:Generated_Source\PSoC5/USBFS_std.c **** 
1099:Generated_Source\PSoC5/USBFS_std.c ****         if ((USBFS_EP[ep].addr & USBFS_DIR_IN) != 0u)
 2382              		.loc 1 1099 0
 2383 00ae BA79     		ldrb	r2, [r7, #6]	@ zero_extendqisi2
 2384 00b0 2149     		ldr	r1, .L149+4
 2385 00b2 1346     		mov	r3, r2
 2386 00b4 5B00     		lsls	r3, r3, #1
 2387 00b6 1344     		add	r3, r3, r2
 2388 00b8 9B00     		lsls	r3, r3, #2
 2389 00ba 0B44     		add	r3, r3, r1
 2390 00bc 1B79     		ldrb	r3, [r3, #4]
 2391 00be DBB2     		uxtb	r3, r3
 2392 00c0 DBB2     		uxtb	r3, r3
 2393 00c2 5BB2     		sxtb	r3, r3
 2394 00c4 002B     		cmp	r3, #0
 2395 00c6 16DA     		bge	.L143
1100:Generated_Source\PSoC5/USBFS_std.c ****         {
1101:Generated_Source\PSoC5/USBFS_std.c ****             /* IN Endpoint */
1102:Generated_Source\PSoC5/USBFS_std.c ****             if(USBFS_EP[ep].apiEpState == USBFS_IN_BUFFER_EMPTY)
 2396              		.loc 1 1102 0
 2397 00c8 BA79     		ldrb	r2, [r7, #6]	@ zero_extendqisi2
 2398 00ca 1B49     		ldr	r1, .L149+4
 2399 00cc 1346     		mov	r3, r2
 2400 00ce 5B00     		lsls	r3, r3, #1
 2401 00d0 1344     		add	r3, r3, r2
 2402 00d2 9B00     		lsls	r3, r3, #2
 2403 00d4 0B44     		add	r3, r3, r1
 2404 00d6 5B78     		ldrb	r3, [r3, #1]
 2405 00d8 DBB2     		uxtb	r3, r3
 2406 00da 012B     		cmp	r3, #1
 2407 00dc 05D1     		bne	.L144
1103:Generated_Source\PSoC5/USBFS_std.c ****             {       /* Wait for next packet from application */
1104:Generated_Source\PSoC5/USBFS_std.c ****                 CY_SET_REG8((reg8 *)(USBFS_SIE_EP1_CR0_IND + ri), USBFS_MODE_NAK_IN);
 2408              		.loc 1 1104 0
 2409 00de 7A79     		ldrb	r2, [r7, #5]	@ zero_extendqisi2
 2410 00e0 174B     		ldr	r3, .L149+12
 2411 00e2 1344     		add	r3, r3, r2
ARM GAS  C:\Users\JOSANT~1\AppData\Local\Temp\cceoxjZy.s 			page 64


 2412 00e4 0C22     		movs	r2, #12
 2413 00e6 1A70     		strb	r2, [r3]
 2414 00e8 1BE0     		b	.L146
 2415              	.L144:
1105:Generated_Source\PSoC5/USBFS_std.c ****             }
1106:Generated_Source\PSoC5/USBFS_std.c ****             else    /* Continue armed transfer */
1107:Generated_Source\PSoC5/USBFS_std.c ****             {
1108:Generated_Source\PSoC5/USBFS_std.c ****                 CY_SET_REG8((reg8 *)(USBFS_SIE_EP1_CR0_IND + ri), USBFS_MODE_ACK_IN);
 2416              		.loc 1 1108 0
 2417 00ea 7A79     		ldrb	r2, [r7, #5]	@ zero_extendqisi2
 2418 00ec 144B     		ldr	r3, .L149+12
 2419 00ee 1344     		add	r3, r3, r2
 2420 00f0 0D22     		movs	r2, #13
 2421 00f2 1A70     		strb	r2, [r3]
 2422 00f4 15E0     		b	.L146
 2423              	.L143:
1109:Generated_Source\PSoC5/USBFS_std.c ****             }
1110:Generated_Source\PSoC5/USBFS_std.c ****         }
1111:Generated_Source\PSoC5/USBFS_std.c ****         else
1112:Generated_Source\PSoC5/USBFS_std.c ****         {
1113:Generated_Source\PSoC5/USBFS_std.c ****             /* OUT Endpoint */
1114:Generated_Source\PSoC5/USBFS_std.c ****             if(USBFS_EP[ep].apiEpState == USBFS_OUT_BUFFER_FULL)
 2424              		.loc 1 1114 0
 2425 00f6 BA79     		ldrb	r2, [r7, #6]	@ zero_extendqisi2
 2426 00f8 0F49     		ldr	r1, .L149+4
 2427 00fa 1346     		mov	r3, r2
 2428 00fc 5B00     		lsls	r3, r3, #1
 2429 00fe 1344     		add	r3, r3, r2
 2430 0100 9B00     		lsls	r3, r3, #2
 2431 0102 0B44     		add	r3, r3, r1
 2432 0104 5B78     		ldrb	r3, [r3, #1]
 2433 0106 DBB2     		uxtb	r3, r3
 2434 0108 012B     		cmp	r3, #1
 2435 010a 05D1     		bne	.L147
1115:Generated_Source\PSoC5/USBFS_std.c ****             {       /* Allow application to read full buffer */
1116:Generated_Source\PSoC5/USBFS_std.c ****                 CY_SET_REG8((reg8 *)(USBFS_SIE_EP1_CR0_IND + ri), USBFS_MODE_NAK_OUT);
 2436              		.loc 1 1116 0
 2437 010c 7A79     		ldrb	r2, [r7, #5]	@ zero_extendqisi2
 2438 010e 0C4B     		ldr	r3, .L149+12
 2439 0110 1344     		add	r3, r3, r2
 2440 0112 0822     		movs	r2, #8
 2441 0114 1A70     		strb	r2, [r3]
 2442 0116 04E0     		b	.L146
 2443              	.L147:
1117:Generated_Source\PSoC5/USBFS_std.c ****             }
1118:Generated_Source\PSoC5/USBFS_std.c ****             else    /* Mark endpoint as empty, so it will be reloaded */
1119:Generated_Source\PSoC5/USBFS_std.c ****             {
1120:Generated_Source\PSoC5/USBFS_std.c ****                 CY_SET_REG8((reg8 *)(USBFS_SIE_EP1_CR0_IND + ri), USBFS_MODE_ACK_OUT);
 2444              		.loc 1 1120 0
 2445 0118 7A79     		ldrb	r2, [r7, #5]	@ zero_extendqisi2
 2446 011a 094B     		ldr	r3, .L149+12
 2447 011c 1344     		add	r3, r3, r2
 2448 011e 0922     		movs	r2, #9
 2449 0120 1A70     		strb	r2, [r3]
 2450              	.L146:
1121:Generated_Source\PSoC5/USBFS_std.c ****             }
1122:Generated_Source\PSoC5/USBFS_std.c ****         }
ARM GAS  C:\Users\JOSANT~1\AppData\Local\Temp\cceoxjZy.s 			page 65


1123:Generated_Source\PSoC5/USBFS_std.c ****         requestHandled = USBFS_InitNoDataControlTransfer();
 2451              		.loc 1 1123 0
 2452 0122 FFF7FEFF 		bl	USBFS_InitNoDataControlTransfer
 2453 0126 0346     		mov	r3, r0
 2454 0128 FB71     		strb	r3, [r7, #7]
 2455              	.L142:
1124:Generated_Source\PSoC5/USBFS_std.c ****     }
1125:Generated_Source\PSoC5/USBFS_std.c **** 
1126:Generated_Source\PSoC5/USBFS_std.c ****     return(requestHandled);
 2456              		.loc 1 1126 0
 2457 012a FB79     		ldrb	r3, [r7, #7]	@ zero_extendqisi2
1127:Generated_Source\PSoC5/USBFS_std.c **** }
 2458              		.loc 1 1127 0
 2459 012c 1846     		mov	r0, r3
 2460 012e 0837     		adds	r7, r7, #8
 2461              		.cfi_def_cfa_offset 8
 2462 0130 BD46     		mov	sp, r7
 2463              		.cfi_def_cfa_register 13
 2464              		@ sp needed
 2465 0132 80BD     		pop	{r7, pc}
 2466              	.L150:
 2467              		.align	2
 2468              	.L149:
 2469 0134 04600040 		.word	1073766404
 2470 0138 00000000 		.word	USBFS_EP
 2471 013c 0C600040 		.word	1073766412
 2472 0140 0E600040 		.word	1073766414
 2473              		.cfi_endproc
 2474              	.LFE9:
 2475              		.size	USBFS_ClearEndpointHalt, .-USBFS_ClearEndpointHalt
 2476              		.section	.text.USBFS_ValidateAlternateSetting,"ax",%progbits
 2477              		.align	2
 2478              		.global	USBFS_ValidateAlternateSetting
 2479              		.thumb
 2480              		.thumb_func
 2481              		.type	USBFS_ValidateAlternateSetting, %function
 2482              	USBFS_ValidateAlternateSetting:
 2483              	.LFB10:
1128:Generated_Source\PSoC5/USBFS_std.c **** 
1129:Generated_Source\PSoC5/USBFS_std.c **** 
1130:Generated_Source\PSoC5/USBFS_std.c **** /*******************************************************************************
1131:Generated_Source\PSoC5/USBFS_std.c **** * Function Name: USBFS_ValidateAlternateSetting
1132:Generated_Source\PSoC5/USBFS_std.c **** ********************************************************************************
1133:Generated_Source\PSoC5/USBFS_std.c **** *
1134:Generated_Source\PSoC5/USBFS_std.c **** * Summary:
1135:Generated_Source\PSoC5/USBFS_std.c **** *  Validates (and records) a SET INTERFACE request.
1136:Generated_Source\PSoC5/USBFS_std.c **** *
1137:Generated_Source\PSoC5/USBFS_std.c **** * Parameters:
1138:Generated_Source\PSoC5/USBFS_std.c **** *  None.
1139:Generated_Source\PSoC5/USBFS_std.c **** *
1140:Generated_Source\PSoC5/USBFS_std.c **** * Return:
1141:Generated_Source\PSoC5/USBFS_std.c **** *  requestHandled.
1142:Generated_Source\PSoC5/USBFS_std.c **** *
1143:Generated_Source\PSoC5/USBFS_std.c **** * Reentrant:
1144:Generated_Source\PSoC5/USBFS_std.c **** *  No.
1145:Generated_Source\PSoC5/USBFS_std.c **** *
1146:Generated_Source\PSoC5/USBFS_std.c **** *******************************************************************************/
ARM GAS  C:\Users\JOSANT~1\AppData\Local\Temp\cceoxjZy.s 			page 66


1147:Generated_Source\PSoC5/USBFS_std.c **** uint8 USBFS_ValidateAlternateSetting(void) 
1148:Generated_Source\PSoC5/USBFS_std.c **** {
 2484              		.loc 1 1148 0
 2485              		.cfi_startproc
 2486              		@ args = 0, pretend = 0, frame = 16
 2487              		@ frame_needed = 1, uses_anonymous_args = 0
 2488 0000 80B5     		push	{r7, lr}
 2489              		.cfi_def_cfa_offset 8
 2490              		.cfi_offset 7, -8
 2491              		.cfi_offset 14, -4
 2492 0002 84B0     		sub	sp, sp, #16
 2493              		.cfi_def_cfa_offset 24
 2494 0004 00AF     		add	r7, sp, #0
 2495              		.cfi_def_cfa_register 7
1149:Generated_Source\PSoC5/USBFS_std.c ****     uint8 requestHandled = USBFS_TRUE;
 2496              		.loc 1 1149 0
 2497 0006 0123     		movs	r3, #1
 2498 0008 FB73     		strb	r3, [r7, #15]
1150:Generated_Source\PSoC5/USBFS_std.c ****     uint8 interfaceNum;
1151:Generated_Source\PSoC5/USBFS_std.c ****     const T_USBFS_LUT CYCODE *pTmp;
1152:Generated_Source\PSoC5/USBFS_std.c ****     uint8 currentInterfacesNum;
1153:Generated_Source\PSoC5/USBFS_std.c **** 
1154:Generated_Source\PSoC5/USBFS_std.c ****     interfaceNum = CY_GET_REG8(USBFS_wIndexLo);
 2499              		.loc 1 1154 0
 2500 000a 164B     		ldr	r3, .L156
 2501 000c 1B78     		ldrb	r3, [r3]
 2502 000e BB73     		strb	r3, [r7, #14]
1155:Generated_Source\PSoC5/USBFS_std.c ****     /* Validate interface setting, stall if invalid. */
1156:Generated_Source\PSoC5/USBFS_std.c ****     pTmp = USBFS_GetConfigTablePtr(USBFS_configuration - 1u);
 2503              		.loc 1 1156 0
 2504 0010 154B     		ldr	r3, .L156+4
 2505 0012 1B78     		ldrb	r3, [r3]
 2506 0014 DBB2     		uxtb	r3, r3
 2507 0016 013B     		subs	r3, r3, #1
 2508 0018 DBB2     		uxtb	r3, r3
 2509 001a 1846     		mov	r0, r3
 2510 001c FFF7FEFF 		bl	USBFS_GetConfigTablePtr
 2511 0020 B860     		str	r0, [r7, #8]
1157:Generated_Source\PSoC5/USBFS_std.c ****     currentInterfacesNum  = ((const uint8 *) pTmp->p_list)[USBFS_CONFIG_DESCR_NUM_INTERFACES];
 2512              		.loc 1 1157 0
 2513 0022 BB68     		ldr	r3, [r7, #8]
 2514 0024 5B68     		ldr	r3, [r3, #4]
 2515 0026 1B79     		ldrb	r3, [r3, #4]
 2516 0028 FB71     		strb	r3, [r7, #7]
1158:Generated_Source\PSoC5/USBFS_std.c **** 
1159:Generated_Source\PSoC5/USBFS_std.c ****     if((interfaceNum >= currentInterfacesNum) || (interfaceNum >= USBFS_MAX_INTERFACES_NUMBER))
 2517              		.loc 1 1159 0
 2518 002a BA7B     		ldrb	r2, [r7, #14]	@ zero_extendqisi2
 2519 002c FB79     		ldrb	r3, [r7, #7]	@ zero_extendqisi2
 2520 002e 9A42     		cmp	r2, r3
 2521 0030 02D2     		bcs	.L152
 2522              		.loc 1 1159 0 is_stmt 0 discriminator 1
 2523 0032 BB7B     		ldrb	r3, [r7, #14]	@ zero_extendqisi2
 2524 0034 012B     		cmp	r3, #1
 2525 0036 02D9     		bls	.L153
 2526              	.L152:
1160:Generated_Source\PSoC5/USBFS_std.c ****     {   /* Wrong interface number */
ARM GAS  C:\Users\JOSANT~1\AppData\Local\Temp\cceoxjZy.s 			page 67


1161:Generated_Source\PSoC5/USBFS_std.c ****         requestHandled = USBFS_FALSE;
 2527              		.loc 1 1161 0 is_stmt 1
 2528 0038 0023     		movs	r3, #0
 2529 003a FB73     		strb	r3, [r7, #15]
 2530 003c 0CE0     		b	.L154
 2531              	.L153:
1162:Generated_Source\PSoC5/USBFS_std.c ****     }
1163:Generated_Source\PSoC5/USBFS_std.c ****     else
1164:Generated_Source\PSoC5/USBFS_std.c ****     {
1165:Generated_Source\PSoC5/USBFS_std.c ****         /* Save current Alt setting to find out the difference in Config() function */
1166:Generated_Source\PSoC5/USBFS_std.c ****         USBFS_interfaceSetting_last[interfaceNum] = USBFS_interfaceSetting[interfaceNum];
 2532              		.loc 1 1166 0
 2533 003e BB7B     		ldrb	r3, [r7, #14]	@ zero_extendqisi2
 2534 0040 BA7B     		ldrb	r2, [r7, #14]	@ zero_extendqisi2
 2535 0042 0A49     		ldr	r1, .L156+8
 2536 0044 8A5C     		ldrb	r2, [r1, r2]
 2537 0046 D1B2     		uxtb	r1, r2
 2538 0048 094A     		ldr	r2, .L156+12
 2539 004a D154     		strb	r1, [r2, r3]
1167:Generated_Source\PSoC5/USBFS_std.c ****         USBFS_interfaceSetting[interfaceNum] = CY_GET_REG8(USBFS_wValueLo);
 2540              		.loc 1 1167 0
 2541 004c BB7B     		ldrb	r3, [r7, #14]	@ zero_extendqisi2
 2542 004e 094A     		ldr	r2, .L156+16
 2543 0050 1278     		ldrb	r2, [r2]
 2544 0052 D1B2     		uxtb	r1, r2
 2545 0054 054A     		ldr	r2, .L156+8
 2546 0056 D154     		strb	r1, [r2, r3]
 2547              	.L154:
1168:Generated_Source\PSoC5/USBFS_std.c ****     }
1169:Generated_Source\PSoC5/USBFS_std.c **** 
1170:Generated_Source\PSoC5/USBFS_std.c ****     return (requestHandled);
 2548              		.loc 1 1170 0
 2549 0058 FB7B     		ldrb	r3, [r7, #15]	@ zero_extendqisi2
1171:Generated_Source\PSoC5/USBFS_std.c **** }
 2550              		.loc 1 1171 0
 2551 005a 1846     		mov	r0, r3
 2552 005c 1037     		adds	r7, r7, #16
 2553              		.cfi_def_cfa_offset 8
 2554 005e BD46     		mov	sp, r7
 2555              		.cfi_def_cfa_register 13
 2556              		@ sp needed
 2557 0060 80BD     		pop	{r7, pc}
 2558              	.L157:
 2559 0062 00BF     		.align	2
 2560              	.L156:
 2561 0064 04600040 		.word	1073766404
 2562 0068 00000000 		.word	USBFS_configuration
 2563 006c 00000000 		.word	USBFS_interfaceSetting
 2564 0070 00000000 		.word	USBFS_interfaceSetting_last
 2565 0074 02600040 		.word	1073766402
 2566              		.cfi_endproc
 2567              	.LFE10:
 2568              		.size	USBFS_ValidateAlternateSetting, .-USBFS_ValidateAlternateSetting
 2569              		.bss
 2570              		.align	2
 2571              	USBFS_tBuffer.5009:
 2572 0000 0000     		.space	2
ARM GAS  C:\Users\JOSANT~1\AppData\Local\Temp\cceoxjZy.s 			page 68


 2573 0002 0000     		.text
 2574              	.Letext0:
 2575              		.file 2 "Generated_Source\\PSoC5\\cytypes.h"
 2576              		.file 3 "Generated_Source\\PSoC5\\USBFS.h"
 2577              		.file 4 "Generated_Source\\PSoC5\\USBFS_pvt.h"