ARM GAS  C:\Users\JOSANT~1\AppData\Local\Temp\ccxO3mQP.s 			page 1


   1              		.syntax unified
   2              		.cpu cortex-m3
   3              		.fpu softvfp
   4              		.eabi_attribute 20, 1
   5              		.eabi_attribute 21, 1
   6              		.eabi_attribute 23, 3
   7              		.eabi_attribute 24, 1
   8              		.eabi_attribute 25, 1
   9              		.eabi_attribute 26, 1
  10              		.eabi_attribute 30, 6
  11              		.eabi_attribute 34, 1
  12              		.eabi_attribute 18, 4
  13              		.thumb
  14              		.file	"USBFS_cls.c"
  15              		.text
  16              	.Ltext0:
  17              		.cfi_sections	.debug_frame
  18              		.section	.text.USBFS_DispatchClassRqst,"ax",%progbits
  19              		.align	2
  20              		.global	USBFS_DispatchClassRqst
  21              		.thumb
  22              		.thumb_func
  23              		.type	USBFS_DispatchClassRqst, %function
  24              	USBFS_DispatchClassRqst:
  25              	.LFB0:
  26              		.file 1 "Generated_Source\\PSoC5\\USBFS_cls.c"
   1:Generated_Source\PSoC5/USBFS_cls.c **** /*******************************************************************************
   2:Generated_Source\PSoC5/USBFS_cls.c **** * File Name: USBFS_cls.c
   3:Generated_Source\PSoC5/USBFS_cls.c **** * Version 2.70
   4:Generated_Source\PSoC5/USBFS_cls.c **** *
   5:Generated_Source\PSoC5/USBFS_cls.c **** * Description:
   6:Generated_Source\PSoC5/USBFS_cls.c **** *  USB Class request handler.
   7:Generated_Source\PSoC5/USBFS_cls.c **** *
   8:Generated_Source\PSoC5/USBFS_cls.c **** * Note:
   9:Generated_Source\PSoC5/USBFS_cls.c **** *
  10:Generated_Source\PSoC5/USBFS_cls.c **** ********************************************************************************
  11:Generated_Source\PSoC5/USBFS_cls.c **** * Copyright 2008-2013, Cypress Semiconductor Corporation.  All rights reserved.
  12:Generated_Source\PSoC5/USBFS_cls.c **** * You may use this file only in accordance with the license, terms, conditions,
  13:Generated_Source\PSoC5/USBFS_cls.c **** * disclaimers, and limitations in the end user license agreement accompanying
  14:Generated_Source\PSoC5/USBFS_cls.c **** * the software package with which this file was provided.
  15:Generated_Source\PSoC5/USBFS_cls.c **** *******************************************************************************/
  16:Generated_Source\PSoC5/USBFS_cls.c **** 
  17:Generated_Source\PSoC5/USBFS_cls.c **** #include "USBFS.h"
  18:Generated_Source\PSoC5/USBFS_cls.c **** 
  19:Generated_Source\PSoC5/USBFS_cls.c **** #if(USBFS_EXTERN_CLS == USBFS_FALSE)
  20:Generated_Source\PSoC5/USBFS_cls.c **** 
  21:Generated_Source\PSoC5/USBFS_cls.c **** #include "USBFS_pvt.h"
  22:Generated_Source\PSoC5/USBFS_cls.c **** 
  23:Generated_Source\PSoC5/USBFS_cls.c **** 
  24:Generated_Source\PSoC5/USBFS_cls.c **** /***************************************
  25:Generated_Source\PSoC5/USBFS_cls.c **** * User Implemented Class Driver Declarations.
  26:Generated_Source\PSoC5/USBFS_cls.c **** ***************************************/
  27:Generated_Source\PSoC5/USBFS_cls.c **** /* `#START USER_DEFINED_CLASS_DECLARATIONS` Place your declaration here */
  28:Generated_Source\PSoC5/USBFS_cls.c **** 
  29:Generated_Source\PSoC5/USBFS_cls.c **** /* `#END` */
  30:Generated_Source\PSoC5/USBFS_cls.c **** 
  31:Generated_Source\PSoC5/USBFS_cls.c **** 
ARM GAS  C:\Users\JOSANT~1\AppData\Local\Temp\ccxO3mQP.s 			page 2


  32:Generated_Source\PSoC5/USBFS_cls.c **** /*******************************************************************************
  33:Generated_Source\PSoC5/USBFS_cls.c **** * Function Name: USBFS_DispatchClassRqst
  34:Generated_Source\PSoC5/USBFS_cls.c **** ********************************************************************************
  35:Generated_Source\PSoC5/USBFS_cls.c **** * Summary:
  36:Generated_Source\PSoC5/USBFS_cls.c **** *  This routine dispatches class specific requests depend on interface class.
  37:Generated_Source\PSoC5/USBFS_cls.c **** *
  38:Generated_Source\PSoC5/USBFS_cls.c **** * Parameters:
  39:Generated_Source\PSoC5/USBFS_cls.c **** *  None.
  40:Generated_Source\PSoC5/USBFS_cls.c **** *
  41:Generated_Source\PSoC5/USBFS_cls.c **** * Return:
  42:Generated_Source\PSoC5/USBFS_cls.c **** *  requestHandled.
  43:Generated_Source\PSoC5/USBFS_cls.c **** *
  44:Generated_Source\PSoC5/USBFS_cls.c **** * Reentrant:
  45:Generated_Source\PSoC5/USBFS_cls.c **** *  No.
  46:Generated_Source\PSoC5/USBFS_cls.c **** *
  47:Generated_Source\PSoC5/USBFS_cls.c **** *******************************************************************************/
  48:Generated_Source\PSoC5/USBFS_cls.c **** uint8 USBFS_DispatchClassRqst(void) 
  49:Generated_Source\PSoC5/USBFS_cls.c **** {
  27              		.loc 1 49 0
  28              		.cfi_startproc
  29              		@ args = 0, pretend = 0, frame = 8
  30              		@ frame_needed = 1, uses_anonymous_args = 0
  31 0000 80B5     		push	{r7, lr}
  32              		.cfi_def_cfa_offset 8
  33              		.cfi_offset 7, -8
  34              		.cfi_offset 14, -4
  35 0002 82B0     		sub	sp, sp, #8
  36              		.cfi_def_cfa_offset 16
  37 0004 00AF     		add	r7, sp, #0
  38              		.cfi_def_cfa_register 7
  50:Generated_Source\PSoC5/USBFS_cls.c ****     uint8 requestHandled = USBFS_FALSE;
  39              		.loc 1 50 0
  40 0006 0023     		movs	r3, #0
  41 0008 FB71     		strb	r3, [r7, #7]
  51:Generated_Source\PSoC5/USBFS_cls.c ****     uint8 interfaceNumber = 0u;
  42              		.loc 1 51 0
  43 000a 0023     		movs	r3, #0
  44 000c BB71     		strb	r3, [r7, #6]
  52:Generated_Source\PSoC5/USBFS_cls.c **** 
  53:Generated_Source\PSoC5/USBFS_cls.c ****     switch(CY_GET_REG8(USBFS_bmRequestType) & USBFS_RQST_RCPT_MASK)
  45              		.loc 1 53 0
  46 000e 1B4B     		ldr	r3, .L14
  47 0010 1B78     		ldrb	r3, [r3]
  48 0012 DBB2     		uxtb	r3, r3
  49 0014 03F00303 		and	r3, r3, #3
  50 0018 012B     		cmp	r3, #1
  51 001a 02D0     		beq	.L3
  52 001c 022B     		cmp	r3, #2
  53 001e 04D0     		beq	.L4
  54:Generated_Source\PSoC5/USBFS_cls.c ****     {
  55:Generated_Source\PSoC5/USBFS_cls.c ****         case USBFS_RQST_RCPT_IFC:        /* Class-specific request directed to an interface */
  56:Generated_Source\PSoC5/USBFS_cls.c ****             interfaceNumber = CY_GET_REG8(USBFS_wIndexLo); /* wIndexLo contain Interface number */
  57:Generated_Source\PSoC5/USBFS_cls.c ****             break;
  58:Generated_Source\PSoC5/USBFS_cls.c ****         case USBFS_RQST_RCPT_EP:         /* Class-specific request directed to the endpoint */
  59:Generated_Source\PSoC5/USBFS_cls.c ****             /* Find related interface to the endpoint, wIndexLo contain EP number */
  60:Generated_Source\PSoC5/USBFS_cls.c ****             interfaceNumber = USBFS_EP[CY_GET_REG8(USBFS_wIndexLo) & 
  61:Generated_Source\PSoC5/USBFS_cls.c ****                               USBFS_DIR_UNUSED].interface;
ARM GAS  C:\Users\JOSANT~1\AppData\Local\Temp\ccxO3mQP.s 			page 3


  62:Generated_Source\PSoC5/USBFS_cls.c ****             break;
  63:Generated_Source\PSoC5/USBFS_cls.c ****         default:    /* RequestHandled is initialized as FALSE by default */
  64:Generated_Source\PSoC5/USBFS_cls.c ****             break;
  54              		.loc 1 64 0
  55 0020 12E0     		b	.L5
  56              	.L3:
  56:Generated_Source\PSoC5/USBFS_cls.c ****             break;
  57              		.loc 1 56 0
  58 0022 174B     		ldr	r3, .L14+4
  59 0024 1B78     		ldrb	r3, [r3]
  60 0026 BB71     		strb	r3, [r7, #6]
  57:Generated_Source\PSoC5/USBFS_cls.c ****         case USBFS_RQST_RCPT_EP:         /* Class-specific request directed to the endpoint */
  61              		.loc 1 57 0
  62 0028 0EE0     		b	.L5
  63              	.L4:
  60:Generated_Source\PSoC5/USBFS_cls.c ****                               USBFS_DIR_UNUSED].interface;
  64              		.loc 1 60 0
  65 002a 154B     		ldr	r3, .L14+4
  66 002c 1B78     		ldrb	r3, [r3]
  67 002e DBB2     		uxtb	r3, r3
  68 0030 03F07F02 		and	r2, r3, #127
  69 0034 1349     		ldr	r1, .L14+8
  70 0036 1346     		mov	r3, r2
  71 0038 5B00     		lsls	r3, r3, #1
  72 003a 1344     		add	r3, r3, r2
  73 003c 9B00     		lsls	r3, r3, #2
  74 003e 0B44     		add	r3, r3, r1
  75 0040 0833     		adds	r3, r3, #8
  76 0042 9B78     		ldrb	r3, [r3, #2]
  77 0044 BB71     		strb	r3, [r7, #6]
  62:Generated_Source\PSoC5/USBFS_cls.c ****         default:    /* RequestHandled is initialized as FALSE by default */
  78              		.loc 1 62 0
  79 0046 00BF     		nop
  80              	.L5:
  65:Generated_Source\PSoC5/USBFS_cls.c ****     }
  66:Generated_Source\PSoC5/USBFS_cls.c ****     /* Handle Class request depend on interface type */
  67:Generated_Source\PSoC5/USBFS_cls.c ****     switch(USBFS_interfaceClass[interfaceNumber])
  81              		.loc 1 67 0
  82 0048 0F4B     		ldr	r3, .L14+12
  83 004a 1A68     		ldr	r2, [r3]
  84 004c BB79     		ldrb	r3, [r7, #6]	@ zero_extendqisi2
  85 004e 1344     		add	r3, r3, r2
  86 0050 1B78     		ldrb	r3, [r3]	@ zero_extendqisi2
  87 0052 022B     		cmp	r3, #2
  88 0054 09D0     		beq	.L12
  89 0056 032B     		cmp	r3, #3
  90 0058 09D0     		beq	.L13
  91 005a 012B     		cmp	r3, #1
  92 005c 00D0     		beq	.L9
  68:Generated_Source\PSoC5/USBFS_cls.c ****     {
  69:Generated_Source\PSoC5/USBFS_cls.c ****         case USBFS_CLASS_HID:
  70:Generated_Source\PSoC5/USBFS_cls.c ****             #if defined(USBFS_ENABLE_HID_CLASS)
  71:Generated_Source\PSoC5/USBFS_cls.c ****                 requestHandled = USBFS_DispatchHIDClassRqst();
  72:Generated_Source\PSoC5/USBFS_cls.c ****             #endif /* USBFS_ENABLE_HID_CLASS */
  73:Generated_Source\PSoC5/USBFS_cls.c ****             break;
  74:Generated_Source\PSoC5/USBFS_cls.c ****         case USBFS_CLASS_AUDIO:
  75:Generated_Source\PSoC5/USBFS_cls.c ****             #if defined(USBFS_ENABLE_AUDIO_CLASS)
ARM GAS  C:\Users\JOSANT~1\AppData\Local\Temp\ccxO3mQP.s 			page 4


  76:Generated_Source\PSoC5/USBFS_cls.c ****                 requestHandled = USBFS_DispatchAUDIOClassRqst();
  77:Generated_Source\PSoC5/USBFS_cls.c ****             #endif /* USBFS_CLASS_AUDIO */
  78:Generated_Source\PSoC5/USBFS_cls.c ****             break;
  79:Generated_Source\PSoC5/USBFS_cls.c ****         case USBFS_CLASS_CDC:
  80:Generated_Source\PSoC5/USBFS_cls.c ****             #if defined(USBFS_ENABLE_CDC_CLASS)
  81:Generated_Source\PSoC5/USBFS_cls.c ****                 requestHandled = USBFS_DispatchCDCClassRqst();
  82:Generated_Source\PSoC5/USBFS_cls.c ****             #endif /* USBFS_ENABLE_CDC_CLASS */
  83:Generated_Source\PSoC5/USBFS_cls.c ****             break;
  84:Generated_Source\PSoC5/USBFS_cls.c ****         default:    /* requestHandled is initialized as FALSE by default */
  85:Generated_Source\PSoC5/USBFS_cls.c ****             break;
  93              		.loc 1 85 0
  94 005e 07E0     		b	.L10
  95              	.L9:
  76:Generated_Source\PSoC5/USBFS_cls.c ****             #endif /* USBFS_CLASS_AUDIO */
  96              		.loc 1 76 0
  97 0060 FFF7FEFF 		bl	USBFS_DispatchAUDIOClassRqst
  98 0064 0346     		mov	r3, r0
  99 0066 FB71     		strb	r3, [r7, #7]
  78:Generated_Source\PSoC5/USBFS_cls.c ****         case USBFS_CLASS_CDC:
 100              		.loc 1 78 0
 101 0068 02E0     		b	.L10
 102              	.L12:
  83:Generated_Source\PSoC5/USBFS_cls.c ****         default:    /* requestHandled is initialized as FALSE by default */
 103              		.loc 1 83 0
 104 006a 00BF     		nop
 105 006c 00E0     		b	.L10
 106              	.L13:
  73:Generated_Source\PSoC5/USBFS_cls.c ****         case USBFS_CLASS_AUDIO:
 107              		.loc 1 73 0
 108 006e 00BF     		nop
 109              	.L10:
  86:Generated_Source\PSoC5/USBFS_cls.c ****     }
  87:Generated_Source\PSoC5/USBFS_cls.c **** 
  88:Generated_Source\PSoC5/USBFS_cls.c ****     /* `#START USER_DEFINED_CLASS_CODE` Place your Class request here */
  89:Generated_Source\PSoC5/USBFS_cls.c **** 
  90:Generated_Source\PSoC5/USBFS_cls.c ****     /* `#END` */
  91:Generated_Source\PSoC5/USBFS_cls.c **** 
  92:Generated_Source\PSoC5/USBFS_cls.c ****     return(requestHandled);
 110              		.loc 1 92 0
 111 0070 FB79     		ldrb	r3, [r7, #7]	@ zero_extendqisi2
  93:Generated_Source\PSoC5/USBFS_cls.c **** }
 112              		.loc 1 93 0
 113 0072 1846     		mov	r0, r3
 114 0074 0837     		adds	r7, r7, #8
 115              		.cfi_def_cfa_offset 8
 116 0076 BD46     		mov	sp, r7
 117              		.cfi_def_cfa_register 13
 118              		@ sp needed
 119 0078 80BD     		pop	{r7, pc}
 120              	.L15:
 121 007a 00BF     		.align	2
 122              	.L14:
 123 007c 00600040 		.word	1073766400
 124 0080 04600040 		.word	1073766404
 125 0084 00000000 		.word	USBFS_EP
 126 0088 00000000 		.word	USBFS_interfaceClass
 127              		.cfi_endproc
ARM GAS  C:\Users\JOSANT~1\AppData\Local\Temp\ccxO3mQP.s 			page 5


 128              	.LFE0:
 129              		.size	USBFS_DispatchClassRqst, .-USBFS_DispatchClassRqst
 130              		.text
 131              	.Letext0:
 132              		.file 2 "Generated_Source\\PSoC5\\cytypes.h"
 133              		.file 3 "Generated_Source\\PSoC5\\USBFS.h"
 134              		.file 4 "Generated_Source\\PSoC5\\USBFS_pvt.h"