ARM GAS  C:\Users\JOSANT~1\AppData\Local\Temp\cceoxjZy.s 			page 1


   1              		.syntax unified
   2              		.cpu cortex-m3
   3              		.fpu softvfp
   4              		.eabi_attribute 20, 1
   5              		.eabi_attribute 21, 1
   6              		.eabi_attribute 23, 3
   7              		.eabi_attribute 24, 1
   8              		.eabi_attribute 25, 1
   9              		.eabi_attribute 26, 1
  10              		.eabi_attribute 30, 6
  11              		.eabi_attribute 34, 1
  12              		.eabi_attribute 18, 4
  13              		.thumb
  14              		.file	"USBFS_std.c"
  15              		.text
  16              	.Ltext0:
  17              		.cfi_sections	.debug_frame
  18              		.section	.text.USBFS_HandleStandardRqst,"ax",%progbits
  19              		.align	2
  20              		.global	USBFS_HandleStandardRqst
  21              		.thumb
  22              		.thumb_func
  23              		.type	USBFS_HandleStandardRqst, %function
  24              	USBFS_HandleStandardRqst:
  25              	.LFB0:
  26              		.file 1 "Generated_Source\\PSoC5\\USBFS_std.c"
   1:Generated_Source\PSoC5/USBFS_std.c **** /*******************************************************************************
   2:Generated_Source\PSoC5/USBFS_std.c **** * File Name: USBFS_std.c
   3:Generated_Source\PSoC5/USBFS_std.c **** * Version 2.70
   4:Generated_Source\PSoC5/USBFS_std.c **** *
   5:Generated_Source\PSoC5/USBFS_std.c **** * Description:
   6:Generated_Source\PSoC5/USBFS_std.c **** *  USB Standard request handler.
   7:Generated_Source\PSoC5/USBFS_std.c **** *
   8:Generated_Source\PSoC5/USBFS_std.c **** * Note:
   9:Generated_Source\PSoC5/USBFS_std.c **** *
  10:Generated_Source\PSoC5/USBFS_std.c **** ********************************************************************************
  11:Generated_Source\PSoC5/USBFS_std.c **** * Copyright 2008-2013, Cypress Semiconductor Corporation.  All rights reserved.
  12:Generated_Source\PSoC5/USBFS_std.c **** * You may use this file only in accordance with the license, terms, conditions,
  13:Generated_Source\PSoC5/USBFS_std.c **** * disclaimers, and limitations in the end user license agreement accompanying
  14:Generated_Source\PSoC5/USBFS_std.c **** * the software package with which this file was provided.
  15:Generated_Source\PSoC5/USBFS_std.c **** *******************************************************************************/
  16:Generated_Source\PSoC5/USBFS_std.c **** 
  17:Generated_Source\PSoC5/USBFS_std.c **** #include "USBFS.h"
  18:Generated_Source\PSoC5/USBFS_std.c **** #include "USBFS_cdc.h"
  19:Generated_Source\PSoC5/USBFS_std.c **** #include "USBFS_pvt.h"
  20:Generated_Source\PSoC5/USBFS_std.c **** #if defined(USBFS_ENABLE_MIDI_STREAMING)
  21:Generated_Source\PSoC5/USBFS_std.c ****     #include "USBFS_midi.h"
  22:Generated_Source\PSoC5/USBFS_std.c **** #endif /*  USBFS_ENABLE_MIDI_STREAMING*/
  23:Generated_Source\PSoC5/USBFS_std.c **** 
  24:Generated_Source\PSoC5/USBFS_std.c **** 
  25:Generated_Source\PSoC5/USBFS_std.c **** /***************************************
  26:Generated_Source\PSoC5/USBFS_std.c **** *   Static data allocation
  27:Generated_Source\PSoC5/USBFS_std.c **** ***************************************/
  28:Generated_Source\PSoC5/USBFS_std.c **** 
  29:Generated_Source\PSoC5/USBFS_std.c **** #if defined(USBFS_ENABLE_FWSN_STRING)
  30:Generated_Source\PSoC5/USBFS_std.c ****     static volatile uint8 *USBFS_fwSerialNumberStringDescriptor;
  31:Generated_Source\PSoC5/USBFS_std.c ****     static volatile uint8 USBFS_snStringConfirm = USBFS_FALSE;
ARM GAS  C:\Users\JOSANT~1\AppData\Local\Temp\cceoxjZy.s 			page 2


  32:Generated_Source\PSoC5/USBFS_std.c **** #endif  /* USBFS_ENABLE_FWSN_STRING */
  33:Generated_Source\PSoC5/USBFS_std.c **** 
  34:Generated_Source\PSoC5/USBFS_std.c **** #if defined(USBFS_ENABLE_FWSN_STRING)
  35:Generated_Source\PSoC5/USBFS_std.c **** 
  36:Generated_Source\PSoC5/USBFS_std.c ****     /*******************************************************************************
  37:Generated_Source\PSoC5/USBFS_std.c ****     * Function Name: USBFS_SerialNumString
  38:Generated_Source\PSoC5/USBFS_std.c ****     ********************************************************************************
  39:Generated_Source\PSoC5/USBFS_std.c ****     *
  40:Generated_Source\PSoC5/USBFS_std.c ****     * Summary:
  41:Generated_Source\PSoC5/USBFS_std.c ****     *  Application firmware may supply the source of the USB device descriptors
  42:Generated_Source\PSoC5/USBFS_std.c ****     *  serial number string during runtime.
  43:Generated_Source\PSoC5/USBFS_std.c ****     *
  44:Generated_Source\PSoC5/USBFS_std.c ****     * Parameters:
  45:Generated_Source\PSoC5/USBFS_std.c ****     *  snString:  pointer to string.
  46:Generated_Source\PSoC5/USBFS_std.c ****     *
  47:Generated_Source\PSoC5/USBFS_std.c ****     * Return:
  48:Generated_Source\PSoC5/USBFS_std.c ****     *  None.
  49:Generated_Source\PSoC5/USBFS_std.c ****     *
  50:Generated_Source\PSoC5/USBFS_std.c ****     * Reentrant:
  51:Generated_Source\PSoC5/USBFS_std.c ****     *  No.
  52:Generated_Source\PSoC5/USBFS_std.c ****     *
  53:Generated_Source\PSoC5/USBFS_std.c ****     *******************************************************************************/
  54:Generated_Source\PSoC5/USBFS_std.c ****     void  USBFS_SerialNumString(uint8 snString[]) 
  55:Generated_Source\PSoC5/USBFS_std.c ****     {
  56:Generated_Source\PSoC5/USBFS_std.c ****         USBFS_snStringConfirm = USBFS_FALSE;
  57:Generated_Source\PSoC5/USBFS_std.c ****         if(snString != NULL)
  58:Generated_Source\PSoC5/USBFS_std.c ****         {
  59:Generated_Source\PSoC5/USBFS_std.c ****             /* Check descriptor validation */
  60:Generated_Source\PSoC5/USBFS_std.c ****             if( (snString[0u] > 1u ) && (snString[1u] == USBFS_DESCR_STRING) )
  61:Generated_Source\PSoC5/USBFS_std.c ****             {
  62:Generated_Source\PSoC5/USBFS_std.c ****                 USBFS_fwSerialNumberStringDescriptor = snString;
  63:Generated_Source\PSoC5/USBFS_std.c ****                 USBFS_snStringConfirm = USBFS_TRUE;
  64:Generated_Source\PSoC5/USBFS_std.c ****             }
  65:Generated_Source\PSoC5/USBFS_std.c ****         }
  66:Generated_Source\PSoC5/USBFS_std.c ****     }
  67:Generated_Source\PSoC5/USBFS_std.c **** 
  68:Generated_Source\PSoC5/USBFS_std.c **** #endif  /* USBFS_ENABLE_FWSN_STRING */
  69:Generated_Source\PSoC5/USBFS_std.c **** 
  70:Generated_Source\PSoC5/USBFS_std.c **** 
  71:Generated_Source\PSoC5/USBFS_std.c **** /*******************************************************************************
  72:Generated_Source\PSoC5/USBFS_std.c **** * Function Name: USBFS_HandleStandardRqst
  73:Generated_Source\PSoC5/USBFS_std.c **** ********************************************************************************
  74:Generated_Source\PSoC5/USBFS_std.c **** *
  75:Generated_Source\PSoC5/USBFS_std.c **** * Summary:
  76:Generated_Source\PSoC5/USBFS_std.c **** *  This Routine dispatches standard requests
  77:Generated_Source\PSoC5/USBFS_std.c **** *
  78:Generated_Source\PSoC5/USBFS_std.c **** * Parameters:
  79:Generated_Source\PSoC5/USBFS_std.c **** *  None.
  80:Generated_Source\PSoC5/USBFS_std.c **** *
  81:Generated_Source\PSoC5/USBFS_std.c **** * Return:
  82:Generated_Source\PSoC5/USBFS_std.c **** *  TRUE if request handled.
  83:Generated_Source\PSoC5/USBFS_std.c **** *
  84:Generated_Source\PSoC5/USBFS_std.c **** * Reentrant:
  85:Generated_Source\PSoC5/USBFS_std.c **** *  No.
  86:Generated_Source\PSoC5/USBFS_std.c **** *
  87:Generated_Source\PSoC5/USBFS_std.c **** *******************************************************************************/
  88:Generated_Source\PSoC5/USBFS_std.c **** uint8 USBFS_HandleStandardRqst(void) 
ARM GAS  C:\Users\JOSANT~1\AppData\Local\Temp\cceoxjZy.s 			page 3


  89:Generated_Source\PSoC5/USBFS_std.c **** {
  27              		.loc 1 89 0
  28              		.cfi_startproc
  29              		@ args = 0, pretend = 0, frame = 24
  30              		@ frame_needed = 1, uses_anonymous_args = 0
  31 0000 80B5     		push	{r7, lr}
  32              		.cfi_def_cfa_offset 8
  33              		.cfi_offset 7, -8
  34              		.cfi_offset 14, -4
  35 0002 86B0     		sub	sp, sp, #24
  36              		.cfi_def_cfa_offset 32
  37 0004 00AF     		add	r7, sp, #0
  38              		.cfi_def_cfa_register 7
  90:Generated_Source\PSoC5/USBFS_std.c ****     uint8 requestHandled = USBFS_FALSE;
  39              		.loc 1 90 0
  40 0006 0023     		movs	r3, #0
  41 0008 FB75     		strb	r3, [r7, #23]
  91:Generated_Source\PSoC5/USBFS_std.c ****     uint8 interfaceNumber;
  92:Generated_Source\PSoC5/USBFS_std.c ****     uint8 configurationN;
  93:Generated_Source\PSoC5/USBFS_std.c ****     #if defined(USBFS_ENABLE_STRINGS)
  94:Generated_Source\PSoC5/USBFS_std.c ****         volatile uint8 *pStr = 0u;
  42              		.loc 1 94 0
  43 000a 0023     		movs	r3, #0
  44 000c 3B61     		str	r3, [r7, #16]
  95:Generated_Source\PSoC5/USBFS_std.c ****         #if defined(USBFS_ENABLE_DESCRIPTOR_STRINGS)
  96:Generated_Source\PSoC5/USBFS_std.c ****             uint8 nStr;
  97:Generated_Source\PSoC5/USBFS_std.c ****             uint8 descrLength;
  98:Generated_Source\PSoC5/USBFS_std.c ****         #endif /* USBFS_ENABLE_DESCRIPTOR_STRINGS */
  99:Generated_Source\PSoC5/USBFS_std.c ****     #endif /* USBFS_ENABLE_STRINGS */
 100:Generated_Source\PSoC5/USBFS_std.c ****     static volatile uint8 USBFS_tBuffer[USBFS_STATUS_LENGTH_MAX];
 101:Generated_Source\PSoC5/USBFS_std.c ****     const T_USBFS_LUT CYCODE *pTmp;
 102:Generated_Source\PSoC5/USBFS_std.c ****     USBFS_currentTD.count = 0u;
  45              		.loc 1 102 0
  46 000e A74B     		ldr	r3, .L58
  47 0010 0022     		movs	r2, #0
  48 0012 1A80     		strh	r2, [r3]	@ movhi
 103:Generated_Source\PSoC5/USBFS_std.c **** 
 104:Generated_Source\PSoC5/USBFS_std.c ****     if ((CY_GET_REG8(USBFS_bmRequestType) & USBFS_RQST_DIR_MASK) == USBFS_RQST_DIR_D2H)
  49              		.loc 1 104 0
  50 0014 A64B     		ldr	r3, .L58+4
  51 0016 1B78     		ldrb	r3, [r3]
  52 0018 DBB2     		uxtb	r3, r3
  53 001a DBB2     		uxtb	r3, r3
  54 001c 5BB2     		sxtb	r3, r3
  55 001e 002B     		cmp	r3, #0
  56 0020 80F2EE80 		bge	.L2
 105:Generated_Source\PSoC5/USBFS_std.c ****     {
 106:Generated_Source\PSoC5/USBFS_std.c ****         /* Control Read */
 107:Generated_Source\PSoC5/USBFS_std.c ****         switch (CY_GET_REG8(USBFS_bRequest))
  57              		.loc 1 107 0
  58 0024 A34B     		ldr	r3, .L58+8
  59 0026 1B78     		ldrb	r3, [r3]
  60 0028 DBB2     		uxtb	r3, r3
  61 002a 0A2B     		cmp	r3, #10
  62 002c 00F2E680 		bhi	.L54
  63 0030 01A2     		adr	r2, .L5
  64 0032 52F823F0 		ldr	pc, [r2, r3, lsl #2]
ARM GAS  C:\Users\JOSANT~1\AppData\Local\Temp\cceoxjZy.s 			page 4


  65 0036 00BF     		.p2align 2
  66              	.L5:
  67 0038 51010000 		.word	.L4+1
  68 003c FD010000 		.word	.L54+1
  69 0040 FD010000 		.word	.L54+1
  70 0044 FD010000 		.word	.L54+1
  71 0048 FD010000 		.word	.L54+1
  72 004c FD010000 		.word	.L54+1
  73 0050 65000000 		.word	.L6+1
  74 0054 FD010000 		.word	.L54+1
  75 0058 C7010000 		.word	.L7+1
  76 005c FD010000 		.word	.L54+1
  77 0060 DD010000 		.word	.L8+1
  78              		.p2align 1
  79              	.L6:
 108:Generated_Source\PSoC5/USBFS_std.c ****         {
 109:Generated_Source\PSoC5/USBFS_std.c ****             case USBFS_GET_DESCRIPTOR:
 110:Generated_Source\PSoC5/USBFS_std.c ****                 if (CY_GET_REG8(USBFS_wValueHi) == USBFS_DESCR_DEVICE)
  80              		.loc 1 110 0
  81 0064 944B     		ldr	r3, .L58+12
  82 0066 1B78     		ldrb	r3, [r3]
  83 0068 DBB2     		uxtb	r3, r3
  84 006a 012B     		cmp	r3, #1
  85 006c 0ED1     		bne	.L9
 111:Generated_Source\PSoC5/USBFS_std.c ****                 {
 112:Generated_Source\PSoC5/USBFS_std.c ****                     pTmp = USBFS_GetDeviceTablePtr();
  86              		.loc 1 112 0
  87 006e FFF7FEFF 		bl	USBFS_GetDeviceTablePtr
  88 0072 B860     		str	r0, [r7, #8]
 113:Generated_Source\PSoC5/USBFS_std.c ****                     USBFS_currentTD.pData = (volatile uint8 *)pTmp->p_list;
  89              		.loc 1 113 0
  90 0074 BB68     		ldr	r3, [r7, #8]
  91 0076 5B68     		ldr	r3, [r3, #4]
  92 0078 8C4A     		ldr	r2, .L58
  93 007a 5360     		str	r3, [r2, #4]
 114:Generated_Source\PSoC5/USBFS_std.c ****                     USBFS_currentTD.count = USBFS_DEVICE_DESCR_LENGTH;
  94              		.loc 1 114 0
  95 007c 8B4B     		ldr	r3, .L58
  96 007e 1222     		movs	r2, #18
  97 0080 1A80     		strh	r2, [r3]	@ movhi
 115:Generated_Source\PSoC5/USBFS_std.c ****                     requestHandled  = USBFS_InitControlRead();
  98              		.loc 1 115 0
  99 0082 FFF7FEFF 		bl	USBFS_InitControlRead
 100 0086 0346     		mov	r3, r0
 101 0088 FB75     		strb	r3, [r7, #23]
 102 008a 60E0     		b	.L10
 103              	.L9:
 116:Generated_Source\PSoC5/USBFS_std.c ****                 }
 117:Generated_Source\PSoC5/USBFS_std.c ****                 else if (CY_GET_REG8(USBFS_wValueHi) == USBFS_DESCR_CONFIG)
 104              		.loc 1 117 0
 105 008c 8A4B     		ldr	r3, .L58+12
 106 008e 1B78     		ldrb	r3, [r3]
 107 0090 DBB2     		uxtb	r3, r3
 108 0092 022B     		cmp	r3, #2
 109 0094 24D1     		bne	.L11
 118:Generated_Source\PSoC5/USBFS_std.c ****                 {
 119:Generated_Source\PSoC5/USBFS_std.c ****                     pTmp = USBFS_GetConfigTablePtr(CY_GET_REG8(USBFS_wValueLo));
ARM GAS  C:\Users\JOSANT~1\AppData\Local\Temp\cceoxjZy.s 			page 5


 110              		.loc 1 119 0
 111 0096 894B     		ldr	r3, .L58+16
 112 0098 1B78     		ldrb	r3, [r3]
 113 009a DBB2     		uxtb	r3, r3
 114 009c 1846     		mov	r0, r3
 115 009e FFF7FEFF 		bl	USBFS_GetConfigTablePtr
 116 00a2 B860     		str	r0, [r7, #8]
 120:Generated_Source\PSoC5/USBFS_std.c ****                     if( pTmp != NULL )  /* Verify that requested descriptor exists */
 117              		.loc 1 120 0
 118 00a4 BB68     		ldr	r3, [r7, #8]
 119 00a6 002B     		cmp	r3, #0
 120 00a8 51D0     		beq	.L10
 121:Generated_Source\PSoC5/USBFS_std.c ****                     {
 122:Generated_Source\PSoC5/USBFS_std.c ****                         USBFS_currentTD.pData = (volatile uint8 *)pTmp->p_list;
 121              		.loc 1 122 0
 122 00aa BB68     		ldr	r3, [r7, #8]
 123 00ac 5B68     		ldr	r3, [r3, #4]
 124 00ae 7F4A     		ldr	r2, .L58
 125 00b0 5360     		str	r3, [r2, #4]
 123:Generated_Source\PSoC5/USBFS_std.c ****                         USBFS_currentTD.count = ((uint16)(USBFS_currentTD.pData)[ \
 126              		.loc 1 123 0
 127 00b2 7E4B     		ldr	r3, .L58
 128 00b4 5B68     		ldr	r3, [r3, #4]
 129 00b6 0333     		adds	r3, r3, #3
 130 00b8 1B78     		ldrb	r3, [r3]
 131 00ba DBB2     		uxtb	r3, r3
 124:Generated_Source\PSoC5/USBFS_std.c ****                                           USBFS_CONFIG_DESCR_TOTAL_LENGTH_HI] << 8u) | \
 132              		.loc 1 124 0
 133 00bc 1B02     		lsls	r3, r3, #8
 123:Generated_Source\PSoC5/USBFS_std.c ****                         USBFS_currentTD.count = ((uint16)(USBFS_currentTD.pData)[ \
 134              		.loc 1 123 0
 135 00be 9AB2     		uxth	r2, r3
 125:Generated_Source\PSoC5/USBFS_std.c ****                                          (USBFS_currentTD.pData)[USBFS_CONFIG_DESCR_TOTAL_LENGTH_LO
 136              		.loc 1 125 0
 137 00c0 7A4B     		ldr	r3, .L58
 138 00c2 5B68     		ldr	r3, [r3, #4]
 139 00c4 0233     		adds	r3, r3, #2
 140 00c6 1B78     		ldrb	r3, [r3]
 141 00c8 DBB2     		uxtb	r3, r3
 123:Generated_Source\PSoC5/USBFS_std.c ****                         USBFS_currentTD.count = ((uint16)(USBFS_currentTD.pData)[ \
 142              		.loc 1 123 0
 143 00ca 9BB2     		uxth	r3, r3
 144 00cc 1343     		orrs	r3, r3, r2
 145 00ce 9BB2     		uxth	r3, r3
 146 00d0 9AB2     		uxth	r2, r3
 147 00d2 764B     		ldr	r3, .L58
 148 00d4 1A80     		strh	r2, [r3]	@ movhi
 126:Generated_Source\PSoC5/USBFS_std.c ****                         requestHandled  = USBFS_InitControlRead();
 149              		.loc 1 126 0
 150 00d6 FFF7FEFF 		bl	USBFS_InitControlRead
 151 00da 0346     		mov	r3, r0
 152 00dc FB75     		strb	r3, [r7, #23]
 127:Generated_Source\PSoC5/USBFS_std.c ****                     }
 128:Generated_Source\PSoC5/USBFS_std.c ****                 }
 129:Generated_Source\PSoC5/USBFS_std.c ****                 #if defined(USBFS_ENABLE_STRINGS)
 130:Generated_Source\PSoC5/USBFS_std.c ****                 else if (CY_GET_REG8(USBFS_wValueHi) == USBFS_DESCR_STRING)
 131:Generated_Source\PSoC5/USBFS_std.c ****                 {
ARM GAS  C:\Users\JOSANT~1\AppData\Local\Temp\cceoxjZy.s 			page 6


 132:Generated_Source\PSoC5/USBFS_std.c ****                     /* Descriptor Strings*/
 133:Generated_Source\PSoC5/USBFS_std.c ****                     #if defined(USBFS_ENABLE_DESCRIPTOR_STRINGS)
 134:Generated_Source\PSoC5/USBFS_std.c ****                         nStr = 0u;
 135:Generated_Source\PSoC5/USBFS_std.c ****                         pStr = (volatile uint8 *)&USBFS_STRING_DESCRIPTORS[0u];
 136:Generated_Source\PSoC5/USBFS_std.c ****                         while ( (CY_GET_REG8(USBFS_wValueLo) > nStr) && (*pStr != 0u) )
 137:Generated_Source\PSoC5/USBFS_std.c ****                         {
 138:Generated_Source\PSoC5/USBFS_std.c ****                             /* Read descriptor length from 1st byte */
 139:Generated_Source\PSoC5/USBFS_std.c ****                             descrLength = *pStr;
 140:Generated_Source\PSoC5/USBFS_std.c ****                             /* Move to next string descriptor */
 141:Generated_Source\PSoC5/USBFS_std.c ****                             pStr = &pStr[descrLength];
 142:Generated_Source\PSoC5/USBFS_std.c ****                             nStr++;
 143:Generated_Source\PSoC5/USBFS_std.c ****                         }
 144:Generated_Source\PSoC5/USBFS_std.c ****                     #endif /*  USBFS_ENABLE_DESCRIPTOR_STRINGS */
 145:Generated_Source\PSoC5/USBFS_std.c ****                     /* Microsoft OS String*/
 146:Generated_Source\PSoC5/USBFS_std.c ****                     #if defined(USBFS_ENABLE_MSOS_STRING)
 147:Generated_Source\PSoC5/USBFS_std.c ****                         if( CY_GET_REG8(USBFS_wValueLo) == USBFS_STRING_MSOS )
 148:Generated_Source\PSoC5/USBFS_std.c ****                         {
 149:Generated_Source\PSoC5/USBFS_std.c ****                             pStr = (volatile uint8 *)&USBFS_MSOS_DESCRIPTOR[0u];
 150:Generated_Source\PSoC5/USBFS_std.c ****                         }
 151:Generated_Source\PSoC5/USBFS_std.c ****                     #endif /*  USBFS_ENABLE_MSOS_STRING*/
 152:Generated_Source\PSoC5/USBFS_std.c ****                     /* SN string */
 153:Generated_Source\PSoC5/USBFS_std.c ****                     #if defined(USBFS_ENABLE_SN_STRING)
 154:Generated_Source\PSoC5/USBFS_std.c ****                         if( (CY_GET_REG8(USBFS_wValueLo) != 0u) &&
 155:Generated_Source\PSoC5/USBFS_std.c ****                             (CY_GET_REG8(USBFS_wValueLo) ==
 156:Generated_Source\PSoC5/USBFS_std.c ****                             USBFS_DEVICE0_DESCR[USBFS_DEVICE_DESCR_SN_SHIFT]) )
 157:Generated_Source\PSoC5/USBFS_std.c ****                         {
 158:Generated_Source\PSoC5/USBFS_std.c ****                             
 159:Generated_Source\PSoC5/USBFS_std.c ****                             #if defined(USBFS_ENABLE_IDSN_STRING)
 160:Generated_Source\PSoC5/USBFS_std.c ****                                 /* Read DIE ID and generate string descriptor in RAM */
 161:Generated_Source\PSoC5/USBFS_std.c ****                                 USBFS_ReadDieID(USBFS_idSerialNumberStringDescriptor);
 162:Generated_Source\PSoC5/USBFS_std.c ****                                 pStr = USBFS_idSerialNumberStringDescriptor;
 163:Generated_Source\PSoC5/USBFS_std.c ****                             #elif defined(USBFS_ENABLE_FWSN_STRING)
 164:Generated_Source\PSoC5/USBFS_std.c ****                                 if(USBFS_snStringConfirm != USBFS_FALSE)
 165:Generated_Source\PSoC5/USBFS_std.c ****                                 {
 166:Generated_Source\PSoC5/USBFS_std.c ****                                     pStr = USBFS_fwSerialNumberStringDescriptor;
 167:Generated_Source\PSoC5/USBFS_std.c ****                                 }
 168:Generated_Source\PSoC5/USBFS_std.c ****                                 else
 169:Generated_Source\PSoC5/USBFS_std.c ****                                 {
 170:Generated_Source\PSoC5/USBFS_std.c ****                                     pStr = (volatile uint8 *)&USBFS_SN_STRING_DESCRIPTOR[0u];
 171:Generated_Source\PSoC5/USBFS_std.c ****                                 }
 172:Generated_Source\PSoC5/USBFS_std.c ****                             #else
 173:Generated_Source\PSoC5/USBFS_std.c ****                                 pStr = (volatile uint8 *)&USBFS_SN_STRING_DESCRIPTOR[0u];
 174:Generated_Source\PSoC5/USBFS_std.c ****                             #endif  /* defined(USBFS_ENABLE_IDSN_STRING) */
 175:Generated_Source\PSoC5/USBFS_std.c ****                         }
 176:Generated_Source\PSoC5/USBFS_std.c ****                     #endif    /*  USBFS_ENABLE_SN_STRING */
 177:Generated_Source\PSoC5/USBFS_std.c ****                     if (*pStr != 0u)
 178:Generated_Source\PSoC5/USBFS_std.c ****                     {
 179:Generated_Source\PSoC5/USBFS_std.c ****                         USBFS_currentTD.count = *pStr;
 180:Generated_Source\PSoC5/USBFS_std.c ****                         USBFS_currentTD.pData = pStr;
 181:Generated_Source\PSoC5/USBFS_std.c ****                         requestHandled  = USBFS_InitControlRead();
 182:Generated_Source\PSoC5/USBFS_std.c ****                     }
 183:Generated_Source\PSoC5/USBFS_std.c ****                 }
 184:Generated_Source\PSoC5/USBFS_std.c ****                 #endif /*  USBFS_ENABLE_STRINGS */
 185:Generated_Source\PSoC5/USBFS_std.c ****                 else
 186:Generated_Source\PSoC5/USBFS_std.c ****                 {
 187:Generated_Source\PSoC5/USBFS_std.c ****                     requestHandled = USBFS_DispatchClassRqst();
 188:Generated_Source\PSoC5/USBFS_std.c ****                 }
ARM GAS  C:\Users\JOSANT~1\AppData\Local\Temp\cceoxjZy.s 			page 7


 189:Generated_Source\PSoC5/USBFS_std.c ****                 break;
 153              		.loc 1 189 0
 154 00de 8EE0     		b	.L18
 155              	.L11:
 130:Generated_Source\PSoC5/USBFS_std.c ****                 {
 156              		.loc 1 130 0
 157 00e0 754B     		ldr	r3, .L58+12
 158 00e2 1B78     		ldrb	r3, [r3]
 159 00e4 DBB2     		uxtb	r3, r3
 160 00e6 032B     		cmp	r3, #3
 161 00e8 2CD1     		bne	.L13
 134:Generated_Source\PSoC5/USBFS_std.c ****                         pStr = (volatile uint8 *)&USBFS_STRING_DESCRIPTORS[0u];
 162              		.loc 1 134 0
 163 00ea 0023     		movs	r3, #0
 164 00ec FB73     		strb	r3, [r7, #15]
 135:Generated_Source\PSoC5/USBFS_std.c ****                         while ( (CY_GET_REG8(USBFS_wValueLo) > nStr) && (*pStr != 0u) )
 165              		.loc 1 135 0
 166 00ee 744B     		ldr	r3, .L58+20
 167 00f0 3B61     		str	r3, [r7, #16]
 136:Generated_Source\PSoC5/USBFS_std.c ****                         {
 168              		.loc 1 136 0
 169 00f2 09E0     		b	.L14
 170              	.L16:
 139:Generated_Source\PSoC5/USBFS_std.c ****                             /* Move to next string descriptor */
 171              		.loc 1 139 0
 172 00f4 3B69     		ldr	r3, [r7, #16]
 173 00f6 1B78     		ldrb	r3, [r3]
 174 00f8 FB71     		strb	r3, [r7, #7]
 141:Generated_Source\PSoC5/USBFS_std.c ****                             nStr++;
 175              		.loc 1 141 0
 176 00fa FB79     		ldrb	r3, [r7, #7]	@ zero_extendqisi2
 177 00fc 3A69     		ldr	r2, [r7, #16]
 178 00fe 1344     		add	r3, r3, r2
 179 0100 3B61     		str	r3, [r7, #16]
 142:Generated_Source\PSoC5/USBFS_std.c ****                         }
 180              		.loc 1 142 0
 181 0102 FB7B     		ldrb	r3, [r7, #15]	@ zero_extendqisi2
 182 0104 0133     		adds	r3, r3, #1
 183 0106 FB73     		strb	r3, [r7, #15]
 184              	.L14:
 136:Generated_Source\PSoC5/USBFS_std.c ****                         {
 185              		.loc 1 136 0
 186 0108 6C4B     		ldr	r3, .L58+16
 187 010a 1B78     		ldrb	r3, [r3]
 188 010c DBB2     		uxtb	r3, r3
 189 010e FA7B     		ldrb	r2, [r7, #15]	@ zero_extendqisi2
 190 0110 9A42     		cmp	r2, r3
 191 0112 04D2     		bcs	.L15
 136:Generated_Source\PSoC5/USBFS_std.c ****                         {
 192              		.loc 1 136 0 is_stmt 0 discriminator 1
 193 0114 3B69     		ldr	r3, [r7, #16]
 194 0116 1B78     		ldrb	r3, [r3]
 195 0118 DBB2     		uxtb	r3, r3
 196 011a 002B     		cmp	r3, #0
 197 011c EAD1     		bne	.L16
 198              	.L15:
 177:Generated_Source\PSoC5/USBFS_std.c ****                     {
ARM GAS  C:\Users\JOSANT~1\AppData\Local\Temp\cceoxjZy.s 			page 8


 199              		.loc 1 177 0 is_stmt 1
 200 011e 3B69     		ldr	r3, [r7, #16]
 201 0120 1B78     		ldrb	r3, [r3]
 202 0122 DBB2     		uxtb	r3, r3
 203 0124 002B     		cmp	r3, #0
 204 0126 12D0     		beq	.L10
 179:Generated_Source\PSoC5/USBFS_std.c ****                         USBFS_currentTD.pData = pStr;
 205              		.loc 1 179 0
 206 0128 3B69     		ldr	r3, [r7, #16]
 207 012a 1B78     		ldrb	r3, [r3]
 208 012c DBB2     		uxtb	r3, r3
 209 012e 9AB2     		uxth	r2, r3
 210 0130 5E4B     		ldr	r3, .L58
 211 0132 1A80     		strh	r2, [r3]	@ movhi
 180:Generated_Source\PSoC5/USBFS_std.c ****                         requestHandled  = USBFS_InitControlRead();
 212              		.loc 1 180 0
 213 0134 5D4A     		ldr	r2, .L58
 214 0136 3B69     		ldr	r3, [r7, #16]
 215 0138 5360     		str	r3, [r2, #4]
 181:Generated_Source\PSoC5/USBFS_std.c ****                     }
 216              		.loc 1 181 0
 217 013a FFF7FEFF 		bl	USBFS_InitControlRead
 218 013e 0346     		mov	r3, r0
 219 0140 FB75     		strb	r3, [r7, #23]
 220              		.loc 1 189 0
 221 0142 5CE0     		b	.L18
 222              	.L13:
 187:Generated_Source\PSoC5/USBFS_std.c ****                 }
 223              		.loc 1 187 0
 224 0144 FFF7FEFF 		bl	USBFS_DispatchClassRqst
 225 0148 0346     		mov	r3, r0
 226 014a FB75     		strb	r3, [r7, #23]
 227              		.loc 1 189 0
 228 014c 57E0     		b	.L18
 229              	.L10:
 230              		.loc 1 189 0 is_stmt 0 discriminator 1
 231 014e 56E0     		b	.L18
 232              	.L4:
 190:Generated_Source\PSoC5/USBFS_std.c ****             case USBFS_GET_STATUS:
 191:Generated_Source\PSoC5/USBFS_std.c ****                 switch ((CY_GET_REG8(USBFS_bmRequestType) & USBFS_RQST_RCPT_MASK))
 233              		.loc 1 191 0 is_stmt 1
 234 0150 574B     		ldr	r3, .L58+4
 235 0152 1B78     		ldrb	r3, [r3]
 236 0154 DBB2     		uxtb	r3, r3
 237 0156 03F00303 		and	r3, r3, #3
 238 015a 002B     		cmp	r3, #0
 239 015c 1FD0     		beq	.L20
 240 015e 022B     		cmp	r3, #2
 241 0160 00D0     		beq	.L21
 192:Generated_Source\PSoC5/USBFS_std.c ****                 {
 193:Generated_Source\PSoC5/USBFS_std.c ****                     case USBFS_RQST_RCPT_EP:
 194:Generated_Source\PSoC5/USBFS_std.c ****                         USBFS_currentTD.count = USBFS_EP_STATUS_LENGTH;
 195:Generated_Source\PSoC5/USBFS_std.c ****                         USBFS_tBuffer[0u] = USBFS_EP[ \
 196:Generated_Source\PSoC5/USBFS_std.c ****                                         CY_GET_REG8(USBFS_wIndexLo) & USBFS_DIR_UNUSED].hwEpState;
 197:Generated_Source\PSoC5/USBFS_std.c ****                         USBFS_tBuffer[1u] = 0u;
 198:Generated_Source\PSoC5/USBFS_std.c ****                         USBFS_currentTD.pData = &USBFS_tBuffer[0u];
 199:Generated_Source\PSoC5/USBFS_std.c ****                         requestHandled  = USBFS_InitControlRead();
ARM GAS  C:\Users\JOSANT~1\AppData\Local\Temp\cceoxjZy.s 			page 9


 200:Generated_Source\PSoC5/USBFS_std.c ****                         break;
 201:Generated_Source\PSoC5/USBFS_std.c ****                     case USBFS_RQST_RCPT_DEV:
 202:Generated_Source\PSoC5/USBFS_std.c ****                         USBFS_currentTD.count = USBFS_DEVICE_STATUS_LENGTH;
 203:Generated_Source\PSoC5/USBFS_std.c ****                         USBFS_tBuffer[0u] = USBFS_deviceStatus;
 204:Generated_Source\PSoC5/USBFS_std.c ****                         USBFS_tBuffer[1u] = 0u;
 205:Generated_Source\PSoC5/USBFS_std.c ****                         USBFS_currentTD.pData = &USBFS_tBuffer[0u];
 206:Generated_Source\PSoC5/USBFS_std.c ****                         requestHandled  = USBFS_InitControlRead();
 207:Generated_Source\PSoC5/USBFS_std.c ****                         break;
 208:Generated_Source\PSoC5/USBFS_std.c ****                     default:    /* requestHandled is initialized as FALSE by default */
 209:Generated_Source\PSoC5/USBFS_std.c ****                         break;
 242              		.loc 1 209 0
 243 0162 2FE0     		b	.L22
 244              	.L21:
 194:Generated_Source\PSoC5/USBFS_std.c ****                         USBFS_tBuffer[0u] = USBFS_EP[ \
 245              		.loc 1 194 0
 246 0164 514B     		ldr	r3, .L58
 247 0166 0222     		movs	r2, #2
 248 0168 1A80     		strh	r2, [r3]	@ movhi
 196:Generated_Source\PSoC5/USBFS_std.c ****                         USBFS_tBuffer[1u] = 0u;
 249              		.loc 1 196 0
 250 016a 564B     		ldr	r3, .L58+24
 251 016c 1B78     		ldrb	r3, [r3]
 252 016e DBB2     		uxtb	r3, r3
 253 0170 03F07F02 		and	r2, r3, #127
 254 0174 5449     		ldr	r1, .L58+28
 255 0176 1346     		mov	r3, r2
 256 0178 5B00     		lsls	r3, r3, #1
 257 017a 1344     		add	r3, r3, r2
 258 017c 9B00     		lsls	r3, r3, #2
 259 017e 0B44     		add	r3, r3, r1
 260 0180 9B78     		ldrb	r3, [r3, #2]
 261 0182 DAB2     		uxtb	r2, r3
 195:Generated_Source\PSoC5/USBFS_std.c ****                                         CY_GET_REG8(USBFS_wIndexLo) & USBFS_DIR_UNUSED].hwEpState;
 262              		.loc 1 195 0
 263 0184 514B     		ldr	r3, .L58+32
 264 0186 1A70     		strb	r2, [r3]
 197:Generated_Source\PSoC5/USBFS_std.c ****                         USBFS_currentTD.pData = &USBFS_tBuffer[0u];
 265              		.loc 1 197 0
 266 0188 504B     		ldr	r3, .L58+32
 267 018a 0022     		movs	r2, #0
 268 018c 5A70     		strb	r2, [r3, #1]
 198:Generated_Source\PSoC5/USBFS_std.c ****                         requestHandled  = USBFS_InitControlRead();
 269              		.loc 1 198 0
 270 018e 474B     		ldr	r3, .L58
 271 0190 4E4A     		ldr	r2, .L58+32
 272 0192 5A60     		str	r2, [r3, #4]
 199:Generated_Source\PSoC5/USBFS_std.c ****                         break;
 273              		.loc 1 199 0
 274 0194 FFF7FEFF 		bl	USBFS_InitControlRead
 275 0198 0346     		mov	r3, r0
 276 019a FB75     		strb	r3, [r7, #23]
 200:Generated_Source\PSoC5/USBFS_std.c ****                     case USBFS_RQST_RCPT_DEV:
 277              		.loc 1 200 0
 278 019c 12E0     		b	.L22
 279              	.L20:
 202:Generated_Source\PSoC5/USBFS_std.c ****                         USBFS_tBuffer[0u] = USBFS_deviceStatus;
 280              		.loc 1 202 0
ARM GAS  C:\Users\JOSANT~1\AppData\Local\Temp\cceoxjZy.s 			page 10


 281 019e 434B     		ldr	r3, .L58
 282 01a0 0222     		movs	r2, #2
 283 01a2 1A80     		strh	r2, [r3]	@ movhi
 203:Generated_Source\PSoC5/USBFS_std.c ****                         USBFS_tBuffer[1u] = 0u;
 284              		.loc 1 203 0
 285 01a4 4A4B     		ldr	r3, .L58+36
 286 01a6 1B78     		ldrb	r3, [r3]
 287 01a8 DAB2     		uxtb	r2, r3
 288 01aa 484B     		ldr	r3, .L58+32
 289 01ac 1A70     		strb	r2, [r3]
 204:Generated_Source\PSoC5/USBFS_std.c ****                         USBFS_currentTD.pData = &USBFS_tBuffer[0u];
 290              		.loc 1 204 0
 291 01ae 474B     		ldr	r3, .L58+32
 292 01b0 0022     		movs	r2, #0
 293 01b2 5A70     		strb	r2, [r3, #1]
 205:Generated_Source\PSoC5/USBFS_std.c ****                         requestHandled  = USBFS_InitControlRead();
 294              		.loc 1 205 0
 295 01b4 3D4B     		ldr	r3, .L58
 296 01b6 454A     		ldr	r2, .L58+32
 297 01b8 5A60     		str	r2, [r3, #4]
 206:Generated_Source\PSoC5/USBFS_std.c ****                         break;
 298              		.loc 1 206 0
 299 01ba FFF7FEFF 		bl	USBFS_InitControlRead
 300 01be 0346     		mov	r3, r0
 301 01c0 FB75     		strb	r3, [r7, #23]
 207:Generated_Source\PSoC5/USBFS_std.c ****                     default:    /* requestHandled is initialized as FALSE by default */
 302              		.loc 1 207 0
 303 01c2 00BF     		nop
 304              	.L22:
 210:Generated_Source\PSoC5/USBFS_std.c ****                 }
 211:Generated_Source\PSoC5/USBFS_std.c ****                 break;
 305              		.loc 1 211 0 discriminator 4
 306 01c4 1BE0     		b	.L18
 307              	.L7:
 212:Generated_Source\PSoC5/USBFS_std.c ****             case USBFS_GET_CONFIGURATION:
 213:Generated_Source\PSoC5/USBFS_std.c ****                 USBFS_currentTD.count = 1u;
 308              		.loc 1 213 0
 309 01c6 394B     		ldr	r3, .L58
 310 01c8 0122     		movs	r2, #1
 311 01ca 1A80     		strh	r2, [r3]	@ movhi
 214:Generated_Source\PSoC5/USBFS_std.c ****                 USBFS_currentTD.pData = (volatile uint8 *)&USBFS_configuration;
 312              		.loc 1 214 0
 313 01cc 374B     		ldr	r3, .L58
 314 01ce 414A     		ldr	r2, .L58+40
 315 01d0 5A60     		str	r2, [r3, #4]
 215:Generated_Source\PSoC5/USBFS_std.c ****                 requestHandled  = USBFS_InitControlRead();
 316              		.loc 1 215 0
 317 01d2 FFF7FEFF 		bl	USBFS_InitControlRead
 318 01d6 0346     		mov	r3, r0
 319 01d8 FB75     		strb	r3, [r7, #23]
 216:Generated_Source\PSoC5/USBFS_std.c ****                 break;
 320              		.loc 1 216 0
 321 01da 10E0     		b	.L18
 322              	.L8:
 217:Generated_Source\PSoC5/USBFS_std.c ****             case USBFS_GET_INTERFACE:
 218:Generated_Source\PSoC5/USBFS_std.c ****                 USBFS_currentTD.count = 1u;
 323              		.loc 1 218 0
ARM GAS  C:\Users\JOSANT~1\AppData\Local\Temp\cceoxjZy.s 			page 11


 324 01dc 334B     		ldr	r3, .L58
 325 01de 0122     		movs	r2, #1
 326 01e0 1A80     		strh	r2, [r3]	@ movhi
 219:Generated_Source\PSoC5/USBFS_std.c ****                 USBFS_currentTD.pData = (volatile uint8 *)&USBFS_interfaceSetting[ \
 220:Generated_Source\PSoC5/USBFS_std.c ****                                                                             CY_GET_REG8(USBFS_wInde
 327              		.loc 1 220 0
 328 01e2 384B     		ldr	r3, .L58+24
 329 01e4 1B78     		ldrb	r3, [r3]
 330 01e6 DBB2     		uxtb	r3, r3
 219:Generated_Source\PSoC5/USBFS_std.c ****                 USBFS_currentTD.pData = (volatile uint8 *)&USBFS_interfaceSetting[ \
 331              		.loc 1 219 0
 332 01e8 1A46     		mov	r2, r3
 333 01ea 3B4B     		ldr	r3, .L58+44
 334 01ec 1344     		add	r3, r3, r2
 335 01ee 2F4A     		ldr	r2, .L58
 336 01f0 5360     		str	r3, [r2, #4]
 221:Generated_Source\PSoC5/USBFS_std.c ****                 requestHandled  = USBFS_InitControlRead();
 337              		.loc 1 221 0
 338 01f2 FFF7FEFF 		bl	USBFS_InitControlRead
 339 01f6 0346     		mov	r3, r0
 340 01f8 FB75     		strb	r3, [r7, #23]
 222:Generated_Source\PSoC5/USBFS_std.c ****                 break;
 341              		.loc 1 222 0
 342 01fa 00E0     		b	.L18
 343              	.L54:
 223:Generated_Source\PSoC5/USBFS_std.c ****             default: /* requestHandled is initialized as FALSE by default */
 224:Generated_Source\PSoC5/USBFS_std.c ****                 break;
 344              		.loc 1 224 0
 345 01fc 00BF     		nop
 346              	.L18:
 347 01fe 1DE1     		b	.L23
 348              	.L2:
 225:Generated_Source\PSoC5/USBFS_std.c ****         }
 226:Generated_Source\PSoC5/USBFS_std.c ****     }
 227:Generated_Source\PSoC5/USBFS_std.c ****     else {
 228:Generated_Source\PSoC5/USBFS_std.c ****         /* Control Write */
 229:Generated_Source\PSoC5/USBFS_std.c ****         switch (CY_GET_REG8(USBFS_bRequest))
 349              		.loc 1 229 0
 350 0200 2C4B     		ldr	r3, .L58+8
 351 0202 1B78     		ldrb	r3, [r3]
 352 0204 DBB2     		uxtb	r3, r3
 353 0206 013B     		subs	r3, r3, #1
 354 0208 0A2B     		cmp	r3, #10
 355 020a 00F21681 		bhi	.L55
 356 020e 01A2     		adr	r2, .L26
 357 0210 52F823F0 		ldr	pc, [r2, r3, lsl #2]
 358              		.p2align 2
 359              	.L26:
 360 0214 1F030000 		.word	.L25+1
 361 0218 3B040000 		.word	.L55+1
 362 021c AD030000 		.word	.L27+1
 363 0220 3B040000 		.word	.L55+1
 364 0224 41020000 		.word	.L28+1
 365 0228 3B040000 		.word	.L55+1
 366 022c 3B040000 		.word	.L55+1
 367 0230 3B040000 		.word	.L55+1
 368 0234 55020000 		.word	.L29+1
ARM GAS  C:\Users\JOSANT~1\AppData\Local\Temp\cceoxjZy.s 			page 12


 369 0238 3B040000 		.word	.L55+1
 370 023c E5020000 		.word	.L30+1
 371              		.p2align 1
 372              	.L28:
 230:Generated_Source\PSoC5/USBFS_std.c ****         {
 231:Generated_Source\PSoC5/USBFS_std.c ****             case USBFS_SET_ADDRESS:
 232:Generated_Source\PSoC5/USBFS_std.c ****                 USBFS_deviceAddress = CY_GET_REG8(USBFS_wValueLo);
 373              		.loc 1 232 0
 374 0240 1E4B     		ldr	r3, .L58+16
 375 0242 1B78     		ldrb	r3, [r3]
 376 0244 DAB2     		uxtb	r2, r3
 377 0246 254B     		ldr	r3, .L58+48
 378 0248 1A70     		strb	r2, [r3]
 233:Generated_Source\PSoC5/USBFS_std.c ****                 requestHandled = USBFS_InitNoDataControlTransfer();
 379              		.loc 1 233 0
 380 024a FFF7FEFF 		bl	USBFS_InitNoDataControlTransfer
 381 024e 0346     		mov	r3, r0
 382 0250 FB75     		strb	r3, [r7, #23]
 234:Generated_Source\PSoC5/USBFS_std.c ****                 break;
 383              		.loc 1 234 0
 384 0252 F3E0     		b	.L23
 385              	.L29:
 235:Generated_Source\PSoC5/USBFS_std.c ****             case USBFS_SET_CONFIGURATION:
 236:Generated_Source\PSoC5/USBFS_std.c ****                 configurationN = CY_GET_REG8(USBFS_wValueLo);
 386              		.loc 1 236 0
 387 0254 194B     		ldr	r3, .L58+16
 388 0256 1B78     		ldrb	r3, [r3]
 389 0258 BB71     		strb	r3, [r7, #6]
 237:Generated_Source\PSoC5/USBFS_std.c ****                 if(configurationN > 0)
 390              		.loc 1 237 0
 391 025a BB79     		ldrb	r3, [r7, #6]	@ zero_extendqisi2
 392 025c 002B     		cmp	r3, #0
 393 025e 06D0     		beq	.L31
 238:Generated_Source\PSoC5/USBFS_std.c ****                 {   /* Verify that configuration descriptor exists */
 239:Generated_Source\PSoC5/USBFS_std.c ****                     pTmp = USBFS_GetConfigTablePtr(configurationN - 1u);
 394              		.loc 1 239 0
 395 0260 BB79     		ldrb	r3, [r7, #6]
 396 0262 013B     		subs	r3, r3, #1
 397 0264 DBB2     		uxtb	r3, r3
 398 0266 1846     		mov	r0, r3
 399 0268 FFF7FEFF 		bl	USBFS_GetConfigTablePtr
 400 026c B860     		str	r0, [r7, #8]
 401              	.L31:
 240:Generated_Source\PSoC5/USBFS_std.c ****                 }
 241:Generated_Source\PSoC5/USBFS_std.c ****                 /* Responds with a Request Error when configuration number is invalid */
 242:Generated_Source\PSoC5/USBFS_std.c ****                 if (((configurationN > 0) && (pTmp != NULL)) || (configurationN == 0u))
 402              		.loc 1 242 0
 403 026e BB79     		ldrb	r3, [r7, #6]	@ zero_extendqisi2
 404 0270 002B     		cmp	r3, #0
 405 0272 02D0     		beq	.L32
 406              		.loc 1 242 0 is_stmt 0 discriminator 1
 407 0274 BB68     		ldr	r3, [r7, #8]
 408 0276 002B     		cmp	r3, #0
 409 0278 02D1     		bne	.L33
 410              	.L32:
 411              		.loc 1 242 0 discriminator 3
 412 027a BB79     		ldrb	r3, [r7, #6]	@ zero_extendqisi2
ARM GAS  C:\Users\JOSANT~1\AppData\Local\Temp\cceoxjZy.s 			page 13


 413 027c 002B     		cmp	r3, #0
 414 027e 13D1     		bne	.L34
 415              	.L33:
 243:Generated_Source\PSoC5/USBFS_std.c ****                 {
 244:Generated_Source\PSoC5/USBFS_std.c ****                     /* Set new configuration if it has been changed */
 245:Generated_Source\PSoC5/USBFS_std.c ****                     if(configurationN != USBFS_configuration)        
 416              		.loc 1 245 0 is_stmt 1
 417 0280 144B     		ldr	r3, .L58+40
 418 0282 1B78     		ldrb	r3, [r3]
 419 0284 DBB2     		uxtb	r3, r3
 420 0286 BA79     		ldrb	r2, [r7, #6]	@ zero_extendqisi2
 421 0288 9A42     		cmp	r2, r3
 422 028a 08D0     		beq	.L35
 246:Generated_Source\PSoC5/USBFS_std.c ****                     {
 247:Generated_Source\PSoC5/USBFS_std.c ****                         USBFS_configuration = configurationN;
 423              		.loc 1 247 0
 424 028c 114A     		ldr	r2, .L58+40
 425 028e BB79     		ldrb	r3, [r7, #6]
 426 0290 1370     		strb	r3, [r2]
 248:Generated_Source\PSoC5/USBFS_std.c ****                         USBFS_configurationChanged = USBFS_TRUE;
 427              		.loc 1 248 0
 428 0292 134B     		ldr	r3, .L58+52
 429 0294 0122     		movs	r2, #1
 430 0296 1A70     		strb	r2, [r3]
 249:Generated_Source\PSoC5/USBFS_std.c ****                         USBFS_Config(USBFS_TRUE);
 431              		.loc 1 249 0
 432 0298 0120     		movs	r0, #1
 433 029a FFF7FEFF 		bl	USBFS_Config
 434              	.L35:
 250:Generated_Source\PSoC5/USBFS_std.c ****                     }
 251:Generated_Source\PSoC5/USBFS_std.c ****                     requestHandled = USBFS_InitNoDataControlTransfer();
 435              		.loc 1 251 0
 436 029e FFF7FEFF 		bl	USBFS_InitNoDataControlTransfer
 437 02a2 0346     		mov	r3, r0
 438 02a4 FB75     		strb	r3, [r7, #23]
 252:Generated_Source\PSoC5/USBFS_std.c ****                 }
 253:Generated_Source\PSoC5/USBFS_std.c ****                 break;
 439              		.loc 1 253 0
 440 02a6 C9E0     		b	.L23
 441              	.L34:
 442 02a8 C8E0     		b	.L23
 443              	.L59:
 444 02aa 00BF     		.align	2
 445              	.L58:
 446 02ac 00000000 		.word	USBFS_currentTD
 447 02b0 00600040 		.word	1073766400
 448 02b4 01600040 		.word	1073766401
 449 02b8 03600040 		.word	1073766403
 450 02bc 02600040 		.word	1073766402
 451 02c0 00000000 		.word	USBFS_STRING_DESCRIPTORS
 452 02c4 04600040 		.word	1073766404
 453 02c8 00000000 		.word	USBFS_EP
 454 02cc 00000000 		.word	USBFS_tBuffer.5009
 455 02d0 00000000 		.word	USBFS_deviceStatus
 456 02d4 00000000 		.word	USBFS_configuration
 457 02d8 00000000 		.word	USBFS_interfaceSetting
 458 02dc 00000000 		.word	USBFS_deviceAddress
ARM GAS  C:\Users\JOSANT~1\AppData\Local\Temp\cceoxjZy.s 			page 14


 459 02e0 00000000 		.word	USBFS_configurationChanged
 460              	.L30:
 254:Generated_Source\PSoC5/USBFS_std.c ****             case USBFS_SET_INTERFACE:
 255:Generated_Source\PSoC5/USBFS_std.c ****                 if (USBFS_ValidateAlternateSetting() != 0u)
 461              		.loc 1 255 0
 462 02e4 FFF7FEFF 		bl	USBFS_ValidateAlternateSetting
 463 02e8 0346     		mov	r3, r0
 464 02ea 002B     		cmp	r3, #0
 465 02ec 16D0     		beq	.L36
 256:Generated_Source\PSoC5/USBFS_std.c ****                 {
 257:Generated_Source\PSoC5/USBFS_std.c ****                     interfaceNumber = CY_GET_REG8(USBFS_wIndexLo);
 466              		.loc 1 257 0
 467 02ee 564B     		ldr	r3, .L60
 468 02f0 1B78     		ldrb	r3, [r3]
 469 02f2 7B71     		strb	r3, [r7, #5]
 258:Generated_Source\PSoC5/USBFS_std.c ****                     USBFS_interfaceNumber = interfaceNumber;
 470              		.loc 1 258 0
 471 02f4 554A     		ldr	r2, .L60+4
 472 02f6 7B79     		ldrb	r3, [r7, #5]
 473 02f8 1370     		strb	r3, [r2]
 259:Generated_Source\PSoC5/USBFS_std.c ****                     USBFS_configurationChanged = USBFS_TRUE;
 474              		.loc 1 259 0
 475 02fa 554B     		ldr	r3, .L60+8
 476 02fc 0122     		movs	r2, #1
 477 02fe 1A70     		strb	r2, [r3]
 260:Generated_Source\PSoC5/USBFS_std.c ****                     #if ((USBFS_EP_MA == USBFS__MA_DYNAMIC) && \
 261:Generated_Source\PSoC5/USBFS_std.c ****                          (USBFS_EP_MM == USBFS__EP_MANUAL) )
 262:Generated_Source\PSoC5/USBFS_std.c ****                         USBFS_Config(USBFS_FALSE);
 263:Generated_Source\PSoC5/USBFS_std.c ****                     #else
 264:Generated_Source\PSoC5/USBFS_std.c ****                         USBFS_ConfigAltChanged();
 478              		.loc 1 264 0
 479 0300 FFF7FEFF 		bl	USBFS_ConfigAltChanged
 265:Generated_Source\PSoC5/USBFS_std.c ****                     #endif /*  (USBFS_EP_MA == USBFS__MA_DYNAMIC) */
 266:Generated_Source\PSoC5/USBFS_std.c ****                     /* Update handled Alt setting changes status */
 267:Generated_Source\PSoC5/USBFS_std.c ****                     USBFS_interfaceSetting_last[interfaceNumber] =
 480              		.loc 1 267 0
 481 0304 7B79     		ldrb	r3, [r7, #5]	@ zero_extendqisi2
 268:Generated_Source\PSoC5/USBFS_std.c ****                          USBFS_interfaceSetting[interfaceNumber];
 482              		.loc 1 268 0
 483 0306 7A79     		ldrb	r2, [r7, #5]	@ zero_extendqisi2
 484 0308 5249     		ldr	r1, .L60+12
 485 030a 8A5C     		ldrb	r2, [r1, r2]
 486 030c D1B2     		uxtb	r1, r2
 267:Generated_Source\PSoC5/USBFS_std.c ****                          USBFS_interfaceSetting[interfaceNumber];
 487              		.loc 1 267 0
 488 030e 524A     		ldr	r2, .L60+16
 489 0310 D154     		strb	r1, [r2, r3]
 269:Generated_Source\PSoC5/USBFS_std.c ****                     requestHandled = USBFS_InitNoDataControlTransfer();
 490              		.loc 1 269 0
 491 0312 FFF7FEFF 		bl	USBFS_InitNoDataControlTransfer
 492 0316 0346     		mov	r3, r0
 493 0318 FB75     		strb	r3, [r7, #23]
 270:Generated_Source\PSoC5/USBFS_std.c ****                 }
 271:Generated_Source\PSoC5/USBFS_std.c ****                 break;
 494              		.loc 1 271 0
 495 031a 8FE0     		b	.L23
 496              	.L36:
ARM GAS  C:\Users\JOSANT~1\AppData\Local\Temp\cceoxjZy.s 			page 15


 497 031c 8EE0     		b	.L23
 498              	.L25:
 272:Generated_Source\PSoC5/USBFS_std.c ****             case USBFS_CLEAR_FEATURE:
 273:Generated_Source\PSoC5/USBFS_std.c ****                 switch (CY_GET_REG8(USBFS_bmRequestType) & USBFS_RQST_RCPT_MASK)
 499              		.loc 1 273 0
 500 031e 4F4B     		ldr	r3, .L60+20
 501 0320 1B78     		ldrb	r3, [r3]
 502 0322 DBB2     		uxtb	r3, r3
 503 0324 03F00303 		and	r3, r3, #3
 504 0328 012B     		cmp	r3, #1
 505 032a 22D0     		beq	.L38
 506 032c 012B     		cmp	r3, #1
 507 032e 0DD3     		bcc	.L39
 508 0330 022B     		cmp	r3, #2
 509 0332 00D0     		beq	.L40
 274:Generated_Source\PSoC5/USBFS_std.c ****                 {
 275:Generated_Source\PSoC5/USBFS_std.c ****                     case USBFS_RQST_RCPT_EP:
 276:Generated_Source\PSoC5/USBFS_std.c ****                         if (CY_GET_REG8(USBFS_wValueLo) == USBFS_ENDPOINT_HALT)
 277:Generated_Source\PSoC5/USBFS_std.c ****                         {
 278:Generated_Source\PSoC5/USBFS_std.c ****                             requestHandled = USBFS_ClearEndpointHalt();
 279:Generated_Source\PSoC5/USBFS_std.c ****                         }
 280:Generated_Source\PSoC5/USBFS_std.c ****                         break;
 281:Generated_Source\PSoC5/USBFS_std.c ****                     case USBFS_RQST_RCPT_DEV:
 282:Generated_Source\PSoC5/USBFS_std.c ****                         /* Clear device REMOTE_WAKEUP */
 283:Generated_Source\PSoC5/USBFS_std.c ****                         if (CY_GET_REG8(USBFS_wValueLo) == USBFS_DEVICE_REMOTE_WAKEUP)
 284:Generated_Source\PSoC5/USBFS_std.c ****                         {
 285:Generated_Source\PSoC5/USBFS_std.c ****                             USBFS_deviceStatus &= (uint8)~USBFS_DEVICE_STATUS_REMOTE_WAKEUP;
 286:Generated_Source\PSoC5/USBFS_std.c ****                             requestHandled = USBFS_InitNoDataControlTransfer();
 287:Generated_Source\PSoC5/USBFS_std.c ****                         }
 288:Generated_Source\PSoC5/USBFS_std.c ****                         break;
 289:Generated_Source\PSoC5/USBFS_std.c ****                     case USBFS_RQST_RCPT_IFC:
 290:Generated_Source\PSoC5/USBFS_std.c ****                         /* Validate interfaceNumber */
 291:Generated_Source\PSoC5/USBFS_std.c ****                         if (CY_GET_REG8(USBFS_wIndexLo) < USBFS_MAX_INTERFACES_NUMBER)
 292:Generated_Source\PSoC5/USBFS_std.c ****                         {
 293:Generated_Source\PSoC5/USBFS_std.c ****                             USBFS_interfaceStatus[CY_GET_REG8(USBFS_wIndexLo)] &=
 294:Generated_Source\PSoC5/USBFS_std.c ****                                                                 (uint8)~(CY_GET_REG8(USBFS_wValueLo
 295:Generated_Source\PSoC5/USBFS_std.c ****                             requestHandled = USBFS_InitNoDataControlTransfer();
 296:Generated_Source\PSoC5/USBFS_std.c ****                         }
 297:Generated_Source\PSoC5/USBFS_std.c ****                         break;
 298:Generated_Source\PSoC5/USBFS_std.c ****                     default:    /* requestHandled is initialized as FALSE by default */
 299:Generated_Source\PSoC5/USBFS_std.c ****                         break;
 510              		.loc 1 299 0
 511 0334 39E0     		b	.L42
 512              	.L40:
 276:Generated_Source\PSoC5/USBFS_std.c ****                         {
 513              		.loc 1 276 0
 514 0336 4A4B     		ldr	r3, .L60+24
 515 0338 1B78     		ldrb	r3, [r3]
 516 033a DBB2     		uxtb	r3, r3
 517 033c 002B     		cmp	r3, #0
 518 033e 04D1     		bne	.L41
 278:Generated_Source\PSoC5/USBFS_std.c ****                         }
 519              		.loc 1 278 0
 520 0340 FFF7FEFF 		bl	USBFS_ClearEndpointHalt
 521 0344 0346     		mov	r3, r0
 522 0346 FB75     		strb	r3, [r7, #23]
 280:Generated_Source\PSoC5/USBFS_std.c ****                     case USBFS_RQST_RCPT_DEV:
ARM GAS  C:\Users\JOSANT~1\AppData\Local\Temp\cceoxjZy.s 			page 16


 523              		.loc 1 280 0
 524 0348 2FE0     		b	.L42
 525              	.L41:
 526 034a 2EE0     		b	.L42
 527              	.L39:
 283:Generated_Source\PSoC5/USBFS_std.c ****                         {
 528              		.loc 1 283 0
 529 034c 444B     		ldr	r3, .L60+24
 530 034e 1B78     		ldrb	r3, [r3]
 531 0350 DBB2     		uxtb	r3, r3
 532 0352 012B     		cmp	r3, #1
 533 0354 0CD1     		bne	.L43
 285:Generated_Source\PSoC5/USBFS_std.c ****                             requestHandled = USBFS_InitNoDataControlTransfer();
 534              		.loc 1 285 0
 535 0356 434B     		ldr	r3, .L60+28
 536 0358 1B78     		ldrb	r3, [r3]
 537 035a DBB2     		uxtb	r3, r3
 538 035c 23F00203 		bic	r3, r3, #2
 539 0360 DAB2     		uxtb	r2, r3
 540 0362 404B     		ldr	r3, .L60+28
 541 0364 1A70     		strb	r2, [r3]
 286:Generated_Source\PSoC5/USBFS_std.c ****                         }
 542              		.loc 1 286 0
 543 0366 FFF7FEFF 		bl	USBFS_InitNoDataControlTransfer
 544 036a 0346     		mov	r3, r0
 545 036c FB75     		strb	r3, [r7, #23]
 288:Generated_Source\PSoC5/USBFS_std.c ****                     case USBFS_RQST_RCPT_IFC:
 546              		.loc 1 288 0
 547 036e 1CE0     		b	.L42
 548              	.L43:
 288:Generated_Source\PSoC5/USBFS_std.c ****                     case USBFS_RQST_RCPT_IFC:
 549              		.loc 1 288 0 is_stmt 0 discriminator 8
 550 0370 1BE0     		b	.L42
 551              	.L38:
 291:Generated_Source\PSoC5/USBFS_std.c ****                         {
 552              		.loc 1 291 0 is_stmt 1
 553 0372 354B     		ldr	r3, .L60
 554 0374 1B78     		ldrb	r3, [r3]
 555 0376 DBB2     		uxtb	r3, r3
 556 0378 012B     		cmp	r3, #1
 557 037a 15D8     		bhi	.L44
 294:Generated_Source\PSoC5/USBFS_std.c ****                             requestHandled = USBFS_InitNoDataControlTransfer();
 558              		.loc 1 294 0
 559 037c 384B     		ldr	r3, .L60+24
 560 037e 1B78     		ldrb	r3, [r3]
 561 0380 DBB2     		uxtb	r3, r3
 562 0382 DB43     		mvns	r3, r3
 563 0384 DBB2     		uxtb	r3, r3
 293:Generated_Source\PSoC5/USBFS_std.c ****                                                                 (uint8)~(CY_GET_REG8(USBFS_wValueLo
 564              		.loc 1 293 0
 565 0386 304A     		ldr	r2, .L60
 566 0388 1278     		ldrb	r2, [r2]
 567 038a D2B2     		uxtb	r2, r2
 568 038c 1146     		mov	r1, r2
 569 038e 1046     		mov	r0, r2
 570 0390 354A     		ldr	r2, .L60+32
 571 0392 125C     		ldrb	r2, [r2, r0]
ARM GAS  C:\Users\JOSANT~1\AppData\Local\Temp\cceoxjZy.s 			page 17


 572 0394 D2B2     		uxtb	r2, r2
 573 0396 1340     		ands	r3, r3, r2
 574 0398 DAB2     		uxtb	r2, r3
 575 039a 334B     		ldr	r3, .L60+32
 576 039c 5A54     		strb	r2, [r3, r1]
 295:Generated_Source\PSoC5/USBFS_std.c ****                         }
 577              		.loc 1 295 0
 578 039e FFF7FEFF 		bl	USBFS_InitNoDataControlTransfer
 579 03a2 0346     		mov	r3, r0
 580 03a4 FB75     		strb	r3, [r7, #23]
 297:Generated_Source\PSoC5/USBFS_std.c ****                     default:    /* requestHandled is initialized as FALSE by default */
 581              		.loc 1 297 0
 582 03a6 FFE7     		b	.L56
 583              	.L44:
 584              	.L56:
 585 03a8 00BF     		nop
 586              	.L42:
 300:Generated_Source\PSoC5/USBFS_std.c ****                 }
 301:Generated_Source\PSoC5/USBFS_std.c ****                 break;
 587              		.loc 1 301 0 discriminator 7
 588 03aa 47E0     		b	.L23
 589              	.L27:
 302:Generated_Source\PSoC5/USBFS_std.c ****             case USBFS_SET_FEATURE:
 303:Generated_Source\PSoC5/USBFS_std.c ****                 switch (CY_GET_REG8(USBFS_bmRequestType) & USBFS_RQST_RCPT_MASK)
 590              		.loc 1 303 0
 591 03ac 2B4B     		ldr	r3, .L60+20
 592 03ae 1B78     		ldrb	r3, [r3]
 593 03b0 DBB2     		uxtb	r3, r3
 594 03b2 03F00303 		and	r3, r3, #3
 595 03b6 012B     		cmp	r3, #1
 596 03b8 22D0     		beq	.L46
 597 03ba 012B     		cmp	r3, #1
 598 03bc 0DD3     		bcc	.L47
 599 03be 022B     		cmp	r3, #2
 600 03c0 00D0     		beq	.L48
 304:Generated_Source\PSoC5/USBFS_std.c ****                 {
 305:Generated_Source\PSoC5/USBFS_std.c ****                     case USBFS_RQST_RCPT_EP:
 306:Generated_Source\PSoC5/USBFS_std.c ****                         if (CY_GET_REG8(USBFS_wValueLo) == USBFS_ENDPOINT_HALT)
 307:Generated_Source\PSoC5/USBFS_std.c ****                         {
 308:Generated_Source\PSoC5/USBFS_std.c ****                             requestHandled = USBFS_SetEndpointHalt();
 309:Generated_Source\PSoC5/USBFS_std.c ****                         }
 310:Generated_Source\PSoC5/USBFS_std.c ****                         break;
 311:Generated_Source\PSoC5/USBFS_std.c ****                     case USBFS_RQST_RCPT_DEV:
 312:Generated_Source\PSoC5/USBFS_std.c ****                         /* Set device REMOTE_WAKEUP */
 313:Generated_Source\PSoC5/USBFS_std.c ****                         if (CY_GET_REG8(USBFS_wValueLo) == USBFS_DEVICE_REMOTE_WAKEUP)
 314:Generated_Source\PSoC5/USBFS_std.c ****                         {
 315:Generated_Source\PSoC5/USBFS_std.c ****                             USBFS_deviceStatus |= USBFS_DEVICE_STATUS_REMOTE_WAKEUP;
 316:Generated_Source\PSoC5/USBFS_std.c ****                             requestHandled = USBFS_InitNoDataControlTransfer();
 317:Generated_Source\PSoC5/USBFS_std.c ****                         }
 318:Generated_Source\PSoC5/USBFS_std.c ****                         break;
 319:Generated_Source\PSoC5/USBFS_std.c ****                     case USBFS_RQST_RCPT_IFC:
 320:Generated_Source\PSoC5/USBFS_std.c ****                         /* Validate interfaceNumber */
 321:Generated_Source\PSoC5/USBFS_std.c ****                         if (CY_GET_REG8(USBFS_wIndexLo) < USBFS_MAX_INTERFACES_NUMBER)
 322:Generated_Source\PSoC5/USBFS_std.c ****                         {
 323:Generated_Source\PSoC5/USBFS_std.c ****                             USBFS_interfaceStatus[CY_GET_REG8(USBFS_wIndexLo)] &=
 324:Generated_Source\PSoC5/USBFS_std.c ****                                                                 (uint8)~(CY_GET_REG8(USBFS_wValueLo
 325:Generated_Source\PSoC5/USBFS_std.c ****                             requestHandled = USBFS_InitNoDataControlTransfer();
ARM GAS  C:\Users\JOSANT~1\AppData\Local\Temp\cceoxjZy.s 			page 18


 326:Generated_Source\PSoC5/USBFS_std.c ****                         }
 327:Generated_Source\PSoC5/USBFS_std.c ****                         break;
 328:Generated_Source\PSoC5/USBFS_std.c ****                     default:    /* requestHandled is initialized as FALSE by default */
 329:Generated_Source\PSoC5/USBFS_std.c ****                         break;
 601              		.loc 1 329 0
 602 03c2 39E0     		b	.L50
 603              	.L48:
 306:Generated_Source\PSoC5/USBFS_std.c ****                         {
 604              		.loc 1 306 0
 605 03c4 264B     		ldr	r3, .L60+24
 606 03c6 1B78     		ldrb	r3, [r3]
 607 03c8 DBB2     		uxtb	r3, r3
 608 03ca 002B     		cmp	r3, #0
 609 03cc 04D1     		bne	.L49
 308:Generated_Source\PSoC5/USBFS_std.c ****                         }
 610              		.loc 1 308 0
 611 03ce FFF7FEFF 		bl	USBFS_SetEndpointHalt
 612 03d2 0346     		mov	r3, r0
 613 03d4 FB75     		strb	r3, [r7, #23]
 310:Generated_Source\PSoC5/USBFS_std.c ****                     case USBFS_RQST_RCPT_DEV:
 614              		.loc 1 310 0
 615 03d6 2FE0     		b	.L50
 616              	.L49:
 617 03d8 2EE0     		b	.L50
 618              	.L47:
 313:Generated_Source\PSoC5/USBFS_std.c ****                         {
 619              		.loc 1 313 0
 620 03da 214B     		ldr	r3, .L60+24
 621 03dc 1B78     		ldrb	r3, [r3]
 622 03de DBB2     		uxtb	r3, r3
 623 03e0 012B     		cmp	r3, #1
 624 03e2 0CD1     		bne	.L51
 315:Generated_Source\PSoC5/USBFS_std.c ****                             requestHandled = USBFS_InitNoDataControlTransfer();
 625              		.loc 1 315 0
 626 03e4 1F4B     		ldr	r3, .L60+28
 627 03e6 1B78     		ldrb	r3, [r3]
 628 03e8 DBB2     		uxtb	r3, r3
 629 03ea 43F00203 		orr	r3, r3, #2
 630 03ee DAB2     		uxtb	r2, r3
 631 03f0 1C4B     		ldr	r3, .L60+28
 632 03f2 1A70     		strb	r2, [r3]
 316:Generated_Source\PSoC5/USBFS_std.c ****                         }
 633              		.loc 1 316 0
 634 03f4 FFF7FEFF 		bl	USBFS_InitNoDataControlTransfer
 635 03f8 0346     		mov	r3, r0
 636 03fa FB75     		strb	r3, [r7, #23]
 318:Generated_Source\PSoC5/USBFS_std.c ****                     case USBFS_RQST_RCPT_IFC:
 637              		.loc 1 318 0
 638 03fc 1CE0     		b	.L50
 639              	.L51:
 318:Generated_Source\PSoC5/USBFS_std.c ****                     case USBFS_RQST_RCPT_IFC:
 640              		.loc 1 318 0 is_stmt 0 discriminator 12
 641 03fe 1BE0     		b	.L50
 642              	.L46:
 321:Generated_Source\PSoC5/USBFS_std.c ****                         {
 643              		.loc 1 321 0 is_stmt 1
 644 0400 114B     		ldr	r3, .L60
ARM GAS  C:\Users\JOSANT~1\AppData\Local\Temp\cceoxjZy.s 			page 19


 645 0402 1B78     		ldrb	r3, [r3]
 646 0404 DBB2     		uxtb	r3, r3
 647 0406 012B     		cmp	r3, #1
 648 0408 15D8     		bhi	.L52
 324:Generated_Source\PSoC5/USBFS_std.c ****                             requestHandled = USBFS_InitNoDataControlTransfer();
 649              		.loc 1 324 0
 650 040a 154B     		ldr	r3, .L60+24
 651 040c 1B78     		ldrb	r3, [r3]
 652 040e DBB2     		uxtb	r3, r3
 653 0410 DB43     		mvns	r3, r3
 654 0412 DBB2     		uxtb	r3, r3
 323:Generated_Source\PSoC5/USBFS_std.c ****                                                                 (uint8)~(CY_GET_REG8(USBFS_wValueLo
 655              		.loc 1 323 0
 656 0414 0C4A     		ldr	r2, .L60
 657 0416 1278     		ldrb	r2, [r2]
 658 0418 D2B2     		uxtb	r2, r2
 659 041a 1146     		mov	r1, r2
 660 041c 1046     		mov	r0, r2
 661 041e 124A     		ldr	r2, .L60+32
 662 0420 125C     		ldrb	r2, [r2, r0]
 663 0422 D2B2     		uxtb	r2, r2
 664 0424 1340     		ands	r3, r3, r2
 665 0426 DAB2     		uxtb	r2, r3
 666 0428 0F4B     		ldr	r3, .L60+32
 667 042a 5A54     		strb	r2, [r3, r1]
 325:Generated_Source\PSoC5/USBFS_std.c ****                         }
 668              		.loc 1 325 0
 669 042c FFF7FEFF 		bl	USBFS_InitNoDataControlTransfer
 670 0430 0346     		mov	r3, r0
 671 0432 FB75     		strb	r3, [r7, #23]
 327:Generated_Source\PSoC5/USBFS_std.c ****                     default:    /* requestHandled is initialized as FALSE by default */
 672              		.loc 1 327 0
 673 0434 FFE7     		b	.L57
 674              	.L52:
 675              	.L57:
 676 0436 00BF     		nop
 677              	.L50:
 330:Generated_Source\PSoC5/USBFS_std.c ****                 }
 331:Generated_Source\PSoC5/USBFS_std.c ****                 break;
 678              		.loc 1 331 0 discriminator 11
 679 0438 00E0     		b	.L23
 680              	.L55:
 332:Generated_Source\PSoC5/USBFS_std.c ****             default:    /* requestHandled is initialized as FALSE by default */
 333:Generated_Source\PSoC5/USBFS_std.c ****                 break;
 681              		.loc 1 333 0
 682 043a 00BF     		nop
 683              	.L23:
 334:Generated_Source\PSoC5/USBFS_std.c ****         }
 335:Generated_Source\PSoC5/USBFS_std.c ****     }
 336:Generated_Source\PSoC5/USBFS_std.c ****     return(requestHandled);
 684              		.loc 1 336 0
 685 043c FB7D     		ldrb	r3, [r7, #23]	@ zero_extendqisi2
 337:Generated_Source\PSoC5/USBFS_std.c **** }
 686              		.loc 1 337 0
 687 043e 1846     		mov	r0, r3
 688 0440 1837     		adds	r7, r7, #24
 689              		.cfi_def_cfa_offset 8
ARM GAS  C:\Users\JOSANT~1\AppData\Local\Temp\cceoxjZy.s 			page 20


 690 0442 BD46     		mov	sp, r7
 691              		.cfi_def_cfa_register 13
 692              		@ sp needed
 693 0444 80BD     		pop	{r7, pc}
 694              	.L61:
 695 0446 00BF     		.align	2
 696              	.L60:
 697 0448 04600040 		.word	1073766404
 698 044c 00000000 		.word	USBFS_interfaceNumber
 699 0450 00000000 		.word	USBFS_configurationChanged
 700 0454 00000000 		.word	USBFS_interfaceSetting
 701 0458 00000000 		.word	USBFS_interfaceSetting_last
 702 045c 00600040 		.word	1073766400
 703 0460 02600040 		.word	1073766402
 704 0464 00000000 		.word	USBFS_deviceStatus
 705 0468 00000000 		.word	USBFS_interfaceStatus
 706              		.cfi_endproc
 707              	.LFE0:
 708              		.size	USBFS_HandleStandardRqst, .-USBFS_HandleStandardRqst
 709              		.section	.text.USBFS_ConfigReg,"ax",%progbits
 710              		.align	2
 711              		.global	USBFS_ConfigReg
 712              		.thumb
 713              		.thumb_func
 714              		.type	USBFS_ConfigReg, %function
 715              	USBFS_ConfigReg:
 716              	.LFB1:
 338:Generated_Source\PSoC5/USBFS_std.c **** 
 339:Generated_Source\PSoC5/USBFS_std.c **** 
 340:Generated_Source\PSoC5/USBFS_std.c **** #if defined(USBFS_ENABLE_IDSN_STRING)
 341:Generated_Source\PSoC5/USBFS_std.c **** 
 342:Generated_Source\PSoC5/USBFS_std.c ****     /***************************************************************************
 343:Generated_Source\PSoC5/USBFS_std.c ****     * Function Name: USBFS_ReadDieID
 344:Generated_Source\PSoC5/USBFS_std.c ****     ****************************************************************************
 345:Generated_Source\PSoC5/USBFS_std.c ****     *
 346:Generated_Source\PSoC5/USBFS_std.c ****     * Summary:
 347:Generated_Source\PSoC5/USBFS_std.c ****     *  This routine read Die ID and generate Serial Number string descriptor.
 348:Generated_Source\PSoC5/USBFS_std.c ****     *
 349:Generated_Source\PSoC5/USBFS_std.c ****     * Parameters:
 350:Generated_Source\PSoC5/USBFS_std.c ****     *  descr:  pointer on string descriptor.
 351:Generated_Source\PSoC5/USBFS_std.c ****     *
 352:Generated_Source\PSoC5/USBFS_std.c ****     * Return:
 353:Generated_Source\PSoC5/USBFS_std.c ****     *  None.
 354:Generated_Source\PSoC5/USBFS_std.c ****     *
 355:Generated_Source\PSoC5/USBFS_std.c ****     * Reentrant:
 356:Generated_Source\PSoC5/USBFS_std.c ****     *  No.
 357:Generated_Source\PSoC5/USBFS_std.c ****     *
 358:Generated_Source\PSoC5/USBFS_std.c ****     ***************************************************************************/
 359:Generated_Source\PSoC5/USBFS_std.c ****     void USBFS_ReadDieID(uint8 descr[]) 
 360:Generated_Source\PSoC5/USBFS_std.c ****     {
 361:Generated_Source\PSoC5/USBFS_std.c ****         uint8 i;
 362:Generated_Source\PSoC5/USBFS_std.c ****         uint8 j = 0u;
 363:Generated_Source\PSoC5/USBFS_std.c ****         uint8 value;
 364:Generated_Source\PSoC5/USBFS_std.c ****         const char8 CYCODE hex[16u] = "0123456789ABCDEF";
 365:Generated_Source\PSoC5/USBFS_std.c **** 
 366:Generated_Source\PSoC5/USBFS_std.c ****         /* Check descriptor validation */
 367:Generated_Source\PSoC5/USBFS_std.c ****         if( descr != NULL)
ARM GAS  C:\Users\JOSANT~1\AppData\Local\Temp\cceoxjZy.s 			page 21


 368:Generated_Source\PSoC5/USBFS_std.c ****         {
 369:Generated_Source\PSoC5/USBFS_std.c ****             descr[0u] = USBFS_IDSN_DESCR_LENGTH;
 370:Generated_Source\PSoC5/USBFS_std.c ****             descr[1u] = USBFS_DESCR_STRING;
 371:Generated_Source\PSoC5/USBFS_std.c **** 
 372:Generated_Source\PSoC5/USBFS_std.c ****             /* fill descriptor */
 373:Generated_Source\PSoC5/USBFS_std.c ****             for(i = 2u; i < USBFS_IDSN_DESCR_LENGTH; i += 4u)
 374:Generated_Source\PSoC5/USBFS_std.c ****             {
 375:Generated_Source\PSoC5/USBFS_std.c ****                 value = CY_GET_XTND_REG8((void CYFAR *)(USBFS_DIE_ID + j));
 376:Generated_Source\PSoC5/USBFS_std.c ****                 j++;
 377:Generated_Source\PSoC5/USBFS_std.c ****                 descr[i] = (uint8)hex[value >> 4u];
 378:Generated_Source\PSoC5/USBFS_std.c ****                 descr[i + 2u] = (uint8)hex[value & 0x0Fu];
 379:Generated_Source\PSoC5/USBFS_std.c ****             }
 380:Generated_Source\PSoC5/USBFS_std.c ****         }
 381:Generated_Source\PSoC5/USBFS_std.c ****     }
 382:Generated_Source\PSoC5/USBFS_std.c **** 
 383:Generated_Source\PSoC5/USBFS_std.c **** #endif /*  USBFS_ENABLE_IDSN_STRING */
 384:Generated_Source\PSoC5/USBFS_std.c **** 
 385:Generated_Source\PSoC5/USBFS_std.c **** 
 386:Generated_Source\PSoC5/USBFS_std.c **** /*******************************************************************************
 387:Generated_Source\PSoC5/USBFS_std.c **** * Function Name: USBFS_ConfigReg
 388:Generated_Source\PSoC5/USBFS_std.c **** ********************************************************************************
 389:Generated_Source\PSoC5/USBFS_std.c **** *
 390:Generated_Source\PSoC5/USBFS_std.c **** * Summary:
 391:Generated_Source\PSoC5/USBFS_std.c **** *  This routine configures hardware registers from the variables.
 392:Generated_Source\PSoC5/USBFS_std.c **** *  It is called from USBFS_Config() function and from RestoreConfig
 393:Generated_Source\PSoC5/USBFS_std.c **** *  after Wakeup.
 394:Generated_Source\PSoC5/USBFS_std.c **** *
 395:Generated_Source\PSoC5/USBFS_std.c **** * Parameters:
 396:Generated_Source\PSoC5/USBFS_std.c **** *  None.
 397:Generated_Source\PSoC5/USBFS_std.c **** *
 398:Generated_Source\PSoC5/USBFS_std.c **** * Return:
 399:Generated_Source\PSoC5/USBFS_std.c **** *  None.
 400:Generated_Source\PSoC5/USBFS_std.c **** *
 401:Generated_Source\PSoC5/USBFS_std.c **** *******************************************************************************/
 402:Generated_Source\PSoC5/USBFS_std.c **** void USBFS_ConfigReg(void) 
 403:Generated_Source\PSoC5/USBFS_std.c **** {
 717              		.loc 1 403 0
 718              		.cfi_startproc
 719              		@ args = 0, pretend = 0, frame = 8
 720              		@ frame_needed = 1, uses_anonymous_args = 0
 721              		@ link register save eliminated.
 722 0000 80B4     		push	{r7}
 723              		.cfi_def_cfa_offset 4
 724              		.cfi_offset 7, -4
 725 0002 83B0     		sub	sp, sp, #12
 726              		.cfi_def_cfa_offset 16
 727 0004 00AF     		add	r7, sp, #0
 728              		.cfi_def_cfa_register 7
 404:Generated_Source\PSoC5/USBFS_std.c ****     uint8 ep;
 405:Generated_Source\PSoC5/USBFS_std.c ****     uint8 i;
 406:Generated_Source\PSoC5/USBFS_std.c ****     #if(USBFS_EP_MM == USBFS__EP_DMAAUTO)
 407:Generated_Source\PSoC5/USBFS_std.c ****         uint8 epType = 0u;
 408:Generated_Source\PSoC5/USBFS_std.c ****     #endif /*  USBFS_EP_MM == USBFS__EP_DMAAUTO */
 409:Generated_Source\PSoC5/USBFS_std.c **** 
 410:Generated_Source\PSoC5/USBFS_std.c ****     /* Set the endpoint buffer addresses */
 411:Generated_Source\PSoC5/USBFS_std.c ****     ep = USBFS_EP1;
 729              		.loc 1 411 0
ARM GAS  C:\Users\JOSANT~1\AppData\Local\Temp\cceoxjZy.s 			page 22


 730 0006 0123     		movs	r3, #1
 731 0008 FB71     		strb	r3, [r7, #7]
 412:Generated_Source\PSoC5/USBFS_std.c ****     for (i = 0u; i < 0x80u; i+= 0x10u)
 732              		.loc 1 412 0
 733 000a 0023     		movs	r3, #0
 734 000c BB71     		strb	r3, [r7, #6]
 735 000e 9CE0     		b	.L63
 736              	.L68:
 413:Generated_Source\PSoC5/USBFS_std.c ****     {
 414:Generated_Source\PSoC5/USBFS_std.c ****         CY_SET_REG8((reg8 *)(USBFS_ARB_EP1_CFG_IND + i), USBFS_ARB_EPX_CFG_DEFAULT);
 737              		.loc 1 414 0
 738 0010 BB79     		ldrb	r3, [r7, #6]	@ zero_extendqisi2
 739 0012 03F18043 		add	r3, r3, #1073741824
 740 0016 03F5C143 		add	r3, r3, #24704
 741 001a 0C22     		movs	r2, #12
 742 001c 1A70     		strb	r2, [r3]
 415:Generated_Source\PSoC5/USBFS_std.c ****         #if(USBFS_EP_MM != USBFS__EP_MANUAL)
 416:Generated_Source\PSoC5/USBFS_std.c ****             /* Enable all Arbiter EP Interrupts : err, buf under, buf over, dma gnt(mode2 only), in
 417:Generated_Source\PSoC5/USBFS_std.c ****             CY_SET_REG8((reg8 *)(USBFS_ARB_EP1_INT_EN_IND + i), USBFS_ARB_EPX_INT_MASK);
 743              		.loc 1 417 0
 744 001e BA79     		ldrb	r2, [r7, #6]	@ zero_extendqisi2
 745 0020 504B     		ldr	r3, .L69
 746 0022 1344     		add	r3, r3, r2
 747 0024 1F22     		movs	r2, #31
 748 0026 1A70     		strb	r2, [r3]
 418:Generated_Source\PSoC5/USBFS_std.c ****         #endif   /*  USBFS_EP_MM != USBFS__EP_MANUAL */
 419:Generated_Source\PSoC5/USBFS_std.c **** 
 420:Generated_Source\PSoC5/USBFS_std.c ****         if(USBFS_EP[ep].epMode != USBFS_MODE_DISABLE)
 749              		.loc 1 420 0
 750 0028 FA79     		ldrb	r2, [r7, #7]	@ zero_extendqisi2
 751 002a 4F49     		ldr	r1, .L69+4
 752 002c 1346     		mov	r3, r2
 753 002e 5B00     		lsls	r3, r3, #1
 754 0030 1344     		add	r3, r3, r2
 755 0032 9B00     		lsls	r3, r3, #2
 756 0034 0B44     		add	r3, r3, r1
 757 0036 5B79     		ldrb	r3, [r3, #5]
 758 0038 DBB2     		uxtb	r3, r3
 759 003a 002B     		cmp	r3, #0
 760 003c 18D0     		beq	.L64
 421:Generated_Source\PSoC5/USBFS_std.c ****         {
 422:Generated_Source\PSoC5/USBFS_std.c ****             if((USBFS_EP[ep].addr & USBFS_DIR_IN) != 0u )
 761              		.loc 1 422 0
 762 003e FA79     		ldrb	r2, [r7, #7]	@ zero_extendqisi2
 763 0040 4949     		ldr	r1, .L69+4
 764 0042 1346     		mov	r3, r2
 765 0044 5B00     		lsls	r3, r3, #1
 766 0046 1344     		add	r3, r3, r2
 767 0048 9B00     		lsls	r3, r3, #2
 768 004a 0B44     		add	r3, r3, r1
 769 004c 1B79     		ldrb	r3, [r3, #4]
 770 004e DBB2     		uxtb	r3, r3
 771 0050 DBB2     		uxtb	r3, r3
 772 0052 5BB2     		sxtb	r3, r3
 773 0054 002B     		cmp	r3, #0
 774 0056 05DA     		bge	.L65
 423:Generated_Source\PSoC5/USBFS_std.c ****             {
ARM GAS  C:\Users\JOSANT~1\AppData\Local\Temp\cceoxjZy.s 			page 23


 424:Generated_Source\PSoC5/USBFS_std.c ****                 CY_SET_REG8((reg8 *)(USBFS_SIE_EP1_CR0_IND + i), USBFS_MODE_NAK_IN);
 775              		.loc 1 424 0
 776 0058 BA79     		ldrb	r2, [r7, #6]	@ zero_extendqisi2
 777 005a 444B     		ldr	r3, .L69+8
 778 005c 1344     		add	r3, r3, r2
 779 005e 0C22     		movs	r2, #12
 780 0060 1A70     		strb	r2, [r3]
 781 0062 0AE0     		b	.L67
 782              	.L65:
 425:Generated_Source\PSoC5/USBFS_std.c ****             }
 426:Generated_Source\PSoC5/USBFS_std.c ****             else
 427:Generated_Source\PSoC5/USBFS_std.c ****             {
 428:Generated_Source\PSoC5/USBFS_std.c ****                 CY_SET_REG8((reg8 *)(USBFS_SIE_EP1_CR0_IND + i), USBFS_MODE_NAK_OUT);
 783              		.loc 1 428 0
 784 0064 BA79     		ldrb	r2, [r7, #6]	@ zero_extendqisi2
 785 0066 414B     		ldr	r3, .L69+8
 786 0068 1344     		add	r3, r3, r2
 787 006a 0822     		movs	r2, #8
 788 006c 1A70     		strb	r2, [r3]
 789 006e 04E0     		b	.L67
 790              	.L64:
 429:Generated_Source\PSoC5/USBFS_std.c ****                 /* Prepare EP type mask for automatic memory allocation */
 430:Generated_Source\PSoC5/USBFS_std.c ****                 #if(USBFS_EP_MM == USBFS__EP_DMAAUTO)
 431:Generated_Source\PSoC5/USBFS_std.c ****                     epType |= (uint8)(0x01u << (ep - USBFS_EP1));
 432:Generated_Source\PSoC5/USBFS_std.c ****                 #endif /*  USBFS_EP_MM == USBFS__EP_DMAAUTO */
 433:Generated_Source\PSoC5/USBFS_std.c ****             }
 434:Generated_Source\PSoC5/USBFS_std.c ****         }
 435:Generated_Source\PSoC5/USBFS_std.c ****         else
 436:Generated_Source\PSoC5/USBFS_std.c ****         {
 437:Generated_Source\PSoC5/USBFS_std.c ****             CY_SET_REG8((reg8 *)(USBFS_SIE_EP1_CR0_IND + i), USBFS_MODE_STALL_DATA_EP);
 791              		.loc 1 437 0
 792 0070 BA79     		ldrb	r2, [r7, #6]	@ zero_extendqisi2
 793 0072 3E4B     		ldr	r3, .L69+8
 794 0074 1344     		add	r3, r3, r2
 795 0076 8022     		movs	r2, #128
 796 0078 1A70     		strb	r2, [r3]
 797              	.L67:
 438:Generated_Source\PSoC5/USBFS_std.c ****         }
 439:Generated_Source\PSoC5/USBFS_std.c **** 
 440:Generated_Source\PSoC5/USBFS_std.c ****         #if(USBFS_EP_MM != USBFS__EP_DMAAUTO)
 441:Generated_Source\PSoC5/USBFS_std.c ****             CY_SET_REG8((reg8 *)(USBFS_SIE_EP1_CNT0_IND + i),   USBFS_EP[ep].bufferSize >> 8u);
 798              		.loc 1 441 0 discriminator 2
 799 007a BA79     		ldrb	r2, [r7, #6]	@ zero_extendqisi2
 800 007c 3C4B     		ldr	r3, .L69+12
 801 007e 1344     		add	r3, r3, r2
 802 0080 1846     		mov	r0, r3
 803 0082 FA79     		ldrb	r2, [r7, #7]	@ zero_extendqisi2
 804 0084 3849     		ldr	r1, .L69+4
 805 0086 1346     		mov	r3, r2
 806 0088 5B00     		lsls	r3, r3, #1
 807 008a 1344     		add	r3, r3, r2
 808 008c 9B00     		lsls	r3, r3, #2
 809 008e 0B44     		add	r3, r3, r1
 810 0090 0833     		adds	r3, r3, #8
 811 0092 1B88     		ldrh	r3, [r3]	@ movhi
 812 0094 9BB2     		uxth	r3, r3
 813 0096 1B0A     		lsrs	r3, r3, #8
ARM GAS  C:\Users\JOSANT~1\AppData\Local\Temp\cceoxjZy.s 			page 24


 814 0098 9BB2     		uxth	r3, r3
 815 009a DBB2     		uxtb	r3, r3
 816 009c 0370     		strb	r3, [r0]
 442:Generated_Source\PSoC5/USBFS_std.c ****             CY_SET_REG8((reg8 *)(USBFS_SIE_EP1_CNT1_IND + i),   USBFS_EP[ep].bufferSize & 0xFFu);
 817              		.loc 1 442 0 discriminator 2
 818 009e BA79     		ldrb	r2, [r7, #6]	@ zero_extendqisi2
 819 00a0 344B     		ldr	r3, .L69+16
 820 00a2 1344     		add	r3, r3, r2
 821 00a4 1846     		mov	r0, r3
 822 00a6 FA79     		ldrb	r2, [r7, #7]	@ zero_extendqisi2
 823 00a8 2F49     		ldr	r1, .L69+4
 824 00aa 1346     		mov	r3, r2
 825 00ac 5B00     		lsls	r3, r3, #1
 826 00ae 1344     		add	r3, r3, r2
 827 00b0 9B00     		lsls	r3, r3, #2
 828 00b2 0B44     		add	r3, r3, r1
 829 00b4 0833     		adds	r3, r3, #8
 830 00b6 1B88     		ldrh	r3, [r3]	@ movhi
 831 00b8 9BB2     		uxth	r3, r3
 832 00ba DBB2     		uxtb	r3, r3
 833 00bc 0370     		strb	r3, [r0]
 443:Generated_Source\PSoC5/USBFS_std.c **** 
 444:Generated_Source\PSoC5/USBFS_std.c ****             CY_SET_REG8((reg8 *)(USBFS_ARB_RW1_RA_IND + i),     USBFS_EP[ep].buffOffset & 0xFFu);
 834              		.loc 1 444 0 discriminator 2
 835 00be BA79     		ldrb	r2, [r7, #6]	@ zero_extendqisi2
 836 00c0 2D4B     		ldr	r3, .L69+20
 837 00c2 1344     		add	r3, r3, r2
 838 00c4 1846     		mov	r0, r3
 839 00c6 FA79     		ldrb	r2, [r7, #7]	@ zero_extendqisi2
 840 00c8 2749     		ldr	r1, .L69+4
 841 00ca 1346     		mov	r3, r2
 842 00cc 5B00     		lsls	r3, r3, #1
 843 00ce 1344     		add	r3, r3, r2
 844 00d0 9B00     		lsls	r3, r3, #2
 845 00d2 0B44     		add	r3, r3, r1
 846 00d4 DB88     		ldrh	r3, [r3, #6]	@ movhi
 847 00d6 9BB2     		uxth	r3, r3
 848 00d8 DBB2     		uxtb	r3, r3
 849 00da 0370     		strb	r3, [r0]
 445:Generated_Source\PSoC5/USBFS_std.c ****             CY_SET_REG8((reg8 *)(USBFS_ARB_RW1_RA_MSB_IND + i), USBFS_EP[ep].buffOffset >> 8u);
 850              		.loc 1 445 0 discriminator 2
 851 00dc BA79     		ldrb	r2, [r7, #6]	@ zero_extendqisi2
 852 00de 274B     		ldr	r3, .L69+24
 853 00e0 1344     		add	r3, r3, r2
 854 00e2 1846     		mov	r0, r3
 855 00e4 FA79     		ldrb	r2, [r7, #7]	@ zero_extendqisi2
 856 00e6 2049     		ldr	r1, .L69+4
 857 00e8 1346     		mov	r3, r2
 858 00ea 5B00     		lsls	r3, r3, #1
 859 00ec 1344     		add	r3, r3, r2
 860 00ee 9B00     		lsls	r3, r3, #2
 861 00f0 0B44     		add	r3, r3, r1
 862 00f2 DB88     		ldrh	r3, [r3, #6]	@ movhi
 863 00f4 9BB2     		uxth	r3, r3
 864 00f6 1B0A     		lsrs	r3, r3, #8
 865 00f8 9BB2     		uxth	r3, r3
 866 00fa DBB2     		uxtb	r3, r3
ARM GAS  C:\Users\JOSANT~1\AppData\Local\Temp\cceoxjZy.s 			page 25


 867 00fc 0370     		strb	r3, [r0]
 446:Generated_Source\PSoC5/USBFS_std.c ****             CY_SET_REG8((reg8 *)(USBFS_ARB_RW1_WA_IND + i),     USBFS_EP[ep].buffOffset & 0xFFu);
 868              		.loc 1 446 0 discriminator 2
 869 00fe BA79     		ldrb	r2, [r7, #6]	@ zero_extendqisi2
 870 0100 1F4B     		ldr	r3, .L69+28
 871 0102 1344     		add	r3, r3, r2
 872 0104 1846     		mov	r0, r3
 873 0106 FA79     		ldrb	r2, [r7, #7]	@ zero_extendqisi2
 874 0108 1749     		ldr	r1, .L69+4
 875 010a 1346     		mov	r3, r2
 876 010c 5B00     		lsls	r3, r3, #1
 877 010e 1344     		add	r3, r3, r2
 878 0110 9B00     		lsls	r3, r3, #2
 879 0112 0B44     		add	r3, r3, r1
 880 0114 DB88     		ldrh	r3, [r3, #6]	@ movhi
 881 0116 9BB2     		uxth	r3, r3
 882 0118 DBB2     		uxtb	r3, r3
 883 011a 0370     		strb	r3, [r0]
 447:Generated_Source\PSoC5/USBFS_std.c ****             CY_SET_REG8((reg8 *)(USBFS_ARB_RW1_WA_MSB_IND + i), USBFS_EP[ep].buffOffset >> 8u);
 884              		.loc 1 447 0 discriminator 2
 885 011c BA79     		ldrb	r2, [r7, #6]	@ zero_extendqisi2
 886 011e 194B     		ldr	r3, .L69+32
 887 0120 1344     		add	r3, r3, r2
 888 0122 1846     		mov	r0, r3
 889 0124 FA79     		ldrb	r2, [r7, #7]	@ zero_extendqisi2
 890 0126 1049     		ldr	r1, .L69+4
 891 0128 1346     		mov	r3, r2
 892 012a 5B00     		lsls	r3, r3, #1
 893 012c 1344     		add	r3, r3, r2
 894 012e 9B00     		lsls	r3, r3, #2
 895 0130 0B44     		add	r3, r3, r1
 896 0132 DB88     		ldrh	r3, [r3, #6]	@ movhi
 897 0134 9BB2     		uxth	r3, r3
 898 0136 1B0A     		lsrs	r3, r3, #8
 899 0138 9BB2     		uxth	r3, r3
 900 013a DBB2     		uxtb	r3, r3
 901 013c 0370     		strb	r3, [r0]
 448:Generated_Source\PSoC5/USBFS_std.c ****         #endif /*  USBFS_EP_MM != USBFS__EP_DMAAUTO */
 449:Generated_Source\PSoC5/USBFS_std.c **** 
 450:Generated_Source\PSoC5/USBFS_std.c ****         ep++;
 902              		.loc 1 450 0 discriminator 2
 903 013e FB79     		ldrb	r3, [r7, #7]	@ zero_extendqisi2
 904 0140 0133     		adds	r3, r3, #1
 905 0142 FB71     		strb	r3, [r7, #7]
 412:Generated_Source\PSoC5/USBFS_std.c ****     {
 906              		.loc 1 412 0 discriminator 2
 907 0144 BB79     		ldrb	r3, [r7, #6]
 908 0146 1033     		adds	r3, r3, #16
 909 0148 BB71     		strb	r3, [r7, #6]
 910              	.L63:
 412:Generated_Source\PSoC5/USBFS_std.c ****     {
 911              		.loc 1 412 0 is_stmt 0 discriminator 1
 912 014a BB79     		ldrb	r3, [r7, #6]	@ zero_extendqisi2
 913 014c 5BB2     		sxtb	r3, r3
 914 014e 002B     		cmp	r3, #0
 915 0150 BFF65EAF 		bge	.L68
 451:Generated_Source\PSoC5/USBFS_std.c ****     }
ARM GAS  C:\Users\JOSANT~1\AppData\Local\Temp\cceoxjZy.s 			page 26


 452:Generated_Source\PSoC5/USBFS_std.c **** 
 453:Generated_Source\PSoC5/USBFS_std.c ****     #if(USBFS_EP_MM == USBFS__EP_DMAAUTO)
 454:Generated_Source\PSoC5/USBFS_std.c ****          /* BUF_SIZE depend on DMA_THRESS value: 55-32 bytes  44-16 bytes 33-8 bytes 22-4 bytes 11-
 455:Generated_Source\PSoC5/USBFS_std.c ****         USBFS_BUF_SIZE_REG = USBFS_DMA_BUF_SIZE;
 456:Generated_Source\PSoC5/USBFS_std.c ****         USBFS_DMA_THRES_REG = USBFS_DMA_BYTES_PER_BURST;   /* DMA burst threshold */
 457:Generated_Source\PSoC5/USBFS_std.c ****         USBFS_DMA_THRES_MSB_REG = 0u;
 458:Generated_Source\PSoC5/USBFS_std.c ****         USBFS_EP_ACTIVE_REG = USBFS_ARB_INT_MASK;
 459:Generated_Source\PSoC5/USBFS_std.c ****         USBFS_EP_TYPE_REG = epType;
 460:Generated_Source\PSoC5/USBFS_std.c ****         /* Cfg_cmp bit set to 1 once configuration is complete. */
 461:Generated_Source\PSoC5/USBFS_std.c ****         USBFS_ARB_CFG_REG = USBFS_ARB_CFG_AUTO_DMA | USBFS_ARB_CFG_AUTO_MEM |
 462:Generated_Source\PSoC5/USBFS_std.c ****                                        USBFS_ARB_CFG_CFG_CPM;
 463:Generated_Source\PSoC5/USBFS_std.c ****         /* Cfg_cmp bit set to 0 during configuration of PFSUSB Registers. */
 464:Generated_Source\PSoC5/USBFS_std.c ****         USBFS_ARB_CFG_REG = USBFS_ARB_CFG_AUTO_DMA | USBFS_ARB_CFG_AUTO_MEM;
 465:Generated_Source\PSoC5/USBFS_std.c ****     #endif /*  USBFS_EP_MM == USBFS__EP_DMAAUTO */
 466:Generated_Source\PSoC5/USBFS_std.c **** 
 467:Generated_Source\PSoC5/USBFS_std.c ****     CY_SET_REG8(USBFS_SIE_EP_INT_EN_PTR, 0xFFu);
 916              		.loc 1 467 0 is_stmt 1
 917 0154 0C4B     		ldr	r3, .L69+36
 918 0156 FF22     		movs	r2, #255
 919 0158 1A70     		strb	r2, [r3]
 468:Generated_Source\PSoC5/USBFS_std.c **** }
 920              		.loc 1 468 0
 921 015a 0C37     		adds	r7, r7, #12
 922              		.cfi_def_cfa_offset 4
 923 015c BD46     		mov	sp, r7
 924              		.cfi_def_cfa_register 13
 925              		@ sp needed
 926 015e 5DF8047B 		ldr	r7, [sp], #4
 927              		.cfi_restore 7
 928              		.cfi_def_cfa_offset 0
 929 0162 7047     		bx	lr
 930              	.L70:
 931              		.align	2
 932              	.L69:
 933 0164 81600040 		.word	1073766529
 934 0168 00000000 		.word	USBFS_EP
 935 016c 0E600040 		.word	1073766414
 936 0170 0C600040 		.word	1073766412
 937 0174 0D600040 		.word	1073766413
 938 0178 86600040 		.word	1073766534
 939 017c 87600040 		.word	1073766535
 940 0180 84600040 		.word	1073766532
 941 0184 85600040 		.word	1073766533
 942 0188 0A600040 		.word	1073766410
 943              		.cfi_endproc
 944              	.LFE1:
 945              		.size	USBFS_ConfigReg, .-USBFS_ConfigReg
 946              		.section	.text.USBFS_Config,"ax",%progbits
 947              		.align	2
 948              		.global	USBFS_Config
 949              		.thumb
 950              		.thumb_func
 951              		.type	USBFS_Config, %function
 952              	USBFS_Config:
 953              	.LFB2:
 469:Generated_Source\PSoC5/USBFS_std.c **** 
 470:Generated_Source\PSoC5/USBFS_std.c **** 
ARM GAS  C:\Users\JOSANT~1\AppData\Local\Temp\cceoxjZy.s 			page 27


 471:Generated_Source\PSoC5/USBFS_std.c **** /*******************************************************************************
 472:Generated_Source\PSoC5/USBFS_std.c **** * Function Name: USBFS_Config
 473:Generated_Source\PSoC5/USBFS_std.c **** ********************************************************************************
 474:Generated_Source\PSoC5/USBFS_std.c **** *
 475:Generated_Source\PSoC5/USBFS_std.c **** * Summary:
 476:Generated_Source\PSoC5/USBFS_std.c **** *  This routine configures endpoints for the entire configuration by scanning
 477:Generated_Source\PSoC5/USBFS_std.c **** *  the configuration descriptor.
 478:Generated_Source\PSoC5/USBFS_std.c **** *
 479:Generated_Source\PSoC5/USBFS_std.c **** * Parameters:
 480:Generated_Source\PSoC5/USBFS_std.c **** *  clearAltSetting: It configures the bAlternateSetting 0 for each interface.
 481:Generated_Source\PSoC5/USBFS_std.c **** *
 482:Generated_Source\PSoC5/USBFS_std.c **** * Return:
 483:Generated_Source\PSoC5/USBFS_std.c **** *  None.
 484:Generated_Source\PSoC5/USBFS_std.c **** *
 485:Generated_Source\PSoC5/USBFS_std.c **** * USBFS_interfaceClass - Initialized class array for each interface.
 486:Generated_Source\PSoC5/USBFS_std.c **** *   It is used for handling Class specific requests depend on interface class.
 487:Generated_Source\PSoC5/USBFS_std.c **** *   Different classes in multiple Alternate settings does not supported.
 488:Generated_Source\PSoC5/USBFS_std.c **** *
 489:Generated_Source\PSoC5/USBFS_std.c **** * Reentrant:
 490:Generated_Source\PSoC5/USBFS_std.c **** *  No.
 491:Generated_Source\PSoC5/USBFS_std.c **** *
 492:Generated_Source\PSoC5/USBFS_std.c **** *******************************************************************************/
 493:Generated_Source\PSoC5/USBFS_std.c **** void USBFS_Config(uint8 clearAltSetting) 
 494:Generated_Source\PSoC5/USBFS_std.c **** {
 954              		.loc 1 494 0
 955              		.cfi_startproc
 956              		@ args = 0, pretend = 0, frame = 32
 957              		@ frame_needed = 1, uses_anonymous_args = 0
 958 0000 80B5     		push	{r7, lr}
 959              		.cfi_def_cfa_offset 8
 960              		.cfi_offset 7, -8
 961              		.cfi_offset 14, -4
 962 0002 88B0     		sub	sp, sp, #32
 963              		.cfi_def_cfa_offset 40
 964 0004 00AF     		add	r7, sp, #0
 965              		.cfi_def_cfa_register 7
 966 0006 0346     		mov	r3, r0
 967 0008 FB71     		strb	r3, [r7, #7]
 495:Generated_Source\PSoC5/USBFS_std.c ****     uint8 ep;
 496:Generated_Source\PSoC5/USBFS_std.c ****     uint8 cur_ep;
 497:Generated_Source\PSoC5/USBFS_std.c ****     uint8 i;
 498:Generated_Source\PSoC5/USBFS_std.c ****     uint8 epType;
 499:Generated_Source\PSoC5/USBFS_std.c ****     const uint8 *pDescr;
 500:Generated_Source\PSoC5/USBFS_std.c ****     #if(USBFS_EP_MM != USBFS__EP_DMAAUTO)
 501:Generated_Source\PSoC5/USBFS_std.c ****         uint16 buffCount = 0u;
 968              		.loc 1 501 0
 969 000a 0023     		movs	r3, #0
 970 000c 7B83     		strh	r3, [r7, #26]	@ movhi
 502:Generated_Source\PSoC5/USBFS_std.c ****     #endif /*  USBFS_EP_MM != USBFS__EP_DMAAUTO */
 503:Generated_Source\PSoC5/USBFS_std.c **** 
 504:Generated_Source\PSoC5/USBFS_std.c ****     const T_USBFS_LUT CYCODE *pTmp;
 505:Generated_Source\PSoC5/USBFS_std.c ****     const T_USBFS_EP_SETTINGS_BLOCK CYCODE *pEP;
 506:Generated_Source\PSoC5/USBFS_std.c **** 
 507:Generated_Source\PSoC5/USBFS_std.c ****     /* Clear all of the endpoints */
 508:Generated_Source\PSoC5/USBFS_std.c ****     for (ep = 0u; ep < USBFS_MAX_EP; ep++)
 971              		.loc 1 508 0
 972 000e 0023     		movs	r3, #0
ARM GAS  C:\Users\JOSANT~1\AppData\Local\Temp\cceoxjZy.s 			page 28


 973 0010 FB77     		strb	r3, [r7, #31]
 974 0012 43E0     		b	.L72
 975              	.L73:
 509:Generated_Source\PSoC5/USBFS_std.c ****     {
 510:Generated_Source\PSoC5/USBFS_std.c ****         USBFS_EP[ep].attrib = 0u;
 976              		.loc 1 510 0 discriminator 3
 977 0014 FA7F     		ldrb	r2, [r7, #31]	@ zero_extendqisi2
 978 0016 A449     		ldr	r1, .L96
 979 0018 1346     		mov	r3, r2
 980 001a 5B00     		lsls	r3, r3, #1
 981 001c 1344     		add	r3, r3, r2
 982 001e 9B00     		lsls	r3, r3, #2
 983 0020 0B44     		add	r3, r3, r1
 984 0022 0022     		movs	r2, #0
 985 0024 1A70     		strb	r2, [r3]
 511:Generated_Source\PSoC5/USBFS_std.c ****         USBFS_EP[ep].hwEpState = 0u;
 986              		.loc 1 511 0 discriminator 3
 987 0026 FA7F     		ldrb	r2, [r7, #31]	@ zero_extendqisi2
 988 0028 9F49     		ldr	r1, .L96
 989 002a 1346     		mov	r3, r2
 990 002c 5B00     		lsls	r3, r3, #1
 991 002e 1344     		add	r3, r3, r2
 992 0030 9B00     		lsls	r3, r3, #2
 993 0032 0B44     		add	r3, r3, r1
 994 0034 0022     		movs	r2, #0
 995 0036 9A70     		strb	r2, [r3, #2]
 512:Generated_Source\PSoC5/USBFS_std.c ****         USBFS_EP[ep].apiEpState = USBFS_NO_EVENT_PENDING;
 996              		.loc 1 512 0 discriminator 3
 997 0038 FA7F     		ldrb	r2, [r7, #31]	@ zero_extendqisi2
 998 003a 9B49     		ldr	r1, .L96
 999 003c 1346     		mov	r3, r2
 1000 003e 5B00     		lsls	r3, r3, #1
 1001 0040 1344     		add	r3, r3, r2
 1002 0042 9B00     		lsls	r3, r3, #2
 1003 0044 0B44     		add	r3, r3, r1
 1004 0046 0022     		movs	r2, #0
 1005 0048 5A70     		strb	r2, [r3, #1]
 513:Generated_Source\PSoC5/USBFS_std.c ****         USBFS_EP[ep].epToggle = 0u;
 1006              		.loc 1 513 0 discriminator 3
 1007 004a FA7F     		ldrb	r2, [r7, #31]	@ zero_extendqisi2
 1008 004c 9649     		ldr	r1, .L96
 1009 004e 1346     		mov	r3, r2
 1010 0050 5B00     		lsls	r3, r3, #1
 1011 0052 1344     		add	r3, r3, r2
 1012 0054 9B00     		lsls	r3, r3, #2
 1013 0056 0B44     		add	r3, r3, r1
 1014 0058 0022     		movs	r2, #0
 1015 005a DA70     		strb	r2, [r3, #3]
 514:Generated_Source\PSoC5/USBFS_std.c ****         USBFS_EP[ep].epMode = USBFS_MODE_DISABLE;
 1016              		.loc 1 514 0 discriminator 3
 1017 005c FA7F     		ldrb	r2, [r7, #31]	@ zero_extendqisi2
 1018 005e 9249     		ldr	r1, .L96
 1019 0060 1346     		mov	r3, r2
 1020 0062 5B00     		lsls	r3, r3, #1
 1021 0064 1344     		add	r3, r3, r2
 1022 0066 9B00     		lsls	r3, r3, #2
 1023 0068 0B44     		add	r3, r3, r1
ARM GAS  C:\Users\JOSANT~1\AppData\Local\Temp\cceoxjZy.s 			page 29


 1024 006a 0022     		movs	r2, #0
 1025 006c 5A71     		strb	r2, [r3, #5]
 515:Generated_Source\PSoC5/USBFS_std.c ****         USBFS_EP[ep].bufferSize = 0u;
 1026              		.loc 1 515 0 discriminator 3
 1027 006e FA7F     		ldrb	r2, [r7, #31]	@ zero_extendqisi2
 1028 0070 8D49     		ldr	r1, .L96
 1029 0072 1346     		mov	r3, r2
 1030 0074 5B00     		lsls	r3, r3, #1
 1031 0076 1344     		add	r3, r3, r2
 1032 0078 9B00     		lsls	r3, r3, #2
 1033 007a 0B44     		add	r3, r3, r1
 1034 007c 0833     		adds	r3, r3, #8
 1035 007e 0022     		movs	r2, #0
 1036 0080 1A80     		strh	r2, [r3]	@ movhi
 516:Generated_Source\PSoC5/USBFS_std.c ****         USBFS_EP[ep].interface = 0u;
 1037              		.loc 1 516 0 discriminator 3
 1038 0082 FA7F     		ldrb	r2, [r7, #31]	@ zero_extendqisi2
 1039 0084 8849     		ldr	r1, .L96
 1040 0086 1346     		mov	r3, r2
 1041 0088 5B00     		lsls	r3, r3, #1
 1042 008a 1344     		add	r3, r3, r2
 1043 008c 9B00     		lsls	r3, r3, #2
 1044 008e 0B44     		add	r3, r3, r1
 1045 0090 0833     		adds	r3, r3, #8
 1046 0092 0022     		movs	r2, #0
 1047 0094 9A70     		strb	r2, [r3, #2]
 508:Generated_Source\PSoC5/USBFS_std.c ****     {
 1048              		.loc 1 508 0 discriminator 3
 1049 0096 FB7F     		ldrb	r3, [r7, #31]	@ zero_extendqisi2
 1050 0098 0133     		adds	r3, r3, #1
 1051 009a FB77     		strb	r3, [r7, #31]
 1052              	.L72:
 508:Generated_Source\PSoC5/USBFS_std.c ****     {
 1053              		.loc 1 508 0 is_stmt 0 discriminator 1
 1054 009c FB7F     		ldrb	r3, [r7, #31]	@ zero_extendqisi2
 1055 009e 082B     		cmp	r3, #8
 1056 00a0 B8D9     		bls	.L73
 517:Generated_Source\PSoC5/USBFS_std.c **** 
 518:Generated_Source\PSoC5/USBFS_std.c ****     }
 519:Generated_Source\PSoC5/USBFS_std.c **** 
 520:Generated_Source\PSoC5/USBFS_std.c ****     /* Clear Alternate settings for all interfaces */
 521:Generated_Source\PSoC5/USBFS_std.c ****     if(clearAltSetting != 0u)
 1057              		.loc 1 521 0 is_stmt 1
 1058 00a2 FB79     		ldrb	r3, [r7, #7]	@ zero_extendqisi2
 1059 00a4 002B     		cmp	r3, #0
 1060 00a6 10D0     		beq	.L74
 522:Generated_Source\PSoC5/USBFS_std.c ****     {
 523:Generated_Source\PSoC5/USBFS_std.c ****         for (i = 0u; i < USBFS_MAX_INTERFACES_NUMBER; i++)
 1061              		.loc 1 523 0
 1062 00a8 0023     		movs	r3, #0
 1063 00aa 7B77     		strb	r3, [r7, #29]
 1064 00ac 0AE0     		b	.L75
 1065              	.L76:
 524:Generated_Source\PSoC5/USBFS_std.c ****         {
 525:Generated_Source\PSoC5/USBFS_std.c ****             USBFS_interfaceSetting[i] = 0x00u;
 1066              		.loc 1 525 0 discriminator 3
 1067 00ae 7B7F     		ldrb	r3, [r7, #29]	@ zero_extendqisi2
ARM GAS  C:\Users\JOSANT~1\AppData\Local\Temp\cceoxjZy.s 			page 30


 1068 00b0 7E4A     		ldr	r2, .L96+4
 1069 00b2 0021     		movs	r1, #0
 1070 00b4 D154     		strb	r1, [r2, r3]
 526:Generated_Source\PSoC5/USBFS_std.c ****             USBFS_interfaceSetting_last[i] = 0x00u;
 1071              		.loc 1 526 0 discriminator 3
 1072 00b6 7B7F     		ldrb	r3, [r7, #29]	@ zero_extendqisi2
 1073 00b8 7D4A     		ldr	r2, .L96+8
 1074 00ba 0021     		movs	r1, #0
 1075 00bc D154     		strb	r1, [r2, r3]
 523:Generated_Source\PSoC5/USBFS_std.c ****         {
 1076              		.loc 1 523 0 discriminator 3
 1077 00be 7B7F     		ldrb	r3, [r7, #29]	@ zero_extendqisi2
 1078 00c0 0133     		adds	r3, r3, #1
 1079 00c2 7B77     		strb	r3, [r7, #29]
 1080              	.L75:
 523:Generated_Source\PSoC5/USBFS_std.c ****         {
 1081              		.loc 1 523 0 is_stmt 0 discriminator 1
 1082 00c4 7B7F     		ldrb	r3, [r7, #29]	@ zero_extendqisi2
 1083 00c6 012B     		cmp	r3, #1
 1084 00c8 F1D9     		bls	.L76
 1085              	.L74:
 527:Generated_Source\PSoC5/USBFS_std.c ****         }
 528:Generated_Source\PSoC5/USBFS_std.c ****     }
 529:Generated_Source\PSoC5/USBFS_std.c **** 
 530:Generated_Source\PSoC5/USBFS_std.c ****     /* Init Endpoints and Device Status if configured */
 531:Generated_Source\PSoC5/USBFS_std.c ****     if(USBFS_configuration > 0u)
 1086              		.loc 1 531 0 is_stmt 1
 1087 00ca 7A4B     		ldr	r3, .L96+12
 1088 00cc 1B78     		ldrb	r3, [r3]
 1089 00ce DBB2     		uxtb	r3, r3
 1090 00d0 002B     		cmp	r3, #0
 1091 00d2 00F01381 		beq	.L71
 532:Generated_Source\PSoC5/USBFS_std.c ****     {
 533:Generated_Source\PSoC5/USBFS_std.c ****         pTmp = USBFS_GetConfigTablePtr(USBFS_configuration - 1u);
 1092              		.loc 1 533 0
 1093 00d6 774B     		ldr	r3, .L96+12
 1094 00d8 1B78     		ldrb	r3, [r3]
 1095 00da DBB2     		uxtb	r3, r3
 1096 00dc 013B     		subs	r3, r3, #1
 1097 00de DBB2     		uxtb	r3, r3
 1098 00e0 1846     		mov	r0, r3
 1099 00e2 FFF7FEFF 		bl	USBFS_GetConfigTablePtr
 1100 00e6 3861     		str	r0, [r7, #16]
 534:Generated_Source\PSoC5/USBFS_std.c ****         /* Set Power status for current configuration */
 535:Generated_Source\PSoC5/USBFS_std.c ****         pDescr = (const uint8 *)pTmp->p_list;
 1101              		.loc 1 535 0
 1102 00e8 3B69     		ldr	r3, [r7, #16]
 1103 00ea 5B68     		ldr	r3, [r3, #4]
 1104 00ec FB60     		str	r3, [r7, #12]
 536:Generated_Source\PSoC5/USBFS_std.c ****         if((pDescr[USBFS_CONFIG_DESCR_ATTRIB] & USBFS_CONFIG_DESCR_ATTRIB_SELF_POWERED) != 0u)
 1105              		.loc 1 536 0
 1106 00ee FB68     		ldr	r3, [r7, #12]
 1107 00f0 0733     		adds	r3, r3, #7
 1108 00f2 1B78     		ldrb	r3, [r3]	@ zero_extendqisi2
 1109 00f4 03F04003 		and	r3, r3, #64
 1110 00f8 002B     		cmp	r3, #0
 1111 00fa 08D0     		beq	.L78
ARM GAS  C:\Users\JOSANT~1\AppData\Local\Temp\cceoxjZy.s 			page 31


 537:Generated_Source\PSoC5/USBFS_std.c ****         {
 538:Generated_Source\PSoC5/USBFS_std.c ****             USBFS_deviceStatus |=  USBFS_DEVICE_STATUS_SELF_POWERED;
 1112              		.loc 1 538 0
 1113 00fc 6E4B     		ldr	r3, .L96+16
 1114 00fe 1B78     		ldrb	r3, [r3]
 1115 0100 DBB2     		uxtb	r3, r3
 1116 0102 43F00103 		orr	r3, r3, #1
 1117 0106 DAB2     		uxtb	r2, r3
 1118 0108 6B4B     		ldr	r3, .L96+16
 1119 010a 1A70     		strb	r2, [r3]
 1120 010c 07E0     		b	.L79
 1121              	.L78:
 539:Generated_Source\PSoC5/USBFS_std.c ****         }
 540:Generated_Source\PSoC5/USBFS_std.c ****         else
 541:Generated_Source\PSoC5/USBFS_std.c ****         {
 542:Generated_Source\PSoC5/USBFS_std.c ****             USBFS_deviceStatus &=  (uint8)~USBFS_DEVICE_STATUS_SELF_POWERED;
 1122              		.loc 1 542 0
 1123 010e 6A4B     		ldr	r3, .L96+16
 1124 0110 1B78     		ldrb	r3, [r3]
 1125 0112 DBB2     		uxtb	r3, r3
 1126 0114 23F00103 		bic	r3, r3, #1
 1127 0118 DAB2     		uxtb	r2, r3
 1128 011a 674B     		ldr	r3, .L96+16
 1129 011c 1A70     		strb	r2, [r3]
 1130              	.L79:
 543:Generated_Source\PSoC5/USBFS_std.c ****         }
 544:Generated_Source\PSoC5/USBFS_std.c ****         /* Move to next element */
 545:Generated_Source\PSoC5/USBFS_std.c ****         pTmp = &pTmp[1u];
 1131              		.loc 1 545 0
 1132 011e 3B69     		ldr	r3, [r7, #16]
 1133 0120 0833     		adds	r3, r3, #8
 1134 0122 3B61     		str	r3, [r7, #16]
 546:Generated_Source\PSoC5/USBFS_std.c ****         ep = pTmp->c;  /* For this table, c is the number of endpoints configurations  */
 1135              		.loc 1 546 0
 1136 0124 3B69     		ldr	r3, [r7, #16]
 1137 0126 1B78     		ldrb	r3, [r3]
 1138 0128 FB77     		strb	r3, [r7, #31]
 547:Generated_Source\PSoC5/USBFS_std.c **** 
 548:Generated_Source\PSoC5/USBFS_std.c ****         #if ((USBFS_EP_MA == USBFS__MA_DYNAMIC) && \
 549:Generated_Source\PSoC5/USBFS_std.c ****              (USBFS_EP_MM == USBFS__EP_MANUAL) )
 550:Generated_Source\PSoC5/USBFS_std.c ****             /* Configure for dynamic EP memory allocation */
 551:Generated_Source\PSoC5/USBFS_std.c ****             /* p_list points the endpoint setting table. */
 552:Generated_Source\PSoC5/USBFS_std.c ****             pEP = (T_USBFS_EP_SETTINGS_BLOCK *) pTmp->p_list;
 553:Generated_Source\PSoC5/USBFS_std.c ****             for (i = 0u; i < ep; i++)
 554:Generated_Source\PSoC5/USBFS_std.c ****             {
 555:Generated_Source\PSoC5/USBFS_std.c ****                 /* Compare current Alternate setting with EP Alt */
 556:Generated_Source\PSoC5/USBFS_std.c ****                 if(USBFS_interfaceSetting[pEP->interface] == pEP->altSetting)
 557:Generated_Source\PSoC5/USBFS_std.c ****                 {
 558:Generated_Source\PSoC5/USBFS_std.c ****                     cur_ep = pEP->addr & USBFS_DIR_UNUSED;
 559:Generated_Source\PSoC5/USBFS_std.c ****                     epType = pEP->attributes & USBFS_EP_TYPE_MASK;
 560:Generated_Source\PSoC5/USBFS_std.c ****                     if (pEP->addr & USBFS_DIR_IN)
 561:Generated_Source\PSoC5/USBFS_std.c ****                     {
 562:Generated_Source\PSoC5/USBFS_std.c ****                         /* IN Endpoint */
 563:Generated_Source\PSoC5/USBFS_std.c ****                         USBFS_EP[cur_ep].apiEpState = USBFS_EVENT_PENDING;
 564:Generated_Source\PSoC5/USBFS_std.c ****                         USBFS_EP[cur_ep].epMode = (epType == USBFS_EP_TYPE_ISOC) ?
 565:Generated_Source\PSoC5/USBFS_std.c ****                                                         USBFS_MODE_ISO_IN : USBFS_MODE_ACK_IN;
 566:Generated_Source\PSoC5/USBFS_std.c ****                         #if defined(USBFS_ENABLE_CDC_CLASS)
ARM GAS  C:\Users\JOSANT~1\AppData\Local\Temp\cceoxjZy.s 			page 32


 567:Generated_Source\PSoC5/USBFS_std.c ****                             if(((pEP->bMisc == USBFS_CLASS_CDC_DATA) ||
 568:Generated_Source\PSoC5/USBFS_std.c ****                                 (pEP->bMisc == USBFS_CLASS_CDC)) &&
 569:Generated_Source\PSoC5/USBFS_std.c ****                                 (epType != USBFS_EP_TYPE_INT))
 570:Generated_Source\PSoC5/USBFS_std.c ****                             {
 571:Generated_Source\PSoC5/USBFS_std.c ****                                 USBFS_cdc_data_in_ep = cur_ep;
 572:Generated_Source\PSoC5/USBFS_std.c ****                             }
 573:Generated_Source\PSoC5/USBFS_std.c ****                         #endif  /*  USBFS_ENABLE_CDC_CLASS*/
 574:Generated_Source\PSoC5/USBFS_std.c ****                         #if ( defined(USBFS_ENABLE_MIDI_STREAMING) && \
 575:Generated_Source\PSoC5/USBFS_std.c ****                                              (USBFS_MIDI_IN_BUFF_SIZE > 0) )
 576:Generated_Source\PSoC5/USBFS_std.c ****                             if((pEP->bMisc == USBFS_CLASS_AUDIO) &&
 577:Generated_Source\PSoC5/USBFS_std.c ****                                (epType == USBFS_EP_TYPE_BULK))
 578:Generated_Source\PSoC5/USBFS_std.c ****                             {
 579:Generated_Source\PSoC5/USBFS_std.c ****                                 USBFS_midi_in_ep = cur_ep;
 580:Generated_Source\PSoC5/USBFS_std.c ****                             }
 581:Generated_Source\PSoC5/USBFS_std.c ****                         #endif  /*  USBFS_ENABLE_MIDI_STREAMING*/
 582:Generated_Source\PSoC5/USBFS_std.c ****                     }
 583:Generated_Source\PSoC5/USBFS_std.c ****                     else
 584:Generated_Source\PSoC5/USBFS_std.c ****                     {
 585:Generated_Source\PSoC5/USBFS_std.c ****                         /* OUT Endpoint */
 586:Generated_Source\PSoC5/USBFS_std.c ****                         USBFS_EP[cur_ep].apiEpState = USBFS_NO_EVENT_PENDING;
 587:Generated_Source\PSoC5/USBFS_std.c ****                         USBFS_EP[cur_ep].epMode = (epType == USBFS_EP_TYPE_ISOC) ?
 588:Generated_Source\PSoC5/USBFS_std.c ****                                                     USBFS_MODE_ISO_OUT : USBFS_MODE_ACK_OUT;
 589:Generated_Source\PSoC5/USBFS_std.c ****                         #if defined(USBFS_ENABLE_CDC_CLASS)
 590:Generated_Source\PSoC5/USBFS_std.c ****                             if(((pEP->bMisc == USBFS_CLASS_CDC_DATA) ||
 591:Generated_Source\PSoC5/USBFS_std.c ****                                 (pEP->bMisc == USBFS_CLASS_CDC)) &&
 592:Generated_Source\PSoC5/USBFS_std.c ****                                 (epType != USBFS_EP_TYPE_INT))
 593:Generated_Source\PSoC5/USBFS_std.c ****                             {
 594:Generated_Source\PSoC5/USBFS_std.c ****                                 USBFS_cdc_data_out_ep = cur_ep;
 595:Generated_Source\PSoC5/USBFS_std.c ****                             }
 596:Generated_Source\PSoC5/USBFS_std.c ****                         #endif  /*  USBFS_ENABLE_CDC_CLASS*/
 597:Generated_Source\PSoC5/USBFS_std.c ****                         #if ( defined(USBFS_ENABLE_MIDI_STREAMING) && \
 598:Generated_Source\PSoC5/USBFS_std.c ****                                      (USBFS_MIDI_OUT_BUFF_SIZE > 0) )
 599:Generated_Source\PSoC5/USBFS_std.c ****                             if((pEP->bMisc == USBFS_CLASS_AUDIO) &&
 600:Generated_Source\PSoC5/USBFS_std.c ****                                (epType == USBFS_EP_TYPE_BULK))
 601:Generated_Source\PSoC5/USBFS_std.c ****                             {
 602:Generated_Source\PSoC5/USBFS_std.c ****                                 USBFS_midi_out_ep = cur_ep;
 603:Generated_Source\PSoC5/USBFS_std.c ****                             }
 604:Generated_Source\PSoC5/USBFS_std.c ****                         #endif  /*  USBFS_ENABLE_MIDI_STREAMING*/
 605:Generated_Source\PSoC5/USBFS_std.c ****                     }
 606:Generated_Source\PSoC5/USBFS_std.c ****                     USBFS_EP[cur_ep].bufferSize = pEP->bufferSize;
 607:Generated_Source\PSoC5/USBFS_std.c ****                     USBFS_EP[cur_ep].addr = pEP->addr;
 608:Generated_Source\PSoC5/USBFS_std.c ****                     USBFS_EP[cur_ep].attrib = pEP->attributes;
 609:Generated_Source\PSoC5/USBFS_std.c ****                 }
 610:Generated_Source\PSoC5/USBFS_std.c ****                 pEP = &pEP[1u];
 611:Generated_Source\PSoC5/USBFS_std.c ****             }
 612:Generated_Source\PSoC5/USBFS_std.c ****         #else /* Configure for static EP memory allocation  */
 613:Generated_Source\PSoC5/USBFS_std.c ****             for (i = USBFS_EP1; i < USBFS_MAX_EP; i++)
 1139              		.loc 1 613 0
 1140 012a 0123     		movs	r3, #1
 1141 012c 7B77     		strb	r3, [r7, #29]
 1142 012e 90E0     		b	.L80
 1143              	.L91:
 614:Generated_Source\PSoC5/USBFS_std.c ****             {
 615:Generated_Source\PSoC5/USBFS_std.c ****                 /* p_list points the endpoint setting table. */
 616:Generated_Source\PSoC5/USBFS_std.c ****                 pEP = (const T_USBFS_EP_SETTINGS_BLOCK CYCODE *) pTmp->p_list;
 1144              		.loc 1 616 0
 1145 0130 3B69     		ldr	r3, [r7, #16]
ARM GAS  C:\Users\JOSANT~1\AppData\Local\Temp\cceoxjZy.s 			page 33


 1146 0132 5B68     		ldr	r3, [r3, #4]
 1147 0134 7B61     		str	r3, [r7, #20]
 617:Generated_Source\PSoC5/USBFS_std.c ****                 /* Find max length for each EP and select it (length could be different in differen
 618:Generated_Source\PSoC5/USBFS_std.c ****                 /* but other settings should be correct with regards to Interface alt Setting */
 619:Generated_Source\PSoC5/USBFS_std.c ****                 for (cur_ep = 0u; cur_ep < ep; cur_ep++)
 1148              		.loc 1 619 0
 1149 0136 0023     		movs	r3, #0
 1150 0138 BB77     		strb	r3, [r7, #30]
 1151 013a 82E0     		b	.L81
 1152              	.L90:
 620:Generated_Source\PSoC5/USBFS_std.c ****                 {
 621:Generated_Source\PSoC5/USBFS_std.c ****                     /* EP count is equal to EP # in table and we found larger EP length than have b
 622:Generated_Source\PSoC5/USBFS_std.c ****                     if(i == (pEP->addr & USBFS_DIR_UNUSED))
 1153              		.loc 1 622 0
 1154 013c 7A7F     		ldrb	r2, [r7, #29]	@ zero_extendqisi2
 1155 013e 7B69     		ldr	r3, [r7, #20]
 1156 0140 9B78     		ldrb	r3, [r3, #2]	@ zero_extendqisi2
 1157 0142 03F07F03 		and	r3, r3, #127
 1158 0146 9A42     		cmp	r2, r3
 1159 0148 75D1     		bne	.L82
 623:Generated_Source\PSoC5/USBFS_std.c ****                     {
 624:Generated_Source\PSoC5/USBFS_std.c ****                         if(USBFS_EP[i].bufferSize < pEP->bufferSize)
 1160              		.loc 1 624 0
 1161 014a 7A7F     		ldrb	r2, [r7, #29]	@ zero_extendqisi2
 1162 014c 5649     		ldr	r1, .L96
 1163 014e 1346     		mov	r3, r2
 1164 0150 5B00     		lsls	r3, r3, #1
 1165 0152 1344     		add	r3, r3, r2
 1166 0154 9B00     		lsls	r3, r3, #2
 1167 0156 0B44     		add	r3, r3, r1
 1168 0158 0833     		adds	r3, r3, #8
 1169 015a 1B88     		ldrh	r3, [r3]	@ movhi
 1170 015c 9AB2     		uxth	r2, r3
 1171 015e 7B69     		ldr	r3, [r7, #20]
 1172 0160 9B88     		ldrh	r3, [r3, #4]
 1173 0162 9A42     		cmp	r2, r3
 1174 0164 0BD2     		bcs	.L83
 625:Generated_Source\PSoC5/USBFS_std.c ****                         {
 626:Generated_Source\PSoC5/USBFS_std.c ****                             USBFS_EP[i].bufferSize = pEP->bufferSize;
 1175              		.loc 1 626 0
 1176 0166 7A7F     		ldrb	r2, [r7, #29]	@ zero_extendqisi2
 1177 0168 7B69     		ldr	r3, [r7, #20]
 1178 016a 9888     		ldrh	r0, [r3, #4]
 1179 016c 4E49     		ldr	r1, .L96
 1180 016e 1346     		mov	r3, r2
 1181 0170 5B00     		lsls	r3, r3, #1
 1182 0172 1344     		add	r3, r3, r2
 1183 0174 9B00     		lsls	r3, r3, #2
 1184 0176 0B44     		add	r3, r3, r1
 1185 0178 0833     		adds	r3, r3, #8
 1186 017a 0246     		mov	r2, r0	@ movhi
 1187 017c 1A80     		strh	r2, [r3]	@ movhi
 1188              	.L83:
 627:Generated_Source\PSoC5/USBFS_std.c ****                         }
 628:Generated_Source\PSoC5/USBFS_std.c ****                         /* Compare current Alternate setting with EP Alt*/
 629:Generated_Source\PSoC5/USBFS_std.c ****                         if(USBFS_interfaceSetting[pEP->interface] == pEP->altSetting)
 1189              		.loc 1 629 0
ARM GAS  C:\Users\JOSANT~1\AppData\Local\Temp\cceoxjZy.s 			page 34


 1190 017e 7B69     		ldr	r3, [r7, #20]
 1191 0180 1B78     		ldrb	r3, [r3]	@ zero_extendqisi2
 1192 0182 1A46     		mov	r2, r3
 1193 0184 494B     		ldr	r3, .L96+4
 1194 0186 9B5C     		ldrb	r3, [r3, r2]
 1195 0188 DAB2     		uxtb	r2, r3
 1196 018a 7B69     		ldr	r3, [r7, #20]
 1197 018c 5B78     		ldrb	r3, [r3, #1]	@ zero_extendqisi2
 1198 018e 9A42     		cmp	r2, r3
 1199 0190 51D1     		bne	.L82
 630:Generated_Source\PSoC5/USBFS_std.c ****                         {
 631:Generated_Source\PSoC5/USBFS_std.c ****                             epType = pEP->attributes & USBFS_EP_TYPE_MASK;
 1200              		.loc 1 631 0
 1201 0192 7B69     		ldr	r3, [r7, #20]
 1202 0194 DB78     		ldrb	r3, [r3, #3]	@ zero_extendqisi2
 1203 0196 03F00303 		and	r3, r3, #3
 1204 019a FB72     		strb	r3, [r7, #11]
 632:Generated_Source\PSoC5/USBFS_std.c ****                             if ((pEP->addr & USBFS_DIR_IN) != 0u)
 1205              		.loc 1 632 0
 1206 019c 7B69     		ldr	r3, [r7, #20]
 1207 019e 9B78     		ldrb	r3, [r3, #2]	@ zero_extendqisi2
 1208 01a0 DBB2     		uxtb	r3, r3
 1209 01a2 5BB2     		sxtb	r3, r3
 1210 01a4 002B     		cmp	r3, #0
 1211 01a6 18DA     		bge	.L84
 633:Generated_Source\PSoC5/USBFS_std.c ****                             {
 634:Generated_Source\PSoC5/USBFS_std.c ****                                 /* IN Endpoint */
 635:Generated_Source\PSoC5/USBFS_std.c ****                                 USBFS_EP[i].apiEpState = USBFS_EVENT_PENDING;
 1212              		.loc 1 635 0
 1213 01a8 7A7F     		ldrb	r2, [r7, #29]	@ zero_extendqisi2
 1214 01aa 3F49     		ldr	r1, .L96
 1215 01ac 1346     		mov	r3, r2
 1216 01ae 5B00     		lsls	r3, r3, #1
 1217 01b0 1344     		add	r3, r3, r2
 1218 01b2 9B00     		lsls	r3, r3, #2
 1219 01b4 0B44     		add	r3, r3, r1
 1220 01b6 0122     		movs	r2, #1
 1221 01b8 5A70     		strb	r2, [r3, #1]
 636:Generated_Source\PSoC5/USBFS_std.c ****                                 USBFS_EP[i].epMode = (epType == USBFS_EP_TYPE_ISOC) ?
 1222              		.loc 1 636 0
 1223 01ba 7A7F     		ldrb	r2, [r7, #29]	@ zero_extendqisi2
 1224 01bc FB7A     		ldrb	r3, [r7, #11]	@ zero_extendqisi2
 1225 01be 012B     		cmp	r3, #1
 1226 01c0 01D1     		bne	.L85
 1227              		.loc 1 636 0 is_stmt 0 discriminator 1
 1228 01c2 0720     		movs	r0, #7
 1229 01c4 00E0     		b	.L86
 1230              	.L85:
 1231              		.loc 1 636 0 discriminator 2
 1232 01c6 0D20     		movs	r0, #13
 1233              	.L86:
 1234              		.loc 1 636 0 discriminator 4
 1235 01c8 3749     		ldr	r1, .L96
 1236 01ca 1346     		mov	r3, r2
 1237 01cc 5B00     		lsls	r3, r3, #1
 1238 01ce 1344     		add	r3, r3, r2
 1239 01d0 9B00     		lsls	r3, r3, #2
ARM GAS  C:\Users\JOSANT~1\AppData\Local\Temp\cceoxjZy.s 			page 35


 1240 01d2 0B44     		add	r3, r3, r1
 1241 01d4 0246     		mov	r2, r0
 1242 01d6 5A71     		strb	r2, [r3, #5]
 1243 01d8 17E0     		b	.L87
 1244              	.L84:
 637:Generated_Source\PSoC5/USBFS_std.c ****                                                         USBFS_MODE_ISO_IN : USBFS_MODE_ACK_IN;
 638:Generated_Source\PSoC5/USBFS_std.c ****                                 /* Find and initialize CDC IN endpoint number */
 639:Generated_Source\PSoC5/USBFS_std.c ****                                 #if defined(USBFS_ENABLE_CDC_CLASS)
 640:Generated_Source\PSoC5/USBFS_std.c ****                                     if(((pEP->bMisc == USBFS_CLASS_CDC_DATA) ||
 641:Generated_Source\PSoC5/USBFS_std.c ****                                         (pEP->bMisc == USBFS_CLASS_CDC)) &&
 642:Generated_Source\PSoC5/USBFS_std.c ****                                         (epType != USBFS_EP_TYPE_INT))
 643:Generated_Source\PSoC5/USBFS_std.c ****                                     {
 644:Generated_Source\PSoC5/USBFS_std.c ****                                         USBFS_cdc_data_in_ep = i;
 645:Generated_Source\PSoC5/USBFS_std.c ****                                     }
 646:Generated_Source\PSoC5/USBFS_std.c ****                                 #endif  /*  USBFS_ENABLE_CDC_CLASS*/
 647:Generated_Source\PSoC5/USBFS_std.c ****                                 #if ( defined(USBFS_ENABLE_MIDI_STREAMING) && \
 648:Generated_Source\PSoC5/USBFS_std.c ****                                              (USBFS_MIDI_IN_BUFF_SIZE > 0) )
 649:Generated_Source\PSoC5/USBFS_std.c ****                                     if((pEP->bMisc == USBFS_CLASS_AUDIO) &&
 650:Generated_Source\PSoC5/USBFS_std.c ****                                        (epType == USBFS_EP_TYPE_BULK))
 651:Generated_Source\PSoC5/USBFS_std.c ****                                     {
 652:Generated_Source\PSoC5/USBFS_std.c ****                                         USBFS_midi_in_ep = i;
 653:Generated_Source\PSoC5/USBFS_std.c ****                                     }
 654:Generated_Source\PSoC5/USBFS_std.c ****                                 #endif  /*  USBFS_ENABLE_MIDI_STREAMING*/
 655:Generated_Source\PSoC5/USBFS_std.c ****                             }
 656:Generated_Source\PSoC5/USBFS_std.c ****                             else
 657:Generated_Source\PSoC5/USBFS_std.c ****                             {
 658:Generated_Source\PSoC5/USBFS_std.c ****                                 /* OUT Endpoint */
 659:Generated_Source\PSoC5/USBFS_std.c ****                                 USBFS_EP[i].apiEpState = USBFS_NO_EVENT_PENDING;
 1245              		.loc 1 659 0 is_stmt 1
 1246 01da 7A7F     		ldrb	r2, [r7, #29]	@ zero_extendqisi2
 1247 01dc 3249     		ldr	r1, .L96
 1248 01de 1346     		mov	r3, r2
 1249 01e0 5B00     		lsls	r3, r3, #1
 1250 01e2 1344     		add	r3, r3, r2
 1251 01e4 9B00     		lsls	r3, r3, #2
 1252 01e6 0B44     		add	r3, r3, r1
 1253 01e8 0022     		movs	r2, #0
 1254 01ea 5A70     		strb	r2, [r3, #1]
 660:Generated_Source\PSoC5/USBFS_std.c ****                                 USBFS_EP[i].epMode = (epType == USBFS_EP_TYPE_ISOC) ?
 1255              		.loc 1 660 0
 1256 01ec 7A7F     		ldrb	r2, [r7, #29]	@ zero_extendqisi2
 1257 01ee FB7A     		ldrb	r3, [r7, #11]	@ zero_extendqisi2
 1258 01f0 012B     		cmp	r3, #1
 1259 01f2 01D1     		bne	.L88
 1260              		.loc 1 660 0 is_stmt 0 discriminator 1
 1261 01f4 0520     		movs	r0, #5
 1262 01f6 00E0     		b	.L89
 1263              	.L88:
 1264              		.loc 1 660 0 discriminator 2
 1265 01f8 0920     		movs	r0, #9
 1266              	.L89:
 1267              		.loc 1 660 0 discriminator 4
 1268 01fa 2B49     		ldr	r1, .L96
 1269 01fc 1346     		mov	r3, r2
 1270 01fe 5B00     		lsls	r3, r3, #1
 1271 0200 1344     		add	r3, r3, r2
 1272 0202 9B00     		lsls	r3, r3, #2
ARM GAS  C:\Users\JOSANT~1\AppData\Local\Temp\cceoxjZy.s 			page 36


 1273 0204 0B44     		add	r3, r3, r1
 1274 0206 0246     		mov	r2, r0
 1275 0208 5A71     		strb	r2, [r3, #5]
 1276              	.L87:
 661:Generated_Source\PSoC5/USBFS_std.c ****                                                     USBFS_MODE_ISO_OUT : USBFS_MODE_ACK_OUT;
 662:Generated_Source\PSoC5/USBFS_std.c ****                                 /* Find and initialize CDC IN endpoint number */
 663:Generated_Source\PSoC5/USBFS_std.c ****                                 #if defined(USBFS_ENABLE_CDC_CLASS)
 664:Generated_Source\PSoC5/USBFS_std.c ****                                     if(((pEP->bMisc == USBFS_CLASS_CDC_DATA) ||
 665:Generated_Source\PSoC5/USBFS_std.c ****                                         (pEP->bMisc == USBFS_CLASS_CDC)) &&
 666:Generated_Source\PSoC5/USBFS_std.c ****                                         (epType != USBFS_EP_TYPE_INT))
 667:Generated_Source\PSoC5/USBFS_std.c ****                                     {
 668:Generated_Source\PSoC5/USBFS_std.c ****                                         USBFS_cdc_data_out_ep = i;
 669:Generated_Source\PSoC5/USBFS_std.c ****                                     }
 670:Generated_Source\PSoC5/USBFS_std.c ****                                 #endif  /*  USBFS_ENABLE_CDC_CLASS*/
 671:Generated_Source\PSoC5/USBFS_std.c ****                                 #if ( defined(USBFS_ENABLE_MIDI_STREAMING) && \
 672:Generated_Source\PSoC5/USBFS_std.c ****                                              (USBFS_MIDI_OUT_BUFF_SIZE > 0) )
 673:Generated_Source\PSoC5/USBFS_std.c ****                                     if((pEP->bMisc == USBFS_CLASS_AUDIO) &&
 674:Generated_Source\PSoC5/USBFS_std.c ****                                        (epType == USBFS_EP_TYPE_BULK))
 675:Generated_Source\PSoC5/USBFS_std.c ****                                     {
 676:Generated_Source\PSoC5/USBFS_std.c ****                                         USBFS_midi_out_ep = i;
 677:Generated_Source\PSoC5/USBFS_std.c ****                                     }
 678:Generated_Source\PSoC5/USBFS_std.c ****                                 #endif  /*  USBFS_ENABLE_MIDI_STREAMING*/
 679:Generated_Source\PSoC5/USBFS_std.c ****                             }
 680:Generated_Source\PSoC5/USBFS_std.c ****                             USBFS_EP[i].addr = pEP->addr;
 1277              		.loc 1 680 0 is_stmt 1
 1278 020a 7A7F     		ldrb	r2, [r7, #29]	@ zero_extendqisi2
 1279 020c 7B69     		ldr	r3, [r7, #20]
 1280 020e 9878     		ldrb	r0, [r3, #2]	@ zero_extendqisi2
 1281 0210 2549     		ldr	r1, .L96
 1282 0212 1346     		mov	r3, r2
 1283 0214 5B00     		lsls	r3, r3, #1
 1284 0216 1344     		add	r3, r3, r2
 1285 0218 9B00     		lsls	r3, r3, #2
 1286 021a 0B44     		add	r3, r3, r1
 1287 021c 0246     		mov	r2, r0
 1288 021e 1A71     		strb	r2, [r3, #4]
 681:Generated_Source\PSoC5/USBFS_std.c ****                             USBFS_EP[i].attrib = pEP->attributes;
 1289              		.loc 1 681 0
 1290 0220 7A7F     		ldrb	r2, [r7, #29]	@ zero_extendqisi2
 1291 0222 7B69     		ldr	r3, [r7, #20]
 1292 0224 D878     		ldrb	r0, [r3, #3]	@ zero_extendqisi2
 1293 0226 2049     		ldr	r1, .L96
 1294 0228 1346     		mov	r3, r2
 1295 022a 5B00     		lsls	r3, r3, #1
 1296 022c 1344     		add	r3, r3, r2
 1297 022e 9B00     		lsls	r3, r3, #2
 1298 0230 0B44     		add	r3, r3, r1
 1299 0232 0246     		mov	r2, r0
 1300 0234 1A70     		strb	r2, [r3]
 1301              	.L82:
 682:Generated_Source\PSoC5/USBFS_std.c **** 
 683:Generated_Source\PSoC5/USBFS_std.c ****                             #if(USBFS_EP_MM == USBFS__EP_DMAAUTO)
 684:Generated_Source\PSoC5/USBFS_std.c ****                                 break;      /* use first EP setting in Auto memory managment */
 685:Generated_Source\PSoC5/USBFS_std.c ****                             #endif /*  USBFS_EP_MM == USBFS__EP_DMAAUTO */
 686:Generated_Source\PSoC5/USBFS_std.c ****                         }
 687:Generated_Source\PSoC5/USBFS_std.c ****                     }
 688:Generated_Source\PSoC5/USBFS_std.c ****                     pEP = &pEP[1u];
ARM GAS  C:\Users\JOSANT~1\AppData\Local\Temp\cceoxjZy.s 			page 37


 1302              		.loc 1 688 0 discriminator 2
 1303 0236 7B69     		ldr	r3, [r7, #20]
 1304 0238 0833     		adds	r3, r3, #8
 1305 023a 7B61     		str	r3, [r7, #20]
 619:Generated_Source\PSoC5/USBFS_std.c ****                 {
 1306              		.loc 1 619 0 discriminator 2
 1307 023c BB7F     		ldrb	r3, [r7, #30]	@ zero_extendqisi2
 1308 023e 0133     		adds	r3, r3, #1
 1309 0240 BB77     		strb	r3, [r7, #30]
 1310              	.L81:
 619:Generated_Source\PSoC5/USBFS_std.c ****                 {
 1311              		.loc 1 619 0 is_stmt 0 discriminator 1
 1312 0242 BA7F     		ldrb	r2, [r7, #30]	@ zero_extendqisi2
 1313 0244 FB7F     		ldrb	r3, [r7, #31]	@ zero_extendqisi2
 1314 0246 9A42     		cmp	r2, r3
 1315 0248 FFF478AF 		bcc	.L90
 613:Generated_Source\PSoC5/USBFS_std.c ****             {
 1316              		.loc 1 613 0 is_stmt 1 discriminator 2
 1317 024c 7B7F     		ldrb	r3, [r7, #29]	@ zero_extendqisi2
 1318 024e 0133     		adds	r3, r3, #1
 1319 0250 7B77     		strb	r3, [r7, #29]
 1320              	.L80:
 613:Generated_Source\PSoC5/USBFS_std.c ****             {
 1321              		.loc 1 613 0 is_stmt 0 discriminator 1
 1322 0252 7B7F     		ldrb	r3, [r7, #29]	@ zero_extendqisi2
 1323 0254 082B     		cmp	r3, #8
 1324 0256 7FF66BAF 		bls	.L91
 689:Generated_Source\PSoC5/USBFS_std.c ****                 }
 690:Generated_Source\PSoC5/USBFS_std.c ****             }
 691:Generated_Source\PSoC5/USBFS_std.c ****         #endif /*  (USBFS_EP_MA == USBFS__MA_DYNAMIC) */
 692:Generated_Source\PSoC5/USBFS_std.c **** 
 693:Generated_Source\PSoC5/USBFS_std.c ****         /* Init class array for each interface and interface number for each EP.
 694:Generated_Source\PSoC5/USBFS_std.c ****         *  It is used for handling Class specific requests directed to either an
 695:Generated_Source\PSoC5/USBFS_std.c ****         *  interface or the endpoint.
 696:Generated_Source\PSoC5/USBFS_std.c ****         */
 697:Generated_Source\PSoC5/USBFS_std.c ****         /* p_list points the endpoint setting table. */
 698:Generated_Source\PSoC5/USBFS_std.c ****         pEP = (const T_USBFS_EP_SETTINGS_BLOCK CYCODE *) pTmp->p_list;
 1325              		.loc 1 698 0 is_stmt 1
 1326 025a 3B69     		ldr	r3, [r7, #16]
 1327 025c 5B68     		ldr	r3, [r3, #4]
 1328 025e 7B61     		str	r3, [r7, #20]
 699:Generated_Source\PSoC5/USBFS_std.c ****         for (i = 0u; i < ep; i++)
 1329              		.loc 1 699 0
 1330 0260 0023     		movs	r3, #0
 1331 0262 7B77     		strb	r3, [r7, #29]
 1332 0264 14E0     		b	.L92
 1333              	.L93:
 700:Generated_Source\PSoC5/USBFS_std.c ****         {
 701:Generated_Source\PSoC5/USBFS_std.c ****             /* Configure interface number for each EP*/
 702:Generated_Source\PSoC5/USBFS_std.c ****             USBFS_EP[pEP->addr & USBFS_DIR_UNUSED].interface = pEP->interface;
 1334              		.loc 1 702 0 discriminator 3
 1335 0266 7B69     		ldr	r3, [r7, #20]
 1336 0268 9B78     		ldrb	r3, [r3, #2]	@ zero_extendqisi2
 1337 026a 03F07F02 		and	r2, r3, #127
 1338 026e 7B69     		ldr	r3, [r7, #20]
 1339 0270 1878     		ldrb	r0, [r3]	@ zero_extendqisi2
 1340 0272 0D49     		ldr	r1, .L96
ARM GAS  C:\Users\JOSANT~1\AppData\Local\Temp\cceoxjZy.s 			page 38


 1341 0274 1346     		mov	r3, r2
 1342 0276 5B00     		lsls	r3, r3, #1
 1343 0278 1344     		add	r3, r3, r2
 1344 027a 9B00     		lsls	r3, r3, #2
 1345 027c 0B44     		add	r3, r3, r1
 1346 027e 0833     		adds	r3, r3, #8
 1347 0280 0246     		mov	r2, r0
 1348 0282 9A70     		strb	r2, [r3, #2]
 703:Generated_Source\PSoC5/USBFS_std.c ****             pEP = &pEP[1u];
 1349              		.loc 1 703 0 discriminator 3
 1350 0284 7B69     		ldr	r3, [r7, #20]
 1351 0286 0833     		adds	r3, r3, #8
 1352 0288 7B61     		str	r3, [r7, #20]
 699:Generated_Source\PSoC5/USBFS_std.c ****         for (i = 0u; i < ep; i++)
 1353              		.loc 1 699 0 discriminator 3
 1354 028a 7B7F     		ldrb	r3, [r7, #29]	@ zero_extendqisi2
 1355 028c 0133     		adds	r3, r3, #1
 1356 028e 7B77     		strb	r3, [r7, #29]
 1357              	.L92:
 699:Generated_Source\PSoC5/USBFS_std.c ****         for (i = 0u; i < ep; i++)
 1358              		.loc 1 699 0 is_stmt 0 discriminator 1
 1359 0290 7A7F     		ldrb	r2, [r7, #29]	@ zero_extendqisi2
 1360 0292 FB7F     		ldrb	r3, [r7, #31]	@ zero_extendqisi2
 1361 0294 9A42     		cmp	r2, r3
 1362 0296 E6D3     		bcc	.L93
 704:Generated_Source\PSoC5/USBFS_std.c ****         }
 705:Generated_Source\PSoC5/USBFS_std.c ****         /* Init pointer on interface class table*/
 706:Generated_Source\PSoC5/USBFS_std.c ****         USBFS_interfaceClass = USBFS_GetInterfaceClassTablePtr();
 1363              		.loc 1 706 0 is_stmt 1
 1364 0298 FFF7FEFF 		bl	USBFS_GetInterfaceClassTablePtr
 1365 029c 0246     		mov	r2, r0
 1366 029e 074B     		ldr	r3, .L96+20
 1367 02a0 1A60     		str	r2, [r3]
 707:Generated_Source\PSoC5/USBFS_std.c ****         /* Set the endpoint buffer addresses */
 708:Generated_Source\PSoC5/USBFS_std.c **** 
 709:Generated_Source\PSoC5/USBFS_std.c ****         #if(USBFS_EP_MM != USBFS__EP_DMAAUTO)
 710:Generated_Source\PSoC5/USBFS_std.c ****             for (ep = USBFS_EP1; ep < USBFS_MAX_EP; ep++)
 1368              		.loc 1 710 0
 1369 02a2 0123     		movs	r3, #1
 1370 02a4 FB77     		strb	r3, [r7, #31]
 1371 02a6 24E0     		b	.L94
 1372              	.L97:
 1373              		.align	2
 1374              	.L96:
 1375 02a8 00000000 		.word	USBFS_EP
 1376 02ac 00000000 		.word	USBFS_interfaceSetting
 1377 02b0 00000000 		.word	USBFS_interfaceSetting_last
 1378 02b4 00000000 		.word	USBFS_configuration
 1379 02b8 00000000 		.word	USBFS_deviceStatus
 1380 02bc 00000000 		.word	USBFS_interfaceClass
 1381              	.L95:
 711:Generated_Source\PSoC5/USBFS_std.c ****             {
 712:Generated_Source\PSoC5/USBFS_std.c ****                 USBFS_EP[ep].buffOffset = buffCount;
 1382              		.loc 1 712 0 discriminator 3
 1383 02c0 FA7F     		ldrb	r2, [r7, #31]	@ zero_extendqisi2
 1384 02c2 1049     		ldr	r1, .L98
 1385 02c4 1346     		mov	r3, r2
ARM GAS  C:\Users\JOSANT~1\AppData\Local\Temp\cceoxjZy.s 			page 39


 1386 02c6 5B00     		lsls	r3, r3, #1
 1387 02c8 1344     		add	r3, r3, r2
 1388 02ca 9B00     		lsls	r3, r3, #2
 1389 02cc 0B44     		add	r3, r3, r1
 1390 02ce 7A8B     		ldrh	r2, [r7, #26]	@ movhi
 1391 02d0 DA80     		strh	r2, [r3, #6]	@ movhi
 713:Generated_Source\PSoC5/USBFS_std.c ****                  buffCount += USBFS_EP[ep].bufferSize;
 1392              		.loc 1 713 0 discriminator 3
 1393 02d2 FA7F     		ldrb	r2, [r7, #31]	@ zero_extendqisi2
 1394 02d4 0B49     		ldr	r1, .L98
 1395 02d6 1346     		mov	r3, r2
 1396 02d8 5B00     		lsls	r3, r3, #1
 1397 02da 1344     		add	r3, r3, r2
 1398 02dc 9B00     		lsls	r3, r3, #2
 1399 02de 0B44     		add	r3, r3, r1
 1400 02e0 0833     		adds	r3, r3, #8
 1401 02e2 1B88     		ldrh	r3, [r3]	@ movhi
 1402 02e4 9AB2     		uxth	r2, r3
 1403 02e6 7B8B     		ldrh	r3, [r7, #26]	@ movhi
 1404 02e8 1344     		add	r3, r3, r2
 1405 02ea 7B83     		strh	r3, [r7, #26]	@ movhi
 710:Generated_Source\PSoC5/USBFS_std.c ****             {
 1406              		.loc 1 710 0 discriminator 3
 1407 02ec FB7F     		ldrb	r3, [r7, #31]	@ zero_extendqisi2
 1408 02ee 0133     		adds	r3, r3, #1
 1409 02f0 FB77     		strb	r3, [r7, #31]
 1410              	.L94:
 710:Generated_Source\PSoC5/USBFS_std.c ****             {
 1411              		.loc 1 710 0 is_stmt 0 discriminator 1
 1412 02f2 FB7F     		ldrb	r3, [r7, #31]	@ zero_extendqisi2
 1413 02f4 082B     		cmp	r3, #8
 1414 02f6 E3D9     		bls	.L95
 714:Generated_Source\PSoC5/USBFS_std.c ****             }
 715:Generated_Source\PSoC5/USBFS_std.c ****         #endif /*  USBFS_EP_MM != USBFS__EP_DMAAUTO */
 716:Generated_Source\PSoC5/USBFS_std.c **** 
 717:Generated_Source\PSoC5/USBFS_std.c ****         /* Configure hardware registers */
 718:Generated_Source\PSoC5/USBFS_std.c ****         USBFS_ConfigReg();
 1415              		.loc 1 718 0 is_stmt 1
 1416 02f8 FFF7FEFF 		bl	USBFS_ConfigReg
 1417              	.L71:
 719:Generated_Source\PSoC5/USBFS_std.c ****     } /* USBFS_configuration > 0 */
 720:Generated_Source\PSoC5/USBFS_std.c **** }
 1418              		.loc 1 720 0
 1419 02fc 2037     		adds	r7, r7, #32
 1420              		.cfi_def_cfa_offset 8
 1421 02fe BD46     		mov	sp, r7
 1422              		.cfi_def_cfa_register 13
 1423              		@ sp needed
 1424 0300 80BD     		pop	{r7, pc}
 1425              	.L99:
 1426 0302 00BF     		.align	2
 1427              	.L98:
 1428 0304 00000000 		.word	USBFS_EP
 1429              		.cfi_endproc
 1430              	.LFE2:
 1431              		.size	USBFS_Config, .-USBFS_Config
 1432              		.section	.text.USBFS_ConfigAltChanged,"ax",%progbits
ARM GAS  C:\Users\JOSANT~1\AppData\Local\Temp\cceoxjZy.s 			page 40


 1433              		.align	2
 1434              		.global	USBFS_ConfigAltChanged
 1435              		.thumb
 1436              		.thumb_func
 1437              		.type	USBFS_ConfigAltChanged, %function
 1438              	USBFS_ConfigAltChanged:
 1439              	.LFB3:
 721:Generated_Source\PSoC5/USBFS_std.c **** 
 722:Generated_Source\PSoC5/USBFS_std.c **** 
 723:Generated_Source\PSoC5/USBFS_std.c **** /*******************************************************************************
 724:Generated_Source\PSoC5/USBFS_std.c **** * Function Name: USBFS_ConfigAltChanged
 725:Generated_Source\PSoC5/USBFS_std.c **** ********************************************************************************
 726:Generated_Source\PSoC5/USBFS_std.c **** *
 727:Generated_Source\PSoC5/USBFS_std.c **** * Summary:
 728:Generated_Source\PSoC5/USBFS_std.c **** *  This routine update configuration for the required endpoints only.
 729:Generated_Source\PSoC5/USBFS_std.c **** *  It is called after SET_INTERFACE request when Static memory allocation used.
 730:Generated_Source\PSoC5/USBFS_std.c **** *
 731:Generated_Source\PSoC5/USBFS_std.c **** * Parameters:
 732:Generated_Source\PSoC5/USBFS_std.c **** *  None.
 733:Generated_Source\PSoC5/USBFS_std.c **** *
 734:Generated_Source\PSoC5/USBFS_std.c **** * Return:
 735:Generated_Source\PSoC5/USBFS_std.c **** *  None.
 736:Generated_Source\PSoC5/USBFS_std.c **** *
 737:Generated_Source\PSoC5/USBFS_std.c **** * Reentrant:
 738:Generated_Source\PSoC5/USBFS_std.c **** *  No.
 739:Generated_Source\PSoC5/USBFS_std.c **** *
 740:Generated_Source\PSoC5/USBFS_std.c **** *******************************************************************************/
 741:Generated_Source\PSoC5/USBFS_std.c **** void USBFS_ConfigAltChanged(void) 
 742:Generated_Source\PSoC5/USBFS_std.c **** {
 1440              		.loc 1 742 0
 1441              		.cfi_startproc
 1442              		@ args = 0, pretend = 0, frame = 16
 1443              		@ frame_needed = 1, uses_anonymous_args = 0
 1444 0000 80B5     		push	{r7, lr}
 1445              		.cfi_def_cfa_offset 8
 1446              		.cfi_offset 7, -8
 1447              		.cfi_offset 14, -4
 1448 0002 84B0     		sub	sp, sp, #16
 1449              		.cfi_def_cfa_offset 24
 1450 0004 00AF     		add	r7, sp, #0
 1451              		.cfi_def_cfa_register 7
 743:Generated_Source\PSoC5/USBFS_std.c ****     uint8 ep;
 744:Generated_Source\PSoC5/USBFS_std.c ****     uint8 cur_ep;
 745:Generated_Source\PSoC5/USBFS_std.c ****     uint8 i;
 746:Generated_Source\PSoC5/USBFS_std.c ****     uint8 epType;
 747:Generated_Source\PSoC5/USBFS_std.c ****     uint8 ri;
 748:Generated_Source\PSoC5/USBFS_std.c **** 
 749:Generated_Source\PSoC5/USBFS_std.c ****     const T_USBFS_LUT CYCODE *pTmp;
 750:Generated_Source\PSoC5/USBFS_std.c ****     const T_USBFS_EP_SETTINGS_BLOCK CYCODE *pEP;
 751:Generated_Source\PSoC5/USBFS_std.c **** 
 752:Generated_Source\PSoC5/USBFS_std.c **** 
 753:Generated_Source\PSoC5/USBFS_std.c ****     /* Init Endpoints and Device Status if configured */
 754:Generated_Source\PSoC5/USBFS_std.c ****     if(USBFS_configuration > 0u)
 1452              		.loc 1 754 0
 1453 0006 914B     		ldr	r3, .L111
 1454 0008 1B78     		ldrb	r3, [r3]
 1455 000a DBB2     		uxtb	r3, r3
ARM GAS  C:\Users\JOSANT~1\AppData\Local\Temp\cceoxjZy.s 			page 41


 1456 000c 002B     		cmp	r3, #0
 1457 000e 00F01A81 		beq	.L100
 755:Generated_Source\PSoC5/USBFS_std.c ****     {
 756:Generated_Source\PSoC5/USBFS_std.c ****         pTmp = USBFS_GetConfigTablePtr(USBFS_configuration - 1u);
 1458              		.loc 1 756 0
 1459 0012 8E4B     		ldr	r3, .L111
 1460 0014 1B78     		ldrb	r3, [r3]
 1461 0016 DBB2     		uxtb	r3, r3
 1462 0018 013B     		subs	r3, r3, #1
 1463 001a DBB2     		uxtb	r3, r3
 1464 001c 1846     		mov	r0, r3
 1465 001e FFF7FEFF 		bl	USBFS_GetConfigTablePtr
 1466 0022 7860     		str	r0, [r7, #4]
 757:Generated_Source\PSoC5/USBFS_std.c ****         pTmp = &pTmp[1u];
 1467              		.loc 1 757 0
 1468 0024 7B68     		ldr	r3, [r7, #4]
 1469 0026 0833     		adds	r3, r3, #8
 1470 0028 7B60     		str	r3, [r7, #4]
 758:Generated_Source\PSoC5/USBFS_std.c ****         ep = pTmp->c;  /* For this table, c is the number of endpoints configurations  */
 1471              		.loc 1 758 0
 1472 002a 7B68     		ldr	r3, [r7, #4]
 1473 002c 1B78     		ldrb	r3, [r3]
 1474 002e FB70     		strb	r3, [r7, #3]
 759:Generated_Source\PSoC5/USBFS_std.c **** 
 760:Generated_Source\PSoC5/USBFS_std.c ****         /* Do not touch EP which doesn't need reconfiguration */
 761:Generated_Source\PSoC5/USBFS_std.c ****         /* When Alt setting changed, the only required endpoints need to be reconfigured */
 762:Generated_Source\PSoC5/USBFS_std.c ****         /* p_list points the endpoint setting table. */
 763:Generated_Source\PSoC5/USBFS_std.c ****         pEP = (const T_USBFS_EP_SETTINGS_BLOCK CYCODE *) pTmp->p_list;
 1475              		.loc 1 763 0
 1476 0030 7B68     		ldr	r3, [r7, #4]
 1477 0032 5B68     		ldr	r3, [r3, #4]
 1478 0034 BB60     		str	r3, [r7, #8]
 764:Generated_Source\PSoC5/USBFS_std.c ****         for (i = 0u; i < ep; i++)
 1479              		.loc 1 764 0
 1480 0036 0023     		movs	r3, #0
 1481 0038 FB73     		strb	r3, [r7, #15]
 1482 003a FFE0     		b	.L102
 1483              	.L110:
 765:Generated_Source\PSoC5/USBFS_std.c ****         {
 766:Generated_Source\PSoC5/USBFS_std.c ****             /*If Alt setting changed and new is same with EP Alt */
 767:Generated_Source\PSoC5/USBFS_std.c ****             if((USBFS_interfaceSetting[pEP->interface] !=
 1484              		.loc 1 767 0
 1485 003c BB68     		ldr	r3, [r7, #8]
 1486 003e 1B78     		ldrb	r3, [r3]	@ zero_extendqisi2
 1487 0040 1A46     		mov	r2, r3
 1488 0042 834B     		ldr	r3, .L111+4
 1489 0044 9B5C     		ldrb	r3, [r3, r2]
 1490 0046 DAB2     		uxtb	r2, r3
 768:Generated_Source\PSoC5/USBFS_std.c ****                 USBFS_interfaceSetting_last[pEP->interface] ) &&
 1491              		.loc 1 768 0
 1492 0048 BB68     		ldr	r3, [r7, #8]
 1493 004a 1B78     		ldrb	r3, [r3]	@ zero_extendqisi2
 1494 004c 1946     		mov	r1, r3
 1495 004e 814B     		ldr	r3, .L111+8
 1496 0050 5B5C     		ldrb	r3, [r3, r1]
 1497 0052 DBB2     		uxtb	r3, r3
 767:Generated_Source\PSoC5/USBFS_std.c ****                 USBFS_interfaceSetting_last[pEP->interface] ) &&
ARM GAS  C:\Users\JOSANT~1\AppData\Local\Temp\cceoxjZy.s 			page 42


 1498              		.loc 1 767 0
 1499 0054 9A42     		cmp	r2, r3
 1500 0056 00F0EB80 		beq	.L103
 769:Generated_Source\PSoC5/USBFS_std.c ****                (USBFS_interfaceSetting[pEP->interface] == pEP->altSetting) &&
 1501              		.loc 1 769 0
 1502 005a BB68     		ldr	r3, [r7, #8]
 1503 005c 1B78     		ldrb	r3, [r3]	@ zero_extendqisi2
 1504 005e 1A46     		mov	r2, r3
 1505 0060 7B4B     		ldr	r3, .L111+4
 1506 0062 9B5C     		ldrb	r3, [r3, r2]
 1507 0064 DAB2     		uxtb	r2, r3
 1508 0066 BB68     		ldr	r3, [r7, #8]
 1509 0068 5B78     		ldrb	r3, [r3, #1]	@ zero_extendqisi2
 768:Generated_Source\PSoC5/USBFS_std.c ****                 USBFS_interfaceSetting_last[pEP->interface] ) &&
 1510              		.loc 1 768 0
 1511 006a 9A42     		cmp	r2, r3
 1512 006c 40F0E080 		bne	.L103
 770:Generated_Source\PSoC5/USBFS_std.c ****                (pEP->interface == CY_GET_REG8(USBFS_wIndexLo)))
 1513              		.loc 1 770 0
 1514 0070 BB68     		ldr	r3, [r7, #8]
 1515 0072 1A78     		ldrb	r2, [r3]	@ zero_extendqisi2
 1516 0074 784B     		ldr	r3, .L111+12
 1517 0076 1B78     		ldrb	r3, [r3]
 1518 0078 DBB2     		uxtb	r3, r3
 769:Generated_Source\PSoC5/USBFS_std.c ****                (USBFS_interfaceSetting[pEP->interface] == pEP->altSetting) &&
 1519              		.loc 1 769 0
 1520 007a 9A42     		cmp	r2, r3
 1521 007c 40F0D880 		bne	.L103
 771:Generated_Source\PSoC5/USBFS_std.c ****             {
 772:Generated_Source\PSoC5/USBFS_std.c ****                 cur_ep = pEP->addr & USBFS_DIR_UNUSED;
 1522              		.loc 1 772 0
 1523 0080 BB68     		ldr	r3, [r7, #8]
 1524 0082 9B78     		ldrb	r3, [r3, #2]	@ zero_extendqisi2
 1525 0084 03F07F03 		and	r3, r3, #127
 1526 0088 BB70     		strb	r3, [r7, #2]
 773:Generated_Source\PSoC5/USBFS_std.c ****                 ri = ((cur_ep - USBFS_EP1) << USBFS_EPX_CNTX_ADDR_SHIFT);
 1527              		.loc 1 773 0
 1528 008a BB78     		ldrb	r3, [r7, #2]
 1529 008c 013B     		subs	r3, r3, #1
 1530 008e DBB2     		uxtb	r3, r3
 1531 0090 1B01     		lsls	r3, r3, #4
 1532 0092 7B70     		strb	r3, [r7, #1]
 774:Generated_Source\PSoC5/USBFS_std.c ****                 epType = pEP->attributes & USBFS_EP_TYPE_MASK;
 1533              		.loc 1 774 0
 1534 0094 BB68     		ldr	r3, [r7, #8]
 1535 0096 DB78     		ldrb	r3, [r3, #3]	@ zero_extendqisi2
 1536 0098 03F00303 		and	r3, r3, #3
 1537 009c 3B70     		strb	r3, [r7]
 775:Generated_Source\PSoC5/USBFS_std.c ****                 if ((pEP->addr & USBFS_DIR_IN) != 0u)
 1538              		.loc 1 775 0
 1539 009e BB68     		ldr	r3, [r7, #8]
 1540 00a0 9B78     		ldrb	r3, [r3, #2]	@ zero_extendqisi2
 1541 00a2 DBB2     		uxtb	r3, r3
 1542 00a4 5BB2     		sxtb	r3, r3
 1543 00a6 002B     		cmp	r3, #0
 1544 00a8 18DA     		bge	.L104
 776:Generated_Source\PSoC5/USBFS_std.c ****                 {
ARM GAS  C:\Users\JOSANT~1\AppData\Local\Temp\cceoxjZy.s 			page 43


 777:Generated_Source\PSoC5/USBFS_std.c ****                     /* IN Endpoint */
 778:Generated_Source\PSoC5/USBFS_std.c ****                     USBFS_EP[cur_ep].apiEpState = USBFS_EVENT_PENDING;
 1545              		.loc 1 778 0
 1546 00aa BA78     		ldrb	r2, [r7, #2]	@ zero_extendqisi2
 1547 00ac 6B49     		ldr	r1, .L111+16
 1548 00ae 1346     		mov	r3, r2
 1549 00b0 5B00     		lsls	r3, r3, #1
 1550 00b2 1344     		add	r3, r3, r2
 1551 00b4 9B00     		lsls	r3, r3, #2
 1552 00b6 0B44     		add	r3, r3, r1
 1553 00b8 0122     		movs	r2, #1
 1554 00ba 5A70     		strb	r2, [r3, #1]
 779:Generated_Source\PSoC5/USBFS_std.c ****                     USBFS_EP[cur_ep].epMode = (epType == USBFS_EP_TYPE_ISOC) ?
 1555              		.loc 1 779 0
 1556 00bc BA78     		ldrb	r2, [r7, #2]	@ zero_extendqisi2
 1557 00be 3B78     		ldrb	r3, [r7]	@ zero_extendqisi2
 1558 00c0 012B     		cmp	r3, #1
 1559 00c2 01D1     		bne	.L105
 1560              		.loc 1 779 0 is_stmt 0 discriminator 1
 1561 00c4 0720     		movs	r0, #7
 1562 00c6 00E0     		b	.L106
 1563              	.L105:
 1564              		.loc 1 779 0 discriminator 2
 1565 00c8 0D20     		movs	r0, #13
 1566              	.L106:
 1567              		.loc 1 779 0 discriminator 4
 1568 00ca 6449     		ldr	r1, .L111+16
 1569 00cc 1346     		mov	r3, r2
 1570 00ce 5B00     		lsls	r3, r3, #1
 1571 00d0 1344     		add	r3, r3, r2
 1572 00d2 9B00     		lsls	r3, r3, #2
 1573 00d4 0B44     		add	r3, r3, r1
 1574 00d6 0246     		mov	r2, r0
 1575 00d8 5A71     		strb	r2, [r3, #5]
 1576 00da 17E0     		b	.L107
 1577              	.L104:
 780:Generated_Source\PSoC5/USBFS_std.c ****                                                 USBFS_MODE_ISO_IN : USBFS_MODE_ACK_IN;
 781:Generated_Source\PSoC5/USBFS_std.c ****                 }
 782:Generated_Source\PSoC5/USBFS_std.c ****                 else
 783:Generated_Source\PSoC5/USBFS_std.c ****                 {
 784:Generated_Source\PSoC5/USBFS_std.c ****                     /* OUT Endpoint */
 785:Generated_Source\PSoC5/USBFS_std.c ****                     USBFS_EP[cur_ep].apiEpState = USBFS_NO_EVENT_PENDING;
 1578              		.loc 1 785 0 is_stmt 1
 1579 00dc BA78     		ldrb	r2, [r7, #2]	@ zero_extendqisi2
 1580 00de 5F49     		ldr	r1, .L111+16
 1581 00e0 1346     		mov	r3, r2
 1582 00e2 5B00     		lsls	r3, r3, #1
 1583 00e4 1344     		add	r3, r3, r2
 1584 00e6 9B00     		lsls	r3, r3, #2
 1585 00e8 0B44     		add	r3, r3, r1
 1586 00ea 0022     		movs	r2, #0
 1587 00ec 5A70     		strb	r2, [r3, #1]
 786:Generated_Source\PSoC5/USBFS_std.c ****                     USBFS_EP[cur_ep].epMode = (epType == USBFS_EP_TYPE_ISOC) ?
 1588              		.loc 1 786 0
 1589 00ee BA78     		ldrb	r2, [r7, #2]	@ zero_extendqisi2
 1590 00f0 3B78     		ldrb	r3, [r7]	@ zero_extendqisi2
 1591 00f2 012B     		cmp	r3, #1
ARM GAS  C:\Users\JOSANT~1\AppData\Local\Temp\cceoxjZy.s 			page 44


 1592 00f4 01D1     		bne	.L108
 1593              		.loc 1 786 0 is_stmt 0 discriminator 1
 1594 00f6 0520     		movs	r0, #5
 1595 00f8 00E0     		b	.L109
 1596              	.L108:
 1597              		.loc 1 786 0 discriminator 2
 1598 00fa 0920     		movs	r0, #9
 1599              	.L109:
 1600              		.loc 1 786 0 discriminator 4
 1601 00fc 5749     		ldr	r1, .L111+16
 1602 00fe 1346     		mov	r3, r2
 1603 0100 5B00     		lsls	r3, r3, #1
 1604 0102 1344     		add	r3, r3, r2
 1605 0104 9B00     		lsls	r3, r3, #2
 1606 0106 0B44     		add	r3, r3, r1
 1607 0108 0246     		mov	r2, r0
 1608 010a 5A71     		strb	r2, [r3, #5]
 1609              	.L107:
 787:Generated_Source\PSoC5/USBFS_std.c ****                                                 USBFS_MODE_ISO_OUT : USBFS_MODE_ACK_OUT;
 788:Generated_Source\PSoC5/USBFS_std.c ****                 }
 789:Generated_Source\PSoC5/USBFS_std.c ****                  /* Change the SIE mode for the selected EP to NAK ALL */
 790:Generated_Source\PSoC5/USBFS_std.c ****                  CY_SET_REG8((reg8 *)(USBFS_SIE_EP1_CR0_IND + ri), USBFS_MODE_NAK_IN_OUT);
 1610              		.loc 1 790 0 is_stmt 1
 1611 010c 7A78     		ldrb	r2, [r7, #1]	@ zero_extendqisi2
 1612 010e 544B     		ldr	r3, .L111+20
 1613 0110 1344     		add	r3, r3, r2
 1614 0112 0122     		movs	r2, #1
 1615 0114 1A70     		strb	r2, [r3]
 791:Generated_Source\PSoC5/USBFS_std.c ****                 USBFS_EP[cur_ep].bufferSize = pEP->bufferSize;
 1616              		.loc 1 791 0
 1617 0116 BA78     		ldrb	r2, [r7, #2]	@ zero_extendqisi2
 1618 0118 BB68     		ldr	r3, [r7, #8]
 1619 011a 9888     		ldrh	r0, [r3, #4]
 1620 011c 4F49     		ldr	r1, .L111+16
 1621 011e 1346     		mov	r3, r2
 1622 0120 5B00     		lsls	r3, r3, #1
 1623 0122 1344     		add	r3, r3, r2
 1624 0124 9B00     		lsls	r3, r3, #2
 1625 0126 0B44     		add	r3, r3, r1
 1626 0128 0833     		adds	r3, r3, #8
 1627 012a 0246     		mov	r2, r0	@ movhi
 1628 012c 1A80     		strh	r2, [r3]	@ movhi
 792:Generated_Source\PSoC5/USBFS_std.c ****                 USBFS_EP[cur_ep].addr = pEP->addr;
 1629              		.loc 1 792 0
 1630 012e BA78     		ldrb	r2, [r7, #2]	@ zero_extendqisi2
 1631 0130 BB68     		ldr	r3, [r7, #8]
 1632 0132 9878     		ldrb	r0, [r3, #2]	@ zero_extendqisi2
 1633 0134 4949     		ldr	r1, .L111+16
 1634 0136 1346     		mov	r3, r2
 1635 0138 5B00     		lsls	r3, r3, #1
 1636 013a 1344     		add	r3, r3, r2
 1637 013c 9B00     		lsls	r3, r3, #2
 1638 013e 0B44     		add	r3, r3, r1
 1639 0140 0246     		mov	r2, r0
 1640 0142 1A71     		strb	r2, [r3, #4]
 793:Generated_Source\PSoC5/USBFS_std.c ****                 USBFS_EP[cur_ep].attrib = pEP->attributes;
 1641              		.loc 1 793 0
ARM GAS  C:\Users\JOSANT~1\AppData\Local\Temp\cceoxjZy.s 			page 45


 1642 0144 BA78     		ldrb	r2, [r7, #2]	@ zero_extendqisi2
 1643 0146 BB68     		ldr	r3, [r7, #8]
 1644 0148 D878     		ldrb	r0, [r3, #3]	@ zero_extendqisi2
 1645 014a 4449     		ldr	r1, .L111+16
 1646 014c 1346     		mov	r3, r2
 1647 014e 5B00     		lsls	r3, r3, #1
 1648 0150 1344     		add	r3, r3, r2
 1649 0152 9B00     		lsls	r3, r3, #2
 1650 0154 0B44     		add	r3, r3, r1
 1651 0156 0246     		mov	r2, r0
 1652 0158 1A70     		strb	r2, [r3]
 794:Generated_Source\PSoC5/USBFS_std.c **** 
 795:Generated_Source\PSoC5/USBFS_std.c ****                 /* Clear the data toggle */
 796:Generated_Source\PSoC5/USBFS_std.c ****                 USBFS_EP[cur_ep].epToggle = 0u;
 1653              		.loc 1 796 0
 1654 015a BA78     		ldrb	r2, [r7, #2]	@ zero_extendqisi2
 1655 015c 3F49     		ldr	r1, .L111+16
 1656 015e 1346     		mov	r3, r2
 1657 0160 5B00     		lsls	r3, r3, #1
 1658 0162 1344     		add	r3, r3, r2
 1659 0164 9B00     		lsls	r3, r3, #2
 1660 0166 0B44     		add	r3, r3, r1
 1661 0168 0022     		movs	r2, #0
 1662 016a DA70     		strb	r2, [r3, #3]
 797:Generated_Source\PSoC5/USBFS_std.c **** 
 798:Generated_Source\PSoC5/USBFS_std.c ****                 /* Dynamic reconfiguration for mode 3 transfer */
 799:Generated_Source\PSoC5/USBFS_std.c ****             #if(USBFS_EP_MM == USBFS__EP_DMAAUTO)
 800:Generated_Source\PSoC5/USBFS_std.c ****                 /* In_data_rdy for selected EP should be set to 0 */
 801:Generated_Source\PSoC5/USBFS_std.c ****                 * (reg8 *)(USBFS_ARB_EP1_CFG_IND + ri) &= (uint8)~USBFS_ARB_EPX_CFG_IN_DATA_RDY;
 802:Generated_Source\PSoC5/USBFS_std.c **** 
 803:Generated_Source\PSoC5/USBFS_std.c ****                 /* write the EP number for which reconfiguration is required */
 804:Generated_Source\PSoC5/USBFS_std.c ****                 USBFS_DYN_RECONFIG_REG = (cur_ep - USBFS_EP1) <<
 805:Generated_Source\PSoC5/USBFS_std.c ****                                                     USBFS_DYN_RECONFIG_EP_SHIFT;
 806:Generated_Source\PSoC5/USBFS_std.c ****                 /* Set the dyn_config_en bit in dynamic reconfiguration register */
 807:Generated_Source\PSoC5/USBFS_std.c ****                 USBFS_DYN_RECONFIG_REG |= USBFS_DYN_RECONFIG_ENABLE;
 808:Generated_Source\PSoC5/USBFS_std.c ****                 /* wait for the dyn_config_rdy bit to set by the block,
 809:Generated_Source\PSoC5/USBFS_std.c ****                 *  this bit will be set to 1 when block is ready for reconfiguration.
 810:Generated_Source\PSoC5/USBFS_std.c ****                 */
 811:Generated_Source\PSoC5/USBFS_std.c ****                 while((USBFS_DYN_RECONFIG_REG & USBFS_DYN_RECONFIG_RDY_STS) == 0u)
 812:Generated_Source\PSoC5/USBFS_std.c ****                 {
 813:Generated_Source\PSoC5/USBFS_std.c ****                     ;
 814:Generated_Source\PSoC5/USBFS_std.c ****                 }
 815:Generated_Source\PSoC5/USBFS_std.c ****                 /* Once dyn_config_rdy bit is set, FW can change the EP configuration. */
 816:Generated_Source\PSoC5/USBFS_std.c ****                 /* Change EP Type with new direction */
 817:Generated_Source\PSoC5/USBFS_std.c ****                 if((pEP->addr & USBFS_DIR_IN) == 0u)
 818:Generated_Source\PSoC5/USBFS_std.c ****                 {
 819:Generated_Source\PSoC5/USBFS_std.c ****                     USBFS_EP_TYPE_REG |= (uint8)(0x01u << (cur_ep - USBFS_EP1));
 820:Generated_Source\PSoC5/USBFS_std.c ****                 }
 821:Generated_Source\PSoC5/USBFS_std.c ****                 else
 822:Generated_Source\PSoC5/USBFS_std.c ****                 {
 823:Generated_Source\PSoC5/USBFS_std.c ****                     USBFS_EP_TYPE_REG &= (uint8)~(uint8)(0x01u << (cur_ep - USBFS_EP1));
 824:Generated_Source\PSoC5/USBFS_std.c ****                 }
 825:Generated_Source\PSoC5/USBFS_std.c ****                 /* dynamic reconfiguration enable bit cleared, pointers and control/status
 826:Generated_Source\PSoC5/USBFS_std.c ****                 *  signals for the selected EP is cleared/re-initialized on negative edge
 827:Generated_Source\PSoC5/USBFS_std.c ****                 *  of dynamic reconfiguration enable bit).
 828:Generated_Source\PSoC5/USBFS_std.c ****                 */
 829:Generated_Source\PSoC5/USBFS_std.c ****                 USBFS_DYN_RECONFIG_REG &= (uint8)~USBFS_DYN_RECONFIG_ENABLE;
ARM GAS  C:\Users\JOSANT~1\AppData\Local\Temp\cceoxjZy.s 			page 46


 830:Generated_Source\PSoC5/USBFS_std.c ****                 /* The main loop has to re-enable DMA and OUT endpoint*/
 831:Generated_Source\PSoC5/USBFS_std.c ****             #else
 832:Generated_Source\PSoC5/USBFS_std.c ****                 CY_SET_REG8((reg8 *)(USBFS_SIE_EP1_CNT0_IND + ri),
 1663              		.loc 1 832 0
 1664 016c 7A78     		ldrb	r2, [r7, #1]	@ zero_extendqisi2
 1665 016e 3D4B     		ldr	r3, .L111+24
 1666 0170 1344     		add	r3, r3, r2
 1667 0172 1846     		mov	r0, r3
 1668 0174 BA78     		ldrb	r2, [r7, #2]	@ zero_extendqisi2
 1669 0176 3949     		ldr	r1, .L111+16
 1670 0178 1346     		mov	r3, r2
 1671 017a 5B00     		lsls	r3, r3, #1
 1672 017c 1344     		add	r3, r3, r2
 1673 017e 9B00     		lsls	r3, r3, #2
 1674 0180 0B44     		add	r3, r3, r1
 1675 0182 0833     		adds	r3, r3, #8
 1676 0184 1B88     		ldrh	r3, [r3]	@ movhi
 1677 0186 9BB2     		uxth	r3, r3
 1678 0188 1B0A     		lsrs	r3, r3, #8
 1679 018a 9BB2     		uxth	r3, r3
 1680 018c DBB2     		uxtb	r3, r3
 1681 018e 0370     		strb	r3, [r0]
 833:Generated_Source\PSoC5/USBFS_std.c ****                                                                 USBFS_EP[cur_ep].bufferSize >> 8u);
 834:Generated_Source\PSoC5/USBFS_std.c ****                 CY_SET_REG8((reg8 *)(USBFS_SIE_EP1_CNT1_IND + ri),
 1682              		.loc 1 834 0
 1683 0190 7A78     		ldrb	r2, [r7, #1]	@ zero_extendqisi2
 1684 0192 354B     		ldr	r3, .L111+28
 1685 0194 1344     		add	r3, r3, r2
 1686 0196 1846     		mov	r0, r3
 1687 0198 BA78     		ldrb	r2, [r7, #2]	@ zero_extendqisi2
 1688 019a 3049     		ldr	r1, .L111+16
 1689 019c 1346     		mov	r3, r2
 1690 019e 5B00     		lsls	r3, r3, #1
 1691 01a0 1344     		add	r3, r3, r2
 1692 01a2 9B00     		lsls	r3, r3, #2
 1693 01a4 0B44     		add	r3, r3, r1
 1694 01a6 0833     		adds	r3, r3, #8
 1695 01a8 1B88     		ldrh	r3, [r3]	@ movhi
 1696 01aa 9BB2     		uxth	r3, r3
 1697 01ac DBB2     		uxtb	r3, r3
 1698 01ae 0370     		strb	r3, [r0]
 835:Generated_Source\PSoC5/USBFS_std.c ****                                                                 USBFS_EP[cur_ep].bufferSize & 0xFFu
 836:Generated_Source\PSoC5/USBFS_std.c ****                 CY_SET_REG8((reg8 *)(USBFS_ARB_RW1_RA_IND + ri),
 1699              		.loc 1 836 0
 1700 01b0 7A78     		ldrb	r2, [r7, #1]	@ zero_extendqisi2
 1701 01b2 2E4B     		ldr	r3, .L111+32
 1702 01b4 1344     		add	r3, r3, r2
 1703 01b6 1846     		mov	r0, r3
 1704 01b8 BA78     		ldrb	r2, [r7, #2]	@ zero_extendqisi2
 1705 01ba 2849     		ldr	r1, .L111+16
 1706 01bc 1346     		mov	r3, r2
 1707 01be 5B00     		lsls	r3, r3, #1
 1708 01c0 1344     		add	r3, r3, r2
 1709 01c2 9B00     		lsls	r3, r3, #2
 1710 01c4 0B44     		add	r3, r3, r1
 1711 01c6 DB88     		ldrh	r3, [r3, #6]	@ movhi
 1712 01c8 9BB2     		uxth	r3, r3
ARM GAS  C:\Users\JOSANT~1\AppData\Local\Temp\cceoxjZy.s 			page 47


 1713 01ca DBB2     		uxtb	r3, r3
 1714 01cc 0370     		strb	r3, [r0]
 837:Generated_Source\PSoC5/USBFS_std.c ****                                                                 USBFS_EP[cur_ep].buffOffset & 0xFFu
 838:Generated_Source\PSoC5/USBFS_std.c ****                 CY_SET_REG8((reg8 *)(USBFS_ARB_RW1_RA_MSB_IND + ri),
 1715              		.loc 1 838 0
 1716 01ce 7A78     		ldrb	r2, [r7, #1]	@ zero_extendqisi2
 1717 01d0 274B     		ldr	r3, .L111+36
 1718 01d2 1344     		add	r3, r3, r2
 1719 01d4 1846     		mov	r0, r3
 1720 01d6 BA78     		ldrb	r2, [r7, #2]	@ zero_extendqisi2
 1721 01d8 2049     		ldr	r1, .L111+16
 1722 01da 1346     		mov	r3, r2
 1723 01dc 5B00     		lsls	r3, r3, #1
 1724 01de 1344     		add	r3, r3, r2
 1725 01e0 9B00     		lsls	r3, r3, #2
 1726 01e2 0B44     		add	r3, r3, r1
 1727 01e4 DB88     		ldrh	r3, [r3, #6]	@ movhi
 1728 01e6 9BB2     		uxth	r3, r3
 1729 01e8 1B0A     		lsrs	r3, r3, #8
 1730 01ea 9BB2     		uxth	r3, r3
 1731 01ec DBB2     		uxtb	r3, r3
 1732 01ee 0370     		strb	r3, [r0]
 839:Generated_Source\PSoC5/USBFS_std.c ****                                                                 USBFS_EP[cur_ep].buffOffset >> 8u);
 840:Generated_Source\PSoC5/USBFS_std.c ****                 CY_SET_REG8((reg8 *)(USBFS_ARB_RW1_WA_IND + ri),
 1733              		.loc 1 840 0
 1734 01f0 7A78     		ldrb	r2, [r7, #1]	@ zero_extendqisi2
 1735 01f2 204B     		ldr	r3, .L111+40
 1736 01f4 1344     		add	r3, r3, r2
 1737 01f6 1846     		mov	r0, r3
 1738 01f8 BA78     		ldrb	r2, [r7, #2]	@ zero_extendqisi2
 1739 01fa 1849     		ldr	r1, .L111+16
 1740 01fc 1346     		mov	r3, r2
 1741 01fe 5B00     		lsls	r3, r3, #1
 1742 0200 1344     		add	r3, r3, r2
 1743 0202 9B00     		lsls	r3, r3, #2
 1744 0204 0B44     		add	r3, r3, r1
 1745 0206 DB88     		ldrh	r3, [r3, #6]	@ movhi
 1746 0208 9BB2     		uxth	r3, r3
 1747 020a DBB2     		uxtb	r3, r3
 1748 020c 0370     		strb	r3, [r0]
 841:Generated_Source\PSoC5/USBFS_std.c ****                                                                 USBFS_EP[cur_ep].buffOffset & 0xFFu
 842:Generated_Source\PSoC5/USBFS_std.c ****                 CY_SET_REG8((reg8 *)(USBFS_ARB_RW1_WA_MSB_IND + ri),
 1749              		.loc 1 842 0
 1750 020e 7A78     		ldrb	r2, [r7, #1]	@ zero_extendqisi2
 1751 0210 194B     		ldr	r3, .L111+44
 1752 0212 1344     		add	r3, r3, r2
 1753 0214 1846     		mov	r0, r3
 1754 0216 BA78     		ldrb	r2, [r7, #2]	@ zero_extendqisi2
 1755 0218 1049     		ldr	r1, .L111+16
 1756 021a 1346     		mov	r3, r2
 1757 021c 5B00     		lsls	r3, r3, #1
 1758 021e 1344     		add	r3, r3, r2
 1759 0220 9B00     		lsls	r3, r3, #2
 1760 0222 0B44     		add	r3, r3, r1
 1761 0224 DB88     		ldrh	r3, [r3, #6]	@ movhi
 1762 0226 9BB2     		uxth	r3, r3
 1763 0228 1B0A     		lsrs	r3, r3, #8
ARM GAS  C:\Users\JOSANT~1\AppData\Local\Temp\cceoxjZy.s 			page 48


 1764 022a 9BB2     		uxth	r3, r3
 1765 022c DBB2     		uxtb	r3, r3
 1766 022e 0370     		strb	r3, [r0]
 1767              	.L103:
 843:Generated_Source\PSoC5/USBFS_std.c ****                                                                 USBFS_EP[cur_ep].buffOffset >> 8u);
 844:Generated_Source\PSoC5/USBFS_std.c ****             #endif /*  USBFS_EP_MM == USBFS__EP_DMAAUTO */
 845:Generated_Source\PSoC5/USBFS_std.c ****             }
 846:Generated_Source\PSoC5/USBFS_std.c ****             /* Get next EP element */
 847:Generated_Source\PSoC5/USBFS_std.c ****             pEP = &pEP[1u];
 1768              		.loc 1 847 0 discriminator 2
 1769 0230 BB68     		ldr	r3, [r7, #8]
 1770 0232 0833     		adds	r3, r3, #8
 1771 0234 BB60     		str	r3, [r7, #8]
 764:Generated_Source\PSoC5/USBFS_std.c ****         {
 1772              		.loc 1 764 0 discriminator 2
 1773 0236 FB7B     		ldrb	r3, [r7, #15]	@ zero_extendqisi2
 1774 0238 0133     		adds	r3, r3, #1
 1775 023a FB73     		strb	r3, [r7, #15]
 1776              	.L102:
 764:Generated_Source\PSoC5/USBFS_std.c ****         {
 1777              		.loc 1 764 0 is_stmt 0 discriminator 1
 1778 023c FA7B     		ldrb	r2, [r7, #15]	@ zero_extendqisi2
 1779 023e FB78     		ldrb	r3, [r7, #3]	@ zero_extendqisi2
 1780 0240 9A42     		cmp	r2, r3
 1781 0242 FFF4FBAE 		bcc	.L110
 1782              	.L100:
 848:Generated_Source\PSoC5/USBFS_std.c ****         }
 849:Generated_Source\PSoC5/USBFS_std.c ****     }   /* USBFS_configuration > 0 */
 850:Generated_Source\PSoC5/USBFS_std.c **** }
 1783              		.loc 1 850 0 is_stmt 1
 1784 0246 1037     		adds	r7, r7, #16
 1785              		.cfi_def_cfa_offset 8
 1786 0248 BD46     		mov	sp, r7
 1787              		.cfi_def_cfa_register 13
 1788              		@ sp needed
 1789 024a 80BD     		pop	{r7, pc}
 1790              	.L112:
 1791              		.align	2
 1792              	.L111:
 1793 024c 00000000 		.word	USBFS_configuration
 1794 0250 00000000 		.word	USBFS_interfaceSetting
 1795 0254 00000000 		.word	USBFS_interfaceSetting_last
 1796 0258 04600040 		.word	1073766404
 1797 025c 00000000 		.word	USBFS_EP
 1798 0260 0E600040 		.word	1073766414
 1799 0264 0C600040 		.word	1073766412
 1800 0268 0D600040 		.word	1073766413
 1801 026c 86600040 		.word	1073766534
 1802 0270 87600040 		.word	1073766535
 1803 0274 84600040 		.word	1073766532
 1804 0278 85600040 		.word	1073766533
 1805              		.cfi_endproc
 1806              	.LFE3:
 1807              		.size	USBFS_ConfigAltChanged, .-USBFS_ConfigAltChanged
 1808              		.section	.text.USBFS_GetConfigTablePtr,"ax",%progbits
 1809              		.align	2
 1810              		.global	USBFS_GetConfigTablePtr
ARM GAS  C:\Users\JOSANT~1\AppData\Local\Temp\cceoxjZy.s 			page 49


 1811              		.thumb
 1812              		.thumb_func
 1813              		.type	USBFS_GetConfigTablePtr, %function
 1814              	USBFS_GetConfigTablePtr:
 1815              	.LFB4:
 851:Generated_Source\PSoC5/USBFS_std.c **** 
 852:Generated_Source\PSoC5/USBFS_std.c **** 
 853:Generated_Source\PSoC5/USBFS_std.c **** /*******************************************************************************
 854:Generated_Source\PSoC5/USBFS_std.c **** * Function Name: USBFS_GetConfigTablePtr
 855:Generated_Source\PSoC5/USBFS_std.c **** ********************************************************************************
 856:Generated_Source\PSoC5/USBFS_std.c **** *
 857:Generated_Source\PSoC5/USBFS_std.c **** * Summary:
 858:Generated_Source\PSoC5/USBFS_std.c **** *  This routine returns a pointer a configuration table entry
 859:Generated_Source\PSoC5/USBFS_std.c **** *
 860:Generated_Source\PSoC5/USBFS_std.c **** * Parameters:
 861:Generated_Source\PSoC5/USBFS_std.c **** *  confIndex:  Configuration Index
 862:Generated_Source\PSoC5/USBFS_std.c **** *
 863:Generated_Source\PSoC5/USBFS_std.c **** * Return:
 864:Generated_Source\PSoC5/USBFS_std.c **** *  Device Descriptor pointer or NULL when descriptor isn't exists.
 865:Generated_Source\PSoC5/USBFS_std.c **** *
 866:Generated_Source\PSoC5/USBFS_std.c **** *******************************************************************************/
 867:Generated_Source\PSoC5/USBFS_std.c **** const T_USBFS_LUT CYCODE *USBFS_GetConfigTablePtr(uint8 confIndex)
 868:Generated_Source\PSoC5/USBFS_std.c ****                                                         
 869:Generated_Source\PSoC5/USBFS_std.c **** {
 1816              		.loc 1 869 0
 1817              		.cfi_startproc
 1818              		@ args = 0, pretend = 0, frame = 16
 1819              		@ frame_needed = 1, uses_anonymous_args = 0
 1820              		@ link register save eliminated.
 1821 0000 80B4     		push	{r7}
 1822              		.cfi_def_cfa_offset 4
 1823              		.cfi_offset 7, -4
 1824 0002 85B0     		sub	sp, sp, #20
 1825              		.cfi_def_cfa_offset 24
 1826 0004 00AF     		add	r7, sp, #0
 1827              		.cfi_def_cfa_register 7
 1828 0006 0346     		mov	r3, r0
 1829 0008 FB71     		strb	r3, [r7, #7]
 870:Generated_Source\PSoC5/USBFS_std.c ****     /* Device Table */
 871:Generated_Source\PSoC5/USBFS_std.c ****     const T_USBFS_LUT CYCODE *pTmp;
 872:Generated_Source\PSoC5/USBFS_std.c **** 
 873:Generated_Source\PSoC5/USBFS_std.c ****     pTmp = (const T_USBFS_LUT CYCODE *) USBFS_TABLE[USBFS_device].p_list;
 1830              		.loc 1 873 0
 1831 000a 104B     		ldr	r3, .L117
 1832 000c 1B78     		ldrb	r3, [r3]
 1833 000e DBB2     		uxtb	r3, r3
 1834 0010 0F4A     		ldr	r2, .L117+4
 1835 0012 DB00     		lsls	r3, r3, #3
 1836 0014 1344     		add	r3, r3, r2
 1837 0016 5B68     		ldr	r3, [r3, #4]
 1838 0018 FB60     		str	r3, [r7, #12]
 874:Generated_Source\PSoC5/USBFS_std.c **** 
 875:Generated_Source\PSoC5/USBFS_std.c ****     /* The first entry points to the Device Descriptor,
 876:Generated_Source\PSoC5/USBFS_std.c ****     *  the rest configuration entries.
 877:Generated_Source\PSoC5/USBFS_std.c ****     *  Set pointer to the first Configuration Descriptor
 878:Generated_Source\PSoC5/USBFS_std.c ****     */
 879:Generated_Source\PSoC5/USBFS_std.c ****     pTmp = &pTmp[1u];
ARM GAS  C:\Users\JOSANT~1\AppData\Local\Temp\cceoxjZy.s 			page 50


 1839              		.loc 1 879 0
 1840 001a FB68     		ldr	r3, [r7, #12]
 1841 001c 0833     		adds	r3, r3, #8
 1842 001e FB60     		str	r3, [r7, #12]
 880:Generated_Source\PSoC5/USBFS_std.c ****     /* For this table, c is the number of configuration descriptors  */
 881:Generated_Source\PSoC5/USBFS_std.c ****     if(confIndex >= pTmp->c)   /* Verify that required configuration descriptor exists */
 1843              		.loc 1 881 0
 1844 0020 FB68     		ldr	r3, [r7, #12]
 1845 0022 1B78     		ldrb	r3, [r3]	@ zero_extendqisi2
 1846 0024 FA79     		ldrb	r2, [r7, #7]	@ zero_extendqisi2
 1847 0026 9A42     		cmp	r2, r3
 1848 0028 02D3     		bcc	.L114
 882:Generated_Source\PSoC5/USBFS_std.c ****     {
 883:Generated_Source\PSoC5/USBFS_std.c ****         pTmp = (const T_USBFS_LUT CYCODE *) NULL;
 1849              		.loc 1 883 0
 1850 002a 0023     		movs	r3, #0
 1851 002c FB60     		str	r3, [r7, #12]
 1852 002e 05E0     		b	.L115
 1853              	.L114:
 884:Generated_Source\PSoC5/USBFS_std.c ****     }
 885:Generated_Source\PSoC5/USBFS_std.c ****     else
 886:Generated_Source\PSoC5/USBFS_std.c ****     {
 887:Generated_Source\PSoC5/USBFS_std.c ****         pTmp = (const T_USBFS_LUT CYCODE *) pTmp[confIndex].p_list;
 1854              		.loc 1 887 0
 1855 0030 FB79     		ldrb	r3, [r7, #7]	@ zero_extendqisi2
 1856 0032 DB00     		lsls	r3, r3, #3
 1857 0034 FA68     		ldr	r2, [r7, #12]
 1858 0036 1344     		add	r3, r3, r2
 1859 0038 5B68     		ldr	r3, [r3, #4]
 1860 003a FB60     		str	r3, [r7, #12]
 1861              	.L115:
 888:Generated_Source\PSoC5/USBFS_std.c ****     }
 889:Generated_Source\PSoC5/USBFS_std.c ****     
 890:Generated_Source\PSoC5/USBFS_std.c ****     return( pTmp );
 1862              		.loc 1 890 0
 1863 003c FB68     		ldr	r3, [r7, #12]
 891:Generated_Source\PSoC5/USBFS_std.c **** }
 1864              		.loc 1 891 0
 1865 003e 1846     		mov	r0, r3
 1866 0040 1437     		adds	r7, r7, #20
 1867              		.cfi_def_cfa_offset 4
 1868 0042 BD46     		mov	sp, r7
 1869              		.cfi_def_cfa_register 13
 1870              		@ sp needed
 1871 0044 5DF8047B 		ldr	r7, [sp], #4
 1872              		.cfi_restore 7
 1873              		.cfi_def_cfa_offset 0
 1874 0048 7047     		bx	lr
 1875              	.L118:
 1876 004a 00BF     		.align	2
 1877              	.L117:
 1878 004c 00000000 		.word	USBFS_device
 1879 0050 00000000 		.word	USBFS_TABLE
 1880              		.cfi_endproc
 1881              	.LFE4:
 1882              		.size	USBFS_GetConfigTablePtr, .-USBFS_GetConfigTablePtr
 1883              		.section	.text.USBFS_GetDeviceTablePtr,"ax",%progbits
ARM GAS  C:\Users\JOSANT~1\AppData\Local\Temp\cceoxjZy.s 			page 51


 1884              		.align	2
 1885              		.global	USBFS_GetDeviceTablePtr
 1886              		.thumb
 1887              		.thumb_func
 1888              		.type	USBFS_GetDeviceTablePtr, %function
 1889              	USBFS_GetDeviceTablePtr:
 1890              	.LFB5:
 892:Generated_Source\PSoC5/USBFS_std.c **** 
 893:Generated_Source\PSoC5/USBFS_std.c **** 
 894:Generated_Source\PSoC5/USBFS_std.c **** /*******************************************************************************
 895:Generated_Source\PSoC5/USBFS_std.c **** * Function Name: USBFS_GetDeviceTablePtr
 896:Generated_Source\PSoC5/USBFS_std.c **** ********************************************************************************
 897:Generated_Source\PSoC5/USBFS_std.c **** *
 898:Generated_Source\PSoC5/USBFS_std.c **** * Summary:
 899:Generated_Source\PSoC5/USBFS_std.c **** *  This routine returns a pointer to the Device table
 900:Generated_Source\PSoC5/USBFS_std.c **** *
 901:Generated_Source\PSoC5/USBFS_std.c **** * Parameters:
 902:Generated_Source\PSoC5/USBFS_std.c **** *  None.
 903:Generated_Source\PSoC5/USBFS_std.c **** *
 904:Generated_Source\PSoC5/USBFS_std.c **** * Return:
 905:Generated_Source\PSoC5/USBFS_std.c **** *  Device Table pointer
 906:Generated_Source\PSoC5/USBFS_std.c **** *
 907:Generated_Source\PSoC5/USBFS_std.c **** *******************************************************************************/
 908:Generated_Source\PSoC5/USBFS_std.c **** const T_USBFS_LUT CYCODE *USBFS_GetDeviceTablePtr(void)
 909:Generated_Source\PSoC5/USBFS_std.c ****                                                             
 910:Generated_Source\PSoC5/USBFS_std.c **** {
 1891              		.loc 1 910 0
 1892              		.cfi_startproc
 1893              		@ args = 0, pretend = 0, frame = 0
 1894              		@ frame_needed = 1, uses_anonymous_args = 0
 1895              		@ link register save eliminated.
 1896 0000 80B4     		push	{r7}
 1897              		.cfi_def_cfa_offset 4
 1898              		.cfi_offset 7, -4
 1899 0002 00AF     		add	r7, sp, #0
 1900              		.cfi_def_cfa_register 7
 911:Generated_Source\PSoC5/USBFS_std.c ****     /* Device Table */
 912:Generated_Source\PSoC5/USBFS_std.c ****     return( (const T_USBFS_LUT CYCODE *) USBFS_TABLE[USBFS_device].p_list );
 1901              		.loc 1 912 0
 1902 0004 054B     		ldr	r3, .L121
 1903 0006 1B78     		ldrb	r3, [r3]
 1904 0008 DBB2     		uxtb	r3, r3
 1905 000a 054A     		ldr	r2, .L121+4
 1906 000c DB00     		lsls	r3, r3, #3
 1907 000e 1344     		add	r3, r3, r2
 1908 0010 5B68     		ldr	r3, [r3, #4]
 913:Generated_Source\PSoC5/USBFS_std.c **** }
 1909              		.loc 1 913 0
 1910 0012 1846     		mov	r0, r3
 1911 0014 BD46     		mov	sp, r7
 1912              		.cfi_def_cfa_register 13
 1913              		@ sp needed
 1914 0016 5DF8047B 		ldr	r7, [sp], #4
 1915              		.cfi_restore 7
 1916              		.cfi_def_cfa_offset 0
 1917 001a 7047     		bx	lr
 1918              	.L122:
ARM GAS  C:\Users\JOSANT~1\AppData\Local\Temp\cceoxjZy.s 			page 52


 1919              		.align	2
 1920              	.L121:
 1921 001c 00000000 		.word	USBFS_device
 1922 0020 00000000 		.word	USBFS_TABLE
 1923              		.cfi_endproc
 1924              	.LFE5:
 1925              		.size	USBFS_GetDeviceTablePtr, .-USBFS_GetDeviceTablePtr
 1926              		.section	.text.USBFS_GetInterfaceClassTablePtr,"ax",%progbits
 1927              		.align	2
 1928              		.global	USBFS_GetInterfaceClassTablePtr
 1929              		.thumb
 1930              		.thumb_func
 1931              		.type	USBFS_GetInterfaceClassTablePtr, %function
 1932              	USBFS_GetInterfaceClassTablePtr:
 1933              	.LFB6:
 914:Generated_Source\PSoC5/USBFS_std.c **** 
 915:Generated_Source\PSoC5/USBFS_std.c **** 
 916:Generated_Source\PSoC5/USBFS_std.c **** /*******************************************************************************
 917:Generated_Source\PSoC5/USBFS_std.c **** * Function Name: USB_GetInterfaceClassTablePtr
 918:Generated_Source\PSoC5/USBFS_std.c **** ********************************************************************************
 919:Generated_Source\PSoC5/USBFS_std.c **** *
 920:Generated_Source\PSoC5/USBFS_std.c **** * Summary:
 921:Generated_Source\PSoC5/USBFS_std.c **** *  This routine returns Interface Class table pointer, which contains
 922:Generated_Source\PSoC5/USBFS_std.c **** *  the relation between interface number and interface class.
 923:Generated_Source\PSoC5/USBFS_std.c **** *
 924:Generated_Source\PSoC5/USBFS_std.c **** * Parameters:
 925:Generated_Source\PSoC5/USBFS_std.c **** *  None.
 926:Generated_Source\PSoC5/USBFS_std.c **** *
 927:Generated_Source\PSoC5/USBFS_std.c **** * Return:
 928:Generated_Source\PSoC5/USBFS_std.c **** *  Interface Class table pointer.
 929:Generated_Source\PSoC5/USBFS_std.c **** *
 930:Generated_Source\PSoC5/USBFS_std.c **** *******************************************************************************/
 931:Generated_Source\PSoC5/USBFS_std.c **** const uint8 CYCODE *USBFS_GetInterfaceClassTablePtr(void)
 932:Generated_Source\PSoC5/USBFS_std.c ****                                                         
 933:Generated_Source\PSoC5/USBFS_std.c **** {
 1934              		.loc 1 933 0
 1935              		.cfi_startproc
 1936              		@ args = 0, pretend = 0, frame = 16
 1937              		@ frame_needed = 1, uses_anonymous_args = 0
 1938 0000 80B5     		push	{r7, lr}
 1939              		.cfi_def_cfa_offset 8
 1940              		.cfi_offset 7, -8
 1941              		.cfi_offset 14, -4
 1942 0002 84B0     		sub	sp, sp, #16
 1943              		.cfi_def_cfa_offset 24
 1944 0004 00AF     		add	r7, sp, #0
 1945              		.cfi_def_cfa_register 7
 934:Generated_Source\PSoC5/USBFS_std.c ****     const T_USBFS_LUT CYCODE *pTmp;
 935:Generated_Source\PSoC5/USBFS_std.c ****     const uint8 CYCODE *pInterfaceClass;
 936:Generated_Source\PSoC5/USBFS_std.c ****     uint8 currentInterfacesNum;
 937:Generated_Source\PSoC5/USBFS_std.c **** 
 938:Generated_Source\PSoC5/USBFS_std.c ****     pTmp = USBFS_GetConfigTablePtr(USBFS_configuration - 1u);
 1946              		.loc 1 938 0
 1947 0006 104B     		ldr	r3, .L127
 1948 0008 1B78     		ldrb	r3, [r3]
 1949 000a DBB2     		uxtb	r3, r3
 1950 000c 013B     		subs	r3, r3, #1
ARM GAS  C:\Users\JOSANT~1\AppData\Local\Temp\cceoxjZy.s 			page 53


 1951 000e DBB2     		uxtb	r3, r3
 1952 0010 1846     		mov	r0, r3
 1953 0012 FFF7FEFF 		bl	USBFS_GetConfigTablePtr
 1954 0016 B860     		str	r0, [r7, #8]
 939:Generated_Source\PSoC5/USBFS_std.c ****     if( pTmp != NULL )
 1955              		.loc 1 939 0
 1956 0018 BB68     		ldr	r3, [r7, #8]
 1957 001a 002B     		cmp	r3, #0
 1958 001c 0DD0     		beq	.L124
 940:Generated_Source\PSoC5/USBFS_std.c ****     {
 941:Generated_Source\PSoC5/USBFS_std.c ****         currentInterfacesNum  = ((const uint8 *) pTmp->p_list)[USBFS_CONFIG_DESCR_NUM_INTERFACES];
 1959              		.loc 1 941 0
 1960 001e BB68     		ldr	r3, [r7, #8]
 1961 0020 5B68     		ldr	r3, [r3, #4]
 1962 0022 1B79     		ldrb	r3, [r3, #4]
 1963 0024 FB71     		strb	r3, [r7, #7]
 942:Generated_Source\PSoC5/USBFS_std.c ****         /* Third entry in the LUT starts the Interface Table pointers */
 943:Generated_Source\PSoC5/USBFS_std.c ****         /* The INTERFACE_CLASS table is located after all interfaces */
 944:Generated_Source\PSoC5/USBFS_std.c ****         pTmp = &pTmp[currentInterfacesNum + 2u];
 1964              		.loc 1 944 0
 1965 0026 FB79     		ldrb	r3, [r7, #7]	@ zero_extendqisi2
 1966 0028 0233     		adds	r3, r3, #2
 1967 002a DB00     		lsls	r3, r3, #3
 1968 002c BA68     		ldr	r2, [r7, #8]
 1969 002e 1344     		add	r3, r3, r2
 1970 0030 BB60     		str	r3, [r7, #8]
 945:Generated_Source\PSoC5/USBFS_std.c ****         pInterfaceClass = (const uint8 CYCODE *) pTmp->p_list;
 1971              		.loc 1 945 0
 1972 0032 BB68     		ldr	r3, [r7, #8]
 1973 0034 5B68     		ldr	r3, [r3, #4]
 1974 0036 FB60     		str	r3, [r7, #12]
 1975 0038 01E0     		b	.L125
 1976              	.L124:
 946:Generated_Source\PSoC5/USBFS_std.c ****     }
 947:Generated_Source\PSoC5/USBFS_std.c ****     else
 948:Generated_Source\PSoC5/USBFS_std.c ****     {
 949:Generated_Source\PSoC5/USBFS_std.c ****         pInterfaceClass = (const uint8 CYCODE *) NULL;
 1977              		.loc 1 949 0
 1978 003a 0023     		movs	r3, #0
 1979 003c FB60     		str	r3, [r7, #12]
 1980              	.L125:
 950:Generated_Source\PSoC5/USBFS_std.c ****     }
 951:Generated_Source\PSoC5/USBFS_std.c ****     
 952:Generated_Source\PSoC5/USBFS_std.c ****     return( pInterfaceClass );
 1981              		.loc 1 952 0
 1982 003e FB68     		ldr	r3, [r7, #12]
 953:Generated_Source\PSoC5/USBFS_std.c **** }
 1983              		.loc 1 953 0
 1984 0040 1846     		mov	r0, r3
 1985 0042 1037     		adds	r7, r7, #16
 1986              		.cfi_def_cfa_offset 8
 1987 0044 BD46     		mov	sp, r7
 1988              		.cfi_def_cfa_register 13
 1989              		@ sp needed
 1990 0046 80BD     		pop	{r7, pc}
 1991              	.L128:
 1992              		.align	2
ARM GAS  C:\Users\JOSANT~1\AppData\Local\Temp\cceoxjZy.s 			page 54


 1993              	.L127:
 1994 0048 00000000 		.word	USBFS_configuration
 1995              		.cfi_endproc
 1996              	.LFE6:
 1997              		.size	USBFS_GetInterfaceClassTablePtr, .-USBFS_GetInterfaceClassTablePtr
 1998              		.section	.text.USBFS_TerminateEP,"ax",%progbits
 1999              		.align	2
 2000              		.global	USBFS_TerminateEP
 2001              		.thumb
 2002              		.thumb_func
 2003              		.type	USBFS_TerminateEP, %function
 2004              	USBFS_TerminateEP:
 2005              	.LFB7:
 954:Generated_Source\PSoC5/USBFS_std.c **** 
 955:Generated_Source\PSoC5/USBFS_std.c **** 
 956:Generated_Source\PSoC5/USBFS_std.c **** /*******************************************************************************
 957:Generated_Source\PSoC5/USBFS_std.c **** * Function Name: USBFS_TerminateEP
 958:Generated_Source\PSoC5/USBFS_std.c **** ********************************************************************************
 959:Generated_Source\PSoC5/USBFS_std.c **** *
 960:Generated_Source\PSoC5/USBFS_std.c **** * Summary:
 961:Generated_Source\PSoC5/USBFS_std.c **** *  This function terminates the specified USBFS endpoint.
 962:Generated_Source\PSoC5/USBFS_std.c **** *  This function should be used before endpoint reconfiguration.
 963:Generated_Source\PSoC5/USBFS_std.c **** *
 964:Generated_Source\PSoC5/USBFS_std.c **** * Parameters:
 965:Generated_Source\PSoC5/USBFS_std.c **** *  Endpoint number.
 966:Generated_Source\PSoC5/USBFS_std.c **** *
 967:Generated_Source\PSoC5/USBFS_std.c **** * Return:
 968:Generated_Source\PSoC5/USBFS_std.c **** *  None.
 969:Generated_Source\PSoC5/USBFS_std.c **** *
 970:Generated_Source\PSoC5/USBFS_std.c **** * Reentrant:
 971:Generated_Source\PSoC5/USBFS_std.c **** *  No.
 972:Generated_Source\PSoC5/USBFS_std.c **** *
 973:Generated_Source\PSoC5/USBFS_std.c **** *******************************************************************************/
 974:Generated_Source\PSoC5/USBFS_std.c **** void USBFS_TerminateEP(uint8 ep) 
 975:Generated_Source\PSoC5/USBFS_std.c **** {
 2006              		.loc 1 975 0
 2007              		.cfi_startproc
 2008              		@ args = 0, pretend = 0, frame = 16
 2009              		@ frame_needed = 1, uses_anonymous_args = 0
 2010              		@ link register save eliminated.
 2011 0000 80B4     		push	{r7}
 2012              		.cfi_def_cfa_offset 4
 2013              		.cfi_offset 7, -4
 2014 0002 85B0     		sub	sp, sp, #20
 2015              		.cfi_def_cfa_offset 24
 2016 0004 00AF     		add	r7, sp, #0
 2017              		.cfi_def_cfa_register 7
 2018 0006 0346     		mov	r3, r0
 2019 0008 FB71     		strb	r3, [r7, #7]
 976:Generated_Source\PSoC5/USBFS_std.c ****     uint8 ri;
 977:Generated_Source\PSoC5/USBFS_std.c **** 
 978:Generated_Source\PSoC5/USBFS_std.c ****     ep &= USBFS_DIR_UNUSED;
 2020              		.loc 1 978 0
 2021 000a FB79     		ldrb	r3, [r7, #7]
 2022 000c 03F07F03 		and	r3, r3, #127
 2023 0010 FB71     		strb	r3, [r7, #7]
 979:Generated_Source\PSoC5/USBFS_std.c ****     ri = ((ep - USBFS_EP1) << USBFS_EPX_CNTX_ADDR_SHIFT);
ARM GAS  C:\Users\JOSANT~1\AppData\Local\Temp\cceoxjZy.s 			page 55


 2024              		.loc 1 979 0
 2025 0012 FB79     		ldrb	r3, [r7, #7]
 2026 0014 013B     		subs	r3, r3, #1
 2027 0016 DBB2     		uxtb	r3, r3
 2028 0018 1B01     		lsls	r3, r3, #4
 2029 001a FB73     		strb	r3, [r7, #15]
 980:Generated_Source\PSoC5/USBFS_std.c **** 
 981:Generated_Source\PSoC5/USBFS_std.c ****     if ((ep > USBFS_EP0) && (ep < USBFS_MAX_EP))
 2030              		.loc 1 981 0
 2031 001c FB79     		ldrb	r3, [r7, #7]	@ zero_extendqisi2
 2032 001e 002B     		cmp	r3, #0
 2033 0020 41D0     		beq	.L129
 2034              		.loc 1 981 0 is_stmt 0 discriminator 1
 2035 0022 FB79     		ldrb	r3, [r7, #7]	@ zero_extendqisi2
 2036 0024 082B     		cmp	r3, #8
 2037 0026 3ED8     		bhi	.L129
 982:Generated_Source\PSoC5/USBFS_std.c ****     {
 983:Generated_Source\PSoC5/USBFS_std.c ****         /* Set the endpoint Halt */
 984:Generated_Source\PSoC5/USBFS_std.c ****         USBFS_EP[ep].hwEpState |= (USBFS_ENDPOINT_STATUS_HALT);
 2038              		.loc 1 984 0 is_stmt 1
 2039 0028 FA79     		ldrb	r2, [r7, #7]	@ zero_extendqisi2
 2040 002a F979     		ldrb	r1, [r7, #7]	@ zero_extendqisi2
 2041 002c 2048     		ldr	r0, .L132
 2042 002e 0B46     		mov	r3, r1
 2043 0030 5B00     		lsls	r3, r3, #1
 2044 0032 0B44     		add	r3, r3, r1
 2045 0034 9B00     		lsls	r3, r3, #2
 2046 0036 0344     		add	r3, r3, r0
 2047 0038 9B78     		ldrb	r3, [r3, #2]
 2048 003a DBB2     		uxtb	r3, r3
 2049 003c 43F00103 		orr	r3, r3, #1
 2050 0040 D8B2     		uxtb	r0, r3
 2051 0042 1B49     		ldr	r1, .L132
 2052 0044 1346     		mov	r3, r2
 2053 0046 5B00     		lsls	r3, r3, #1
 2054 0048 1344     		add	r3, r3, r2
 2055 004a 9B00     		lsls	r3, r3, #2
 2056 004c 0B44     		add	r3, r3, r1
 2057 004e 0246     		mov	r2, r0
 2058 0050 9A70     		strb	r2, [r3, #2]
 985:Generated_Source\PSoC5/USBFS_std.c **** 
 986:Generated_Source\PSoC5/USBFS_std.c ****         /* Clear the data toggle */
 987:Generated_Source\PSoC5/USBFS_std.c ****         USBFS_EP[ep].epToggle = 0u;
 2059              		.loc 1 987 0
 2060 0052 FA79     		ldrb	r2, [r7, #7]	@ zero_extendqisi2
 2061 0054 1649     		ldr	r1, .L132
 2062 0056 1346     		mov	r3, r2
 2063 0058 5B00     		lsls	r3, r3, #1
 2064 005a 1344     		add	r3, r3, r2
 2065 005c 9B00     		lsls	r3, r3, #2
 2066 005e 0B44     		add	r3, r3, r1
 2067 0060 0022     		movs	r2, #0
 2068 0062 DA70     		strb	r2, [r3, #3]
 988:Generated_Source\PSoC5/USBFS_std.c ****         USBFS_EP[ep].apiEpState = USBFS_NO_EVENT_ALLOWED;
 2069              		.loc 1 988 0
 2070 0064 FA79     		ldrb	r2, [r7, #7]	@ zero_extendqisi2
 2071 0066 1249     		ldr	r1, .L132
ARM GAS  C:\Users\JOSANT~1\AppData\Local\Temp\cceoxjZy.s 			page 56


 2072 0068 1346     		mov	r3, r2
 2073 006a 5B00     		lsls	r3, r3, #1
 2074 006c 1344     		add	r3, r3, r2
 2075 006e 9B00     		lsls	r3, r3, #2
 2076 0070 0B44     		add	r3, r3, r1
 2077 0072 0222     		movs	r2, #2
 2078 0074 5A70     		strb	r2, [r3, #1]
 989:Generated_Source\PSoC5/USBFS_std.c **** 
 990:Generated_Source\PSoC5/USBFS_std.c ****         if ((USBFS_EP[ep].addr & USBFS_DIR_IN) != 0u)
 2079              		.loc 1 990 0
 2080 0076 FA79     		ldrb	r2, [r7, #7]	@ zero_extendqisi2
 2081 0078 0D49     		ldr	r1, .L132
 2082 007a 1346     		mov	r3, r2
 2083 007c 5B00     		lsls	r3, r3, #1
 2084 007e 1344     		add	r3, r3, r2
 2085 0080 9B00     		lsls	r3, r3, #2
 2086 0082 0B44     		add	r3, r3, r1
 2087 0084 1B79     		ldrb	r3, [r3, #4]
 2088 0086 DBB2     		uxtb	r3, r3
 2089 0088 DBB2     		uxtb	r3, r3
 2090 008a 5BB2     		sxtb	r3, r3
 2091 008c 002B     		cmp	r3, #0
 2092 008e 05DA     		bge	.L131
 991:Generated_Source\PSoC5/USBFS_std.c ****         {
 992:Generated_Source\PSoC5/USBFS_std.c ****             /* IN Endpoint */
 993:Generated_Source\PSoC5/USBFS_std.c ****             CY_SET_REG8((reg8 *)(USBFS_SIE_EP1_CR0_IND + ri), USBFS_MODE_NAK_IN);
 2093              		.loc 1 993 0
 2094 0090 FA7B     		ldrb	r2, [r7, #15]	@ zero_extendqisi2
 2095 0092 084B     		ldr	r3, .L132+4
 2096 0094 1344     		add	r3, r3, r2
 2097 0096 0C22     		movs	r2, #12
 2098 0098 1A70     		strb	r2, [r3]
 2099 009a 04E0     		b	.L129
 2100              	.L131:
 994:Generated_Source\PSoC5/USBFS_std.c ****         }
 995:Generated_Source\PSoC5/USBFS_std.c ****         else
 996:Generated_Source\PSoC5/USBFS_std.c ****         {
 997:Generated_Source\PSoC5/USBFS_std.c ****             /* OUT Endpoint */
 998:Generated_Source\PSoC5/USBFS_std.c ****             CY_SET_REG8((reg8 *)(USBFS_SIE_EP1_CR0_IND + ri), USBFS_MODE_NAK_OUT);
 2101              		.loc 1 998 0
 2102 009c FA7B     		ldrb	r2, [r7, #15]	@ zero_extendqisi2
 2103 009e 054B     		ldr	r3, .L132+4
 2104 00a0 1344     		add	r3, r3, r2
 2105 00a2 0822     		movs	r2, #8
 2106 00a4 1A70     		strb	r2, [r3]
 2107              	.L129:
 999:Generated_Source\PSoC5/USBFS_std.c ****         }
1000:Generated_Source\PSoC5/USBFS_std.c ****     }
1001:Generated_Source\PSoC5/USBFS_std.c **** }
 2108              		.loc 1 1001 0
 2109 00a6 1437     		adds	r7, r7, #20
 2110              		.cfi_def_cfa_offset 4
 2111 00a8 BD46     		mov	sp, r7
 2112              		.cfi_def_cfa_register 13
 2113              		@ sp needed
 2114 00aa 5DF8047B 		ldr	r7, [sp], #4
 2115              		.cfi_restore 7
ARM GAS  C:\Users\JOSANT~1\AppData\Local\Temp\cceoxjZy.s 			page 57


 2116              		.cfi_def_cfa_offset 0
 2117 00ae 7047     		bx	lr
 2118              	.L133:
 2119              		.align	2
 2120              	.L132:
 2121 00b0 00000000 		.word	USBFS_EP
 2122 00b4 0E600040 		.word	1073766414
 2123              		.cfi_endproc
 2124              	.LFE7:
 2125              		.size	USBFS_TerminateEP, .-USBFS_TerminateEP
 2126              		.section	.text.USBFS_SetEndpointHalt,"ax",%progbits
 2127              		.align	2
 2128              		.global	USBFS_SetEndpointHalt
 2129              		.thumb
 2130              		.thumb_func
 2131              		.type	USBFS_SetEndpointHalt, %function
 2132              	USBFS_SetEndpointHalt:
 2133              	.LFB8:
1002:Generated_Source\PSoC5/USBFS_std.c **** 
1003:Generated_Source\PSoC5/USBFS_std.c **** 
1004:Generated_Source\PSoC5/USBFS_std.c **** /*******************************************************************************
1005:Generated_Source\PSoC5/USBFS_std.c **** * Function Name: USBFS_SetEndpointHalt
1006:Generated_Source\PSoC5/USBFS_std.c **** ********************************************************************************
1007:Generated_Source\PSoC5/USBFS_std.c **** *
1008:Generated_Source\PSoC5/USBFS_std.c **** * Summary:
1009:Generated_Source\PSoC5/USBFS_std.c **** *  This routine handles set endpoint halt.
1010:Generated_Source\PSoC5/USBFS_std.c **** *
1011:Generated_Source\PSoC5/USBFS_std.c **** * Parameters:
1012:Generated_Source\PSoC5/USBFS_std.c **** *  None.
1013:Generated_Source\PSoC5/USBFS_std.c **** *
1014:Generated_Source\PSoC5/USBFS_std.c **** * Return:
1015:Generated_Source\PSoC5/USBFS_std.c **** *  requestHandled.
1016:Generated_Source\PSoC5/USBFS_std.c **** *
1017:Generated_Source\PSoC5/USBFS_std.c **** * Reentrant:
1018:Generated_Source\PSoC5/USBFS_std.c **** *  No.
1019:Generated_Source\PSoC5/USBFS_std.c **** *
1020:Generated_Source\PSoC5/USBFS_std.c **** *******************************************************************************/
1021:Generated_Source\PSoC5/USBFS_std.c **** uint8 USBFS_SetEndpointHalt(void) 
1022:Generated_Source\PSoC5/USBFS_std.c **** {
 2134              		.loc 1 1022 0
 2135              		.cfi_startproc
 2136              		@ args = 0, pretend = 0, frame = 8
 2137              		@ frame_needed = 1, uses_anonymous_args = 0
 2138 0000 80B5     		push	{r7, lr}
 2139              		.cfi_def_cfa_offset 8
 2140              		.cfi_offset 7, -8
 2141              		.cfi_offset 14, -4
 2142 0002 82B0     		sub	sp, sp, #8
 2143              		.cfi_def_cfa_offset 16
 2144 0004 00AF     		add	r7, sp, #0
 2145              		.cfi_def_cfa_register 7
1023:Generated_Source\PSoC5/USBFS_std.c ****     uint8 ep;
1024:Generated_Source\PSoC5/USBFS_std.c ****     uint8 ri;
1025:Generated_Source\PSoC5/USBFS_std.c ****     uint8 requestHandled = USBFS_FALSE;
 2146              		.loc 1 1025 0
 2147 0006 0023     		movs	r3, #0
 2148 0008 FB71     		strb	r3, [r7, #7]
ARM GAS  C:\Users\JOSANT~1\AppData\Local\Temp\cceoxjZy.s 			page 58


1026:Generated_Source\PSoC5/USBFS_std.c **** 
1027:Generated_Source\PSoC5/USBFS_std.c ****     /* Set endpoint halt */
1028:Generated_Source\PSoC5/USBFS_std.c ****     ep = CY_GET_REG8(USBFS_wIndexLo) & USBFS_DIR_UNUSED;
 2149              		.loc 1 1028 0
 2150 000a 324B     		ldr	r3, .L139
 2151 000c 1B78     		ldrb	r3, [r3]
 2152 000e DBB2     		uxtb	r3, r3
 2153 0010 03F07F03 		and	r3, r3, #127
 2154 0014 BB71     		strb	r3, [r7, #6]
1029:Generated_Source\PSoC5/USBFS_std.c ****     ri = ((ep - USBFS_EP1) << USBFS_EPX_CNTX_ADDR_SHIFT);
 2155              		.loc 1 1029 0
 2156 0016 BB79     		ldrb	r3, [r7, #6]
 2157 0018 013B     		subs	r3, r3, #1
 2158 001a DBB2     		uxtb	r3, r3
 2159 001c 1B01     		lsls	r3, r3, #4
 2160 001e 7B71     		strb	r3, [r7, #5]
1030:Generated_Source\PSoC5/USBFS_std.c **** 
1031:Generated_Source\PSoC5/USBFS_std.c ****     if ((ep > USBFS_EP0) && (ep < USBFS_MAX_EP))
 2161              		.loc 1 1031 0
 2162 0020 BB79     		ldrb	r3, [r7, #6]	@ zero_extendqisi2
 2163 0022 002B     		cmp	r3, #0
 2164 0024 51D0     		beq	.L135
 2165              		.loc 1 1031 0 is_stmt 0 discriminator 1
 2166 0026 BB79     		ldrb	r3, [r7, #6]	@ zero_extendqisi2
 2167 0028 082B     		cmp	r3, #8
 2168 002a 4ED8     		bhi	.L135
1032:Generated_Source\PSoC5/USBFS_std.c ****     {
1033:Generated_Source\PSoC5/USBFS_std.c ****         /* Set the endpoint Halt */
1034:Generated_Source\PSoC5/USBFS_std.c ****         USBFS_EP[ep].hwEpState |= (USBFS_ENDPOINT_STATUS_HALT);
 2169              		.loc 1 1034 0 is_stmt 1
 2170 002c BA79     		ldrb	r2, [r7, #6]	@ zero_extendqisi2
 2171 002e B979     		ldrb	r1, [r7, #6]	@ zero_extendqisi2
 2172 0030 2948     		ldr	r0, .L139+4
 2173 0032 0B46     		mov	r3, r1
 2174 0034 5B00     		lsls	r3, r3, #1
 2175 0036 0B44     		add	r3, r3, r1
 2176 0038 9B00     		lsls	r3, r3, #2
 2177 003a 0344     		add	r3, r3, r0
 2178 003c 9B78     		ldrb	r3, [r3, #2]
 2179 003e DBB2     		uxtb	r3, r3
 2180 0040 43F00103 		orr	r3, r3, #1
 2181 0044 D8B2     		uxtb	r0, r3
 2182 0046 2449     		ldr	r1, .L139+4
 2183 0048 1346     		mov	r3, r2
 2184 004a 5B00     		lsls	r3, r3, #1
 2185 004c 1344     		add	r3, r3, r2
 2186 004e 9B00     		lsls	r3, r3, #2
 2187 0050 0B44     		add	r3, r3, r1
 2188 0052 0246     		mov	r2, r0
 2189 0054 9A70     		strb	r2, [r3, #2]
1035:Generated_Source\PSoC5/USBFS_std.c **** 
1036:Generated_Source\PSoC5/USBFS_std.c ****         /* Clear the data toggle */
1037:Generated_Source\PSoC5/USBFS_std.c ****         USBFS_EP[ep].epToggle = 0u;
 2190              		.loc 1 1037 0
 2191 0056 BA79     		ldrb	r2, [r7, #6]	@ zero_extendqisi2
 2192 0058 1F49     		ldr	r1, .L139+4
 2193 005a 1346     		mov	r3, r2
ARM GAS  C:\Users\JOSANT~1\AppData\Local\Temp\cceoxjZy.s 			page 59


 2194 005c 5B00     		lsls	r3, r3, #1
 2195 005e 1344     		add	r3, r3, r2
 2196 0060 9B00     		lsls	r3, r3, #2
 2197 0062 0B44     		add	r3, r3, r1
 2198 0064 0022     		movs	r2, #0
 2199 0066 DA70     		strb	r2, [r3, #3]
1038:Generated_Source\PSoC5/USBFS_std.c ****         USBFS_EP[ep].apiEpState |= USBFS_NO_EVENT_ALLOWED;
 2200              		.loc 1 1038 0
 2201 0068 BA79     		ldrb	r2, [r7, #6]	@ zero_extendqisi2
 2202 006a B979     		ldrb	r1, [r7, #6]	@ zero_extendqisi2
 2203 006c 1A48     		ldr	r0, .L139+4
 2204 006e 0B46     		mov	r3, r1
 2205 0070 5B00     		lsls	r3, r3, #1
 2206 0072 0B44     		add	r3, r3, r1
 2207 0074 9B00     		lsls	r3, r3, #2
 2208 0076 0344     		add	r3, r3, r0
 2209 0078 5B78     		ldrb	r3, [r3, #1]
 2210 007a DBB2     		uxtb	r3, r3
 2211 007c 43F00203 		orr	r3, r3, #2
 2212 0080 D8B2     		uxtb	r0, r3
 2213 0082 1549     		ldr	r1, .L139+4
 2214 0084 1346     		mov	r3, r2
 2215 0086 5B00     		lsls	r3, r3, #1
 2216 0088 1344     		add	r3, r3, r2
 2217 008a 9B00     		lsls	r3, r3, #2
 2218 008c 0B44     		add	r3, r3, r1
 2219 008e 0246     		mov	r2, r0
 2220 0090 5A70     		strb	r2, [r3, #1]
1039:Generated_Source\PSoC5/USBFS_std.c **** 
1040:Generated_Source\PSoC5/USBFS_std.c ****         if ((USBFS_EP[ep].addr & USBFS_DIR_IN) != 0u)
 2221              		.loc 1 1040 0
 2222 0092 BA79     		ldrb	r2, [r7, #6]	@ zero_extendqisi2
 2223 0094 1049     		ldr	r1, .L139+4
 2224 0096 1346     		mov	r3, r2
 2225 0098 5B00     		lsls	r3, r3, #1
 2226 009a 1344     		add	r3, r3, r2
 2227 009c 9B00     		lsls	r3, r3, #2
 2228 009e 0B44     		add	r3, r3, r1
 2229 00a0 1B79     		ldrb	r3, [r3, #4]
 2230 00a2 DBB2     		uxtb	r3, r3
 2231 00a4 DBB2     		uxtb	r3, r3
 2232 00a6 5BB2     		sxtb	r3, r3
 2233 00a8 002B     		cmp	r3, #0
 2234 00aa 05DA     		bge	.L136
1041:Generated_Source\PSoC5/USBFS_std.c ****         {
1042:Generated_Source\PSoC5/USBFS_std.c ****             /* IN Endpoint */
1043:Generated_Source\PSoC5/USBFS_std.c ****             CY_SET_REG8((reg8 *)(USBFS_SIE_EP1_CR0_IND + ri), USBFS_MODE_STALL_DATA_EP |
 2235              		.loc 1 1043 0
 2236 00ac 7A79     		ldrb	r2, [r7, #5]	@ zero_extendqisi2
 2237 00ae 0B4B     		ldr	r3, .L139+8
 2238 00b0 1344     		add	r3, r3, r2
 2239 00b2 8D22     		movs	r2, #141
 2240 00b4 1A70     		strb	r2, [r3]
 2241 00b6 04E0     		b	.L137
 2242              	.L136:
1044:Generated_Source\PSoC5/USBFS_std.c ****                                                                USBFS_MODE_ACK_IN);
1045:Generated_Source\PSoC5/USBFS_std.c ****         }
ARM GAS  C:\Users\JOSANT~1\AppData\Local\Temp\cceoxjZy.s 			page 60


1046:Generated_Source\PSoC5/USBFS_std.c ****         else
1047:Generated_Source\PSoC5/USBFS_std.c ****         {
1048:Generated_Source\PSoC5/USBFS_std.c ****             /* OUT Endpoint */
1049:Generated_Source\PSoC5/USBFS_std.c ****             CY_SET_REG8((reg8 *)(USBFS_SIE_EP1_CR0_IND + ri), USBFS_MODE_STALL_DATA_EP |
 2243              		.loc 1 1049 0
 2244 00b8 7A79     		ldrb	r2, [r7, #5]	@ zero_extendqisi2
 2245 00ba 084B     		ldr	r3, .L139+8
 2246 00bc 1344     		add	r3, r3, r2
 2247 00be 8922     		movs	r2, #137
 2248 00c0 1A70     		strb	r2, [r3]
 2249              	.L137:
1050:Generated_Source\PSoC5/USBFS_std.c ****                                                                USBFS_MODE_ACK_OUT);
1051:Generated_Source\PSoC5/USBFS_std.c ****         }
1052:Generated_Source\PSoC5/USBFS_std.c ****         requestHandled = USBFS_InitNoDataControlTransfer();
 2250              		.loc 1 1052 0
 2251 00c2 FFF7FEFF 		bl	USBFS_InitNoDataControlTransfer
 2252 00c6 0346     		mov	r3, r0
 2253 00c8 FB71     		strb	r3, [r7, #7]
 2254              	.L135:
1053:Generated_Source\PSoC5/USBFS_std.c ****     }
1054:Generated_Source\PSoC5/USBFS_std.c **** 
1055:Generated_Source\PSoC5/USBFS_std.c ****     return(requestHandled);
 2255              		.loc 1 1055 0
 2256 00ca FB79     		ldrb	r3, [r7, #7]	@ zero_extendqisi2
1056:Generated_Source\PSoC5/USBFS_std.c **** }
 2257              		.loc 1 1056 0
 2258 00cc 1846     		mov	r0, r3
 2259 00ce 0837     		adds	r7, r7, #8
 2260              		.cfi_def_cfa_offset 8
 2261 00d0 BD46     		mov	sp, r7
 2262              		.cfi_def_cfa_register 13
 2263              		@ sp needed
 2264 00d2 80BD     		pop	{r7, pc}
 2265              	.L140:
 2266              		.align	2
 2267              	.L139:
 2268 00d4 04600040 		.word	1073766404
 2269 00d8 00000000 		.word	USBFS_EP
 2270 00dc 0E600040 		.word	1073766414
 2271              		.cfi_endproc
 2272              	.LFE8:
 2273              		.size	USBFS_SetEndpointHalt, .-USBFS_SetEndpointHalt
 2274              		.section	.text.USBFS_ClearEndpointHalt,"ax",%progbits
 2275              		.align	2
 2276              		.global	USBFS_ClearEndpointHalt
 2277              		.thumb
 2278              		.thumb_func
 2279              		.type	USBFS_ClearEndpointHalt, %function
 2280              	USBFS_ClearEndpointHalt:
 2281              	.LFB9:
1057:Generated_Source\PSoC5/USBFS_std.c **** 
1058:Generated_Source\PSoC5/USBFS_std.c **** 
1059:Generated_Source\PSoC5/USBFS_std.c **** /*******************************************************************************
1060:Generated_Source\PSoC5/USBFS_std.c **** * Function Name: USBFS_ClearEndpointHalt
1061:Generated_Source\PSoC5/USBFS_std.c **** ********************************************************************************
1062:Generated_Source\PSoC5/USBFS_std.c **** *
1063:Generated_Source\PSoC5/USBFS_std.c **** * Summary:
ARM GAS  C:\Users\JOSANT~1\AppData\Local\Temp\cceoxjZy.s 			page 61


1064:Generated_Source\PSoC5/USBFS_std.c **** *  This routine handles clear endpoint halt.
1065:Generated_Source\PSoC5/USBFS_std.c **** *
1066:Generated_Source\PSoC5/USBFS_std.c **** * Parameters:
1067:Generated_Source\PSoC5/USBFS_std.c **** *  None.
1068:Generated_Source\PSoC5/USBFS_std.c **** *
1069:Generated_Source\PSoC5/USBFS_std.c **** * Return:
1070:Generated_Source\PSoC5/USBFS_std.c **** *  requestHandled.
1071:Generated_Source\PSoC5/USBFS_std.c **** *
1072:Generated_Source\PSoC5/USBFS_std.c **** * Reentrant:
1073:Generated_Source\PSoC5/USBFS_std.c **** *  No.
1074:Generated_Source\PSoC5/USBFS_std.c **** *
1075:Generated_Source\PSoC5/USBFS_std.c **** *******************************************************************************/
1076:Generated_Source\PSoC5/USBFS_std.c **** uint8 USBFS_ClearEndpointHalt(void) 
1077:Generated_Source\PSoC5/USBFS_std.c **** {
 2282              		.loc 1 1077 0
 2283              		.cfi_startproc
 2284              		@ args = 0, pretend = 0, frame = 8
 2285              		@ frame_needed = 1, uses_anonymous_args = 0
 2286 0000 80B5     		push	{r7, lr}
 2287              		.cfi_def_cfa_offset 8
 2288              		.cfi_offset 7, -8
 2289              		.cfi_offset 14, -4
 2290 0002 82B0     		sub	sp, sp, #8
 2291              		.cfi_def_cfa_offset 16
 2292 0004 00AF     		add	r7, sp, #0
 2293              		.cfi_def_cfa_register 7
1078:Generated_Source\PSoC5/USBFS_std.c ****     uint8 ep;
1079:Generated_Source\PSoC5/USBFS_std.c ****     uint8 ri;
1080:Generated_Source\PSoC5/USBFS_std.c ****     uint8 requestHandled = USBFS_FALSE;
 2294              		.loc 1 1080 0
 2295 0006 0023     		movs	r3, #0
 2296 0008 FB71     		strb	r3, [r7, #7]
1081:Generated_Source\PSoC5/USBFS_std.c **** 
1082:Generated_Source\PSoC5/USBFS_std.c ****     /* Clear endpoint halt */
1083:Generated_Source\PSoC5/USBFS_std.c ****     ep = CY_GET_REG8(USBFS_wIndexLo) & USBFS_DIR_UNUSED;
 2297              		.loc 1 1083 0
 2298 000a 4A4B     		ldr	r3, .L149
 2299 000c 1B78     		ldrb	r3, [r3]
 2300 000e DBB2     		uxtb	r3, r3
 2301 0010 03F07F03 		and	r3, r3, #127
 2302 0014 BB71     		strb	r3, [r7, #6]
1084:Generated_Source\PSoC5/USBFS_std.c ****     ri = ((ep - USBFS_EP1) << USBFS_EPX_CNTX_ADDR_SHIFT);
 2303              		.loc 1 1084 0
 2304 0016 BB79     		ldrb	r3, [r7, #6]
 2305 0018 013B     		subs	r3, r3, #1
 2306 001a DBB2     		uxtb	r3, r3
 2307 001c 1B01     		lsls	r3, r3, #4
 2308 001e 7B71     		strb	r3, [r7, #5]
1085:Generated_Source\PSoC5/USBFS_std.c **** 
1086:Generated_Source\PSoC5/USBFS_std.c ****     if ((ep > USBFS_EP0) && (ep < USBFS_MAX_EP))
 2309              		.loc 1 1086 0
 2310 0020 BB79     		ldrb	r3, [r7, #6]	@ zero_extendqisi2
 2311 0022 002B     		cmp	r3, #0
 2312 0024 00F08180 		beq	.L142
 2313              		.loc 1 1086 0 is_stmt 0 discriminator 1
 2314 0028 BB79     		ldrb	r3, [r7, #6]	@ zero_extendqisi2
 2315 002a 082B     		cmp	r3, #8
ARM GAS  C:\Users\JOSANT~1\AppData\Local\Temp\cceoxjZy.s 			page 62


 2316 002c 7DD8     		bhi	.L142
1087:Generated_Source\PSoC5/USBFS_std.c ****     {
1088:Generated_Source\PSoC5/USBFS_std.c ****         /* Clear the endpoint Halt */
1089:Generated_Source\PSoC5/USBFS_std.c ****         USBFS_EP[ep].hwEpState &= (uint8)~(USBFS_ENDPOINT_STATUS_HALT);
 2317              		.loc 1 1089 0 is_stmt 1
 2318 002e BA79     		ldrb	r2, [r7, #6]	@ zero_extendqisi2
 2319 0030 B979     		ldrb	r1, [r7, #6]	@ zero_extendqisi2
 2320 0032 4148     		ldr	r0, .L149+4
 2321 0034 0B46     		mov	r3, r1
 2322 0036 5B00     		lsls	r3, r3, #1
 2323 0038 0B44     		add	r3, r3, r1
 2324 003a 9B00     		lsls	r3, r3, #2
 2325 003c 0344     		add	r3, r3, r0
 2326 003e 9B78     		ldrb	r3, [r3, #2]
 2327 0040 DBB2     		uxtb	r3, r3
 2328 0042 23F00103 		bic	r3, r3, #1
 2329 0046 D8B2     		uxtb	r0, r3
 2330 0048 3B49     		ldr	r1, .L149+4
 2331 004a 1346     		mov	r3, r2
 2332 004c 5B00     		lsls	r3, r3, #1
 2333 004e 1344     		add	r3, r3, r2
 2334 0050 9B00     		lsls	r3, r3, #2
 2335 0052 0B44     		add	r3, r3, r1
 2336 0054 0246     		mov	r2, r0
 2337 0056 9A70     		strb	r2, [r3, #2]
1090:Generated_Source\PSoC5/USBFS_std.c **** 
1091:Generated_Source\PSoC5/USBFS_std.c ****         /* Clear the data toggle */
1092:Generated_Source\PSoC5/USBFS_std.c ****         USBFS_EP[ep].epToggle = 0u;
 2338              		.loc 1 1092 0
 2339 0058 BA79     		ldrb	r2, [r7, #6]	@ zero_extendqisi2
 2340 005a 3749     		ldr	r1, .L149+4
 2341 005c 1346     		mov	r3, r2
 2342 005e 5B00     		lsls	r3, r3, #1
 2343 0060 1344     		add	r3, r3, r2
 2344 0062 9B00     		lsls	r3, r3, #2
 2345 0064 0B44     		add	r3, r3, r1
 2346 0066 0022     		movs	r2, #0
 2347 0068 DA70     		strb	r2, [r3, #3]
1093:Generated_Source\PSoC5/USBFS_std.c ****         /* Clear toggle bit for already armed packet */
1094:Generated_Source\PSoC5/USBFS_std.c ****         CY_SET_REG8((reg8 *)(USBFS_SIE_EP1_CNT0_IND + ri), CY_GET_REG8(
 2348              		.loc 1 1094 0
 2349 006a 7A79     		ldrb	r2, [r7, #5]	@ zero_extendqisi2
 2350 006c 334B     		ldr	r3, .L149+8
 2351 006e 1344     		add	r3, r3, r2
 2352 0070 1946     		mov	r1, r3
 2353 0072 7A79     		ldrb	r2, [r7, #5]	@ zero_extendqisi2
 2354 0074 314B     		ldr	r3, .L149+8
 2355 0076 1344     		add	r3, r3, r2
 2356 0078 1B78     		ldrb	r3, [r3]
 2357 007a DBB2     		uxtb	r3, r3
 2358 007c 03F07F03 		and	r3, r3, #127
 2359 0080 DBB2     		uxtb	r3, r3
 2360 0082 0B70     		strb	r3, [r1]
1095:Generated_Source\PSoC5/USBFS_std.c ****                     (reg8 *)(USBFS_SIE_EP1_CNT0_IND + ri)) & (uint8)~USBFS_EPX_CNT_DATA_TOGGLE);
1096:Generated_Source\PSoC5/USBFS_std.c ****         /* Return API State as it was defined before */
1097:Generated_Source\PSoC5/USBFS_std.c ****         USBFS_EP[ep].apiEpState &= (uint8)~USBFS_NO_EVENT_ALLOWED;
 2361              		.loc 1 1097 0
ARM GAS  C:\Users\JOSANT~1\AppData\Local\Temp\cceoxjZy.s 			page 63


 2362 0084 BA79     		ldrb	r2, [r7, #6]	@ zero_extendqisi2
 2363 0086 B979     		ldrb	r1, [r7, #6]	@ zero_extendqisi2
 2364 0088 2B48     		ldr	r0, .L149+4
 2365 008a 0B46     		mov	r3, r1
 2366 008c 5B00     		lsls	r3, r3, #1
 2367 008e 0B44     		add	r3, r3, r1
 2368 0090 9B00     		lsls	r3, r3, #2
 2369 0092 0344     		add	r3, r3, r0
 2370 0094 5B78     		ldrb	r3, [r3, #1]
 2371 0096 DBB2     		uxtb	r3, r3
 2372 0098 23F00203 		bic	r3, r3, #2
 2373 009c D8B2     		uxtb	r0, r3
 2374 009e 2649     		ldr	r1, .L149+4
 2375 00a0 1346     		mov	r3, r2
 2376 00a2 5B00     		lsls	r3, r3, #1
 2377 00a4 1344     		add	r3, r3, r2
 2378 00a6 9B00     		lsls	r3, r3, #2
 2379 00a8 0B44     		add	r3, r3, r1
 2380 00aa 0246     		mov	r2, r0
 2381 00ac 5A70     		strb	r2, [r3, #1]
1098:Generated_Source\PSoC5/USBFS_std.c **** 
1099:Generated_Source\PSoC5/USBFS_std.c ****         if ((USBFS_EP[ep].addr & USBFS_DIR_IN) != 0u)
 2382              		.loc 1 1099 0
 2383 00ae BA79     		ldrb	r2, [r7, #6]	@ zero_extendqisi2
 2384 00b0 2149     		ldr	r1, .L149+4
 2385 00b2 1346     		mov	r3, r2
 2386 00b4 5B00     		lsls	r3, r3, #1
 2387 00b6 1344     		add	r3, r3, r2
 2388 00b8 9B00     		lsls	r3, r3, #2
 2389 00ba 0B44     		add	r3, r3, r1
 2390 00bc 1B79     		ldrb	r3, [r3, #4]
 2391 00be DBB2     		uxtb	r3, r3
 2392 00c0 DBB2     		uxtb	r3, r3
 2393 00c2 5BB2     		sxtb	r3, r3
 2394 00c4 002B     		cmp	r3, #0
 2395 00c6 16DA     		bge	.L143
1100:Generated_Source\PSoC5/USBFS_std.c ****         {
1101:Generated_Source\PSoC5/USBFS_std.c ****             /* IN Endpoint */
1102:Generated_Source\PSoC5/USBFS_std.c ****             if(USBFS_EP[ep].apiEpState == USBFS_IN_BUFFER_EMPTY)
 2396              		.loc 1 1102 0
 2397 00c8 BA79     		ldrb	r2, [r7, #6]	@ zero_extendqisi2
 2398 00ca 1B49     		ldr	r1, .L149+4
 2399 00cc 1346     		mov	r3, r2
 2400 00ce 5B00     		lsls	r3, r3, #1
 2401 00d0 1344     		add	r3, r3, r2
 2402 00d2 9B00     		lsls	r3, r3, #2
 2403 00d4 0B44     		add	r3, r3, r1
 2404 00d6 5B78     		ldrb	r3, [r3, #1]
 2405 00d8 DBB2     		uxtb	r3, r3
 2406 00da 012B     		cmp	r3, #1
 2407 00dc 05D1     		bne	.L144
1103:Generated_Source\PSoC5/USBFS_std.c ****             {       /* Wait for next packet from application */
1104:Generated_Source\PSoC5/USBFS_std.c ****                 CY_SET_REG8((reg8 *)(USBFS_SIE_EP1_CR0_IND + ri), USBFS_MODE_NAK_IN);
 2408              		.loc 1 1104 0
 2409 00de 7A79     		ldrb	r2, [r7, #5]	@ zero_extendqisi2
 2410 00e0 174B     		ldr	r3, .L149+12
 2411 00e2 1344     		add	r3, r3, r2
ARM GAS  C:\Users\JOSANT~1\AppData\Local\Temp\cceoxjZy.s 			page 64


 2412 00e4 0C22     		movs	r2, #12
 2413 00e6 1A70     		strb	r2, [r3]
 2414 00e8 1BE0     		b	.L146
 2415              	.L144:
1105:Generated_Source\PSoC5/USBFS_std.c ****             }
1106:Generated_Source\PSoC5/USBFS_std.c ****             else    /* Continue armed transfer */
1107:Generated_Source\PSoC5/USBFS_std.c ****             {
1108:Generated_Source\PSoC5/USBFS_std.c ****                 CY_SET_REG8((reg8 *)(USBFS_SIE_EP1_CR0_IND + ri), USBFS_MODE_ACK_IN);
 2416              		.loc 1 1108 0
 2417 00ea 7A79     		ldrb	r2, [r7, #5]	@ zero_extendqisi2
 2418 00ec 144B     		ldr	r3, .L149+12
 2419 00ee 1344     		add	r3, r3, r2
 2420 00f0 0D22     		movs	r2, #13
 2421 00f2 1A70     		strb	r2, [r3]
 2422 00f4 15E0     		b	.L146
 2423              	.L143:
1109:Generated_Source\PSoC5/USBFS_std.c ****             }
1110:Generated_Source\PSoC5/USBFS_std.c ****         }
1111:Generated_Source\PSoC5/USBFS_std.c ****         else
1112:Generated_Source\PSoC5/USBFS_std.c ****         {
1113:Generated_Source\PSoC5/USBFS_std.c ****             /* OUT Endpoint */
1114:Generated_Source\PSoC5/USBFS_std.c ****             if(USBFS_EP[ep].apiEpState == USBFS_OUT_BUFFER_FULL)
 2424              		.loc 1 1114 0
 2425 00f6 BA79     		ldrb	r2, [r7, #6]	@ zero_extendqisi2
 2426 00f8 0F49     		ldr	r1, .L149+4
 2427 00fa 1346     		mov	r3, r2
 2428 00fc 5B00     		lsls	r3, r3, #1
 2429 00fe 1344     		add	r3, r3, r2
 2430 0100 9B00     		lsls	r3, r3, #2
 2431 0102 0B44     		add	r3, r3, r1
 2432 0104 5B78     		ldrb	r3, [r3, #1]
 2433 0106 DBB2     		uxtb	r3, r3
 2434 0108 012B     		cmp	r3, #1
 2435 010a 05D1     		bne	.L147
1115:Generated_Source\PSoC5/USBFS_std.c ****             {       /* Allow application to read full buffer */
1116:Generated_Source\PSoC5/USBFS_std.c ****                 CY_SET_REG8((reg8 *)(USBFS_SIE_EP1_CR0_IND + ri), USBFS_MODE_NAK_OUT);
 2436              		.loc 1 1116 0
 2437 010c 7A79     		ldrb	r2, [r7, #5]	@ zero_extendqisi2
 2438 010e 0C4B     		ldr	r3, .L149+12
 2439 0110 1344     		add	r3, r3, r2
 2440 0112 0822     		movs	r2, #8
 2441 0114 1A70     		strb	r2, [r3]
 2442 0116 04E0     		b	.L146
 2443              	.L147:
1117:Generated_Source\PSoC5/USBFS_std.c ****             }
1118:Generated_Source\PSoC5/USBFS_std.c ****             else    /* Mark endpoint as empty, so it will be reloaded */
1119:Generated_Source\PSoC5/USBFS_std.c ****             {
1120:Generated_Source\PSoC5/USBFS_std.c ****                 CY_SET_REG8((reg8 *)(USBFS_SIE_EP1_CR0_IND + ri), USBFS_MODE_ACK_OUT);
 2444              		.loc 1 1120 0
 2445 0118 7A79     		ldrb	r2, [r7, #5]	@ zero_extendqisi2
 2446 011a 094B     		ldr	r3, .L149+12
 2447 011c 1344     		add	r3, r3, r2
 2448 011e 0922     		movs	r2, #9
 2449 0120 1A70     		strb	r2, [r3]
 2450              	.L146:
1121:Generated_Source\PSoC5/USBFS_std.c ****             }
1122:Generated_Source\PSoC5/USBFS_std.c ****         }
ARM GAS  C:\Users\JOSANT~1\AppData\Local\Temp\cceoxjZy.s 			page 65


1123:Generated_Source\PSoC5/USBFS_std.c ****         requestHandled = USBFS_InitNoDataControlTransfer();
 2451              		.loc 1 1123 0
 2452 0122 FFF7FEFF 		bl	USBFS_InitNoDataControlTransfer
 2453 0126 0346     		mov	r3, r0
 2454 0128 FB71     		strb	r3, [r7, #7]
 2455              	.L142:
1124:Generated_Source\PSoC5/USBFS_std.c ****     }
1125:Generated_Source\PSoC5/USBFS_std.c **** 
1126:Generated_Source\PSoC5/USBFS_std.c ****     return(requestHandled);
 2456              		.loc 1 1126 0
 2457 012a FB79     		ldrb	r3, [r7, #7]	@ zero_extendqisi2
1127:Generated_Source\PSoC5/USBFS_std.c **** }
 2458              		.loc 1 1127 0
 2459 012c 1846     		mov	r0, r3
 2460 012e 0837     		adds	r7, r7, #8
 2461              		.cfi_def_cfa_offset 8
 2462 0130 BD46     		mov	sp, r7
 2463              		.cfi_def_cfa_register 13
 2464              		@ sp needed
 2465 0132 80BD     		pop	{r7, pc}
 2466              	.L150:
 2467              		.align	2
 2468              	.L149:
 2469 0134 04600040 		.word	1073766404
 2470 0138 00000000 		.word	USBFS_EP
 2471 013c 0C600040 		.word	1073766412
 2472 0140 0E600040 		.word	1073766414
 2473              		.cfi_endproc
 2474              	.LFE9:
 2475              		.size	USBFS_ClearEndpointHalt, .-USBFS_ClearEndpointHalt
 2476              		.section	.text.USBFS_ValidateAlternateSetting,"ax",%progbits
 2477              		.align	2
 2478              		.global	USBFS_ValidateAlternateSetting
 2479              		.thumb
 2480              		.thumb_func
 2481              		.type	USBFS_ValidateAlternateSetting, %function
 2482              	USBFS_ValidateAlternateSetting:
 2483              	.LFB10:
1128:Generated_Source\PSoC5/USBFS_std.c **** 
1129:Generated_Source\PSoC5/USBFS_std.c **** 
1130:Generated_Source\PSoC5/USBFS_std.c **** /*******************************************************************************
1131:Generated_Source\PSoC5/USBFS_std.c **** * Function Name: USBFS_ValidateAlternateSetting
1132:Generated_Source\PSoC5/USBFS_std.c **** ********************************************************************************
1133:Generated_Source\PSoC5/USBFS_std.c **** *
1134:Generated_Source\PSoC5/USBFS_std.c **** * Summary:
1135:Generated_Source\PSoC5/USBFS_std.c **** *  Validates (and records) a SET INTERFACE request.
1136:Generated_Source\PSoC5/USBFS_std.c **** *
1137:Generated_Source\PSoC5/USBFS_std.c **** * Parameters:
1138:Generated_Source\PSoC5/USBFS_std.c **** *  None.
1139:Generated_Source\PSoC5/USBFS_std.c **** *
1140:Generated_Source\PSoC5/USBFS_std.c **** * Return:
1141:Generated_Source\PSoC5/USBFS_std.c **** *  requestHandled.
1142:Generated_Source\PSoC5/USBFS_std.c **** *
1143:Generated_Source\PSoC5/USBFS_std.c **** * Reentrant:
1144:Generated_Source\PSoC5/USBFS_std.c **** *  No.
1145:Generated_Source\PSoC5/USBFS_std.c **** *
1146:Generated_Source\PSoC5/USBFS_std.c **** *******************************************************************************/
ARM GAS  C:\Users\JOSANT~1\AppData\Local\Temp\cceoxjZy.s 			page 66


1147:Generated_Source\PSoC5/USBFS_std.c **** uint8 USBFS_ValidateAlternateSetting(void) 
1148:Generated_Source\PSoC5/USBFS_std.c **** {
 2484              		.loc 1 1148 0
 2485              		.cfi_startproc
 2486              		@ args = 0, pretend = 0, frame = 16
 2487              		@ frame_needed = 1, uses_anonymous_args = 0
 2488 0000 80B5     		push	{r7, lr}
 2489              		.cfi_def_cfa_offset 8
 2490              		.cfi_offset 7, -8
 2491              		.cfi_offset 14, -4
 2492 0002 84B0     		sub	sp, sp, #16
 2493              		.cfi_def_cfa_offset 24
 2494 0004 00AF     		add	r7, sp, #0
 2495              		.cfi_def_cfa_register 7
1149:Generated_Source\PSoC5/USBFS_std.c ****     uint8 requestHandled = USBFS_TRUE;
 2496              		.loc 1 1149 0
 2497 0006 0123     		movs	r3, #1
 2498 0008 FB73     		strb	r3, [r7, #15]
1150:Generated_Source\PSoC5/USBFS_std.c ****     uint8 interfaceNum;
1151:Generated_Source\PSoC5/USBFS_std.c ****     const T_USBFS_LUT CYCODE *pTmp;
1152:Generated_Source\PSoC5/USBFS_std.c ****     uint8 currentInterfacesNum;
1153:Generated_Source\PSoC5/USBFS_std.c **** 
1154:Generated_Source\PSoC5/USBFS_std.c ****     interfaceNum = CY_GET_REG8(USBFS_wIndexLo);
 2499              		.loc 1 1154 0
 2500 000a 164B     		ldr	r3, .L156
 2501 000c 1B78     		ldrb	r3, [r3]
 2502 000e BB73     		strb	r3, [r7, #14]
1155:Generated_Source\PSoC5/USBFS_std.c ****     /* Validate interface setting, stall if invalid. */
1156:Generated_Source\PSoC5/USBFS_std.c ****     pTmp = USBFS_GetConfigTablePtr(USBFS_configuration - 1u);
 2503              		.loc 1 1156 0
 2504 0010 154B     		ldr	r3, .L156+4
 2505 0012 1B78     		ldrb	r3, [r3]
 2506 0014 DBB2     		uxtb	r3, r3
 2507 0016 013B     		subs	r3, r3, #1
 2508 0018 DBB2     		uxtb	r3, r3
 2509 001a 1846     		mov	r0, r3
 2510 001c FFF7FEFF 		bl	USBFS_GetConfigTablePtr
 2511 0020 B860     		str	r0, [r7, #8]
1157:Generated_Source\PSoC5/USBFS_std.c ****     currentInterfacesNum  = ((const uint8 *) pTmp->p_list)[USBFS_CONFIG_DESCR_NUM_INTERFACES];
 2512              		.loc 1 1157 0
 2513 0022 BB68     		ldr	r3, [r7, #8]
 2514 0024 5B68     		ldr	r3, [r3, #4]
 2515 0026 1B79     		ldrb	r3, [r3, #4]
 2516 0028 FB71     		strb	r3, [r7, #7]
1158:Generated_Source\PSoC5/USBFS_std.c **** 
1159:Generated_Source\PSoC5/USBFS_std.c ****     if((interfaceNum >= currentInterfacesNum) || (interfaceNum >= USBFS_MAX_INTERFACES_NUMBER))
 2517              		.loc 1 1159 0
 2518 002a BA7B     		ldrb	r2, [r7, #14]	@ zero_extendqisi2
 2519 002c FB79     		ldrb	r3, [r7, #7]	@ zero_extendqisi2
 2520 002e 9A42     		cmp	r2, r3
 2521 0030 02D2     		bcs	.L152
 2522              		.loc 1 1159 0 is_stmt 0 discriminator 1
 2523 0032 BB7B     		ldrb	r3, [r7, #14]	@ zero_extendqisi2
 2524 0034 012B     		cmp	r3, #1
 2525 0036 02D9     		bls	.L153
 2526              	.L152:
1160:Generated_Source\PSoC5/USBFS_std.c ****     {   /* Wrong interface number */
ARM GAS  C:\Users\JOSANT~1\AppData\Local\Temp\cceoxjZy.s 			page 67


1161:Generated_Source\PSoC5/USBFS_std.c ****         requestHandled = USBFS_FALSE;
 2527              		.loc 1 1161 0 is_stmt 1
 2528 0038 0023     		movs	r3, #0
 2529 003a FB73     		strb	r3, [r7, #15]
 2530 003c 0CE0     		b	.L154
 2531              	.L153:
1162:Generated_Source\PSoC5/USBFS_std.c ****     }
1163:Generated_Source\PSoC5/USBFS_std.c ****     else
1164:Generated_Source\PSoC5/USBFS_std.c ****     {
1165:Generated_Source\PSoC5/USBFS_std.c ****         /* Save current Alt setting to find out the difference in Config() function */
1166:Generated_Source\PSoC5/USBFS_std.c ****         USBFS_interfaceSetting_last[interfaceNum] = USBFS_interfaceSetting[interfaceNum];
 2532              		.loc 1 1166 0
 2533 003e BB7B     		ldrb	r3, [r7, #14]	@ zero_extendqisi2
 2534 0040 BA7B     		ldrb	r2, [r7, #14]	@ zero_extendqisi2
 2535 0042 0A49     		ldr	r1, .L156+8
 2536 0044 8A5C     		ldrb	r2, [r1, r2]
 2537 0046 D1B2     		uxtb	r1, r2
 2538 0048 094A     		ldr	r2, .L156+12
 2539 004a D154     		strb	r1, [r2, r3]
1167:Generated_Source\PSoC5/USBFS_std.c ****         USBFS_interfaceSetting[interfaceNum] = CY_GET_REG8(USBFS_wValueLo);
 2540              		.loc 1 1167 0
 2541 004c BB7B     		ldrb	r3, [r7, #14]	@ zero_extendqisi2
 2542 004e 094A     		ldr	r2, .L156+16
 2543 0050 1278     		ldrb	r2, [r2]
 2544 0052 D1B2     		uxtb	r1, r2
 2545 0054 054A     		ldr	r2, .L156+8
 2546 0056 D154     		strb	r1, [r2, r3]
 2547              	.L154:
1168:Generated_Source\PSoC5/USBFS_std.c ****     }
1169:Generated_Source\PSoC5/USBFS_std.c **** 
1170:Generated_Source\PSoC5/USBFS_std.c ****     return (requestHandled);
 2548              		.loc 1 1170 0
 2549 0058 FB7B     		ldrb	r3, [r7, #15]	@ zero_extendqisi2
1171:Generated_Source\PSoC5/USBFS_std.c **** }
 2550              		.loc 1 1171 0
 2551 005a 1846     		mov	r0, r3
 2552 005c 1037     		adds	r7, r7, #16
 2553              		.cfi_def_cfa_offset 8
 2554 005e BD46     		mov	sp, r7
 2555              		.cfi_def_cfa_register 13
 2556              		@ sp needed
 2557 0060 80BD     		pop	{r7, pc}
 2558              	.L157:
 2559 0062 00BF     		.align	2
 2560              	.L156:
 2561 0064 04600040 		.word	1073766404
 2562 0068 00000000 		.word	USBFS_configuration
 2563 006c 00000000 		.word	USBFS_interfaceSetting
 2564 0070 00000000 		.word	USBFS_interfaceSetting_last
 2565 0074 02600040 		.word	1073766402
 2566              		.cfi_endproc
 2567              	.LFE10:
 2568              		.size	USBFS_ValidateAlternateSetting, .-USBFS_ValidateAlternateSetting
 2569              		.bss
 2570              		.align	2
 2571              	USBFS_tBuffer.5009:
 2572 0000 0000     		.space	2
ARM GAS  C:\Users\JOSANT~1\AppData\Local\Temp\cceoxjZy.s 			page 68


 2573 0002 0000     		.text
 2574              	.Letext0:
 2575              		.file 2 "Generated_Source\\PSoC5\\cytypes.h"
 2576              		.file 3 "Generated_Source\\PSoC5\\USBFS.h"
 2577              		.file 4 "Generated_Source\\PSoC5\\USBFS_pvt.h"
 2578              		.section	.debug_info,"",%progbits
 2579              	.Ldebug_info0:
 2580 0000 D2060000 		.4byte	0x6d2
 2581 0004 0400     		.2byte	0x4
 2582 0006 00000000 		.4byte	.Ldebug_abbrev0
 2583 000a 04       		.byte	0x4
 2584 000b 01       		.uleb128 0x1
 2585 000c DB020000 		.4byte	.LASF80
 2586 0010 01       		.byte	0x1
 2587 0011 D4010000 		.4byte	.LASF81
 2588 0015 72000000 		.4byte	.LASF82
 2589 0019 00000000 		.4byte	.Ldebug_ranges0+0
 2590 001d 00000000 		.4byte	0
 2591 0021 00000000 		.4byte	.Ldebug_line0
 2592 0025 02       		.uleb128 0x2
 2593 0026 01       		.byte	0x1
 2594 0027 06       		.byte	0x6
 2595 0028 A3000000 		.4byte	.LASF0
 2596 002c 02       		.uleb128 0x2
 2597 002d 01       		.byte	0x1
 2598 002e 08       		.byte	0x8
 2599 002f EF030000 		.4byte	.LASF1
 2600 0033 02       		.uleb128 0x2
 2601 0034 02       		.byte	0x2
 2602 0035 05       		.byte	0x5
 2603 0036 FD030000 		.4byte	.LASF2
 2604 003a 02       		.uleb128 0x2
 2605 003b 02       		.byte	0x2
 2606 003c 07       		.byte	0x7
 2607 003d F7010000 		.4byte	.LASF3
 2608 0041 02       		.uleb128 0x2
 2609 0042 04       		.byte	0x4
 2610 0043 05       		.byte	0x5
 2611 0044 1E010000 		.4byte	.LASF4
 2612 0048 02       		.uleb128 0x2
 2613 0049 04       		.byte	0x4
 2614 004a 07       		.byte	0x7
 2615 004b A2010000 		.4byte	.LASF5
 2616 004f 02       		.uleb128 0x2
 2617 0050 08       		.byte	0x8
 2618 0051 05       		.byte	0x5
 2619 0052 95000000 		.4byte	.LASF6
 2620 0056 02       		.uleb128 0x2
 2621 0057 08       		.byte	0x8
 2622 0058 07       		.byte	0x7
 2623 0059 46000000 		.4byte	.LASF7
 2624 005d 03       		.uleb128 0x3
 2625 005e 04       		.byte	0x4
 2626 005f 05       		.byte	0x5
 2627 0060 696E7400 		.ascii	"int\000"
 2628 0064 02       		.uleb128 0x2
 2629 0065 04       		.byte	0x4
ARM GAS  C:\Users\JOSANT~1\AppData\Local\Temp\cceoxjZy.s 			page 69


 2630 0066 07       		.byte	0x7
 2631 0067 95010000 		.4byte	.LASF8
 2632 006b 04       		.uleb128 0x4
 2633 006c 27010000 		.4byte	.LASF9
 2634 0070 02       		.byte	0x2
 2635 0071 5B       		.byte	0x5b
 2636 0072 2C000000 		.4byte	0x2c
 2637 0076 04       		.uleb128 0x4
 2638 0077 13000000 		.4byte	.LASF10
 2639 007b 02       		.byte	0x2
 2640 007c 5C       		.byte	0x5c
 2641 007d 3A000000 		.4byte	0x3a
 2642 0081 02       		.uleb128 0x2
 2643 0082 04       		.byte	0x4
 2644 0083 04       		.byte	0x4
 2645 0084 BC030000 		.4byte	.LASF11
 2646 0088 02       		.uleb128 0x2
 2647 0089 08       		.byte	0x8
 2648 008a 04       		.byte	0x4
 2649 008b 36010000 		.4byte	.LASF12
 2650 008f 02       		.uleb128 0x2
 2651 0090 01       		.byte	0x1
 2652 0091 08       		.byte	0x8
 2653 0092 79040000 		.4byte	.LASF13
 2654 0096 04       		.uleb128 0x4
 2655 0097 EA030000 		.4byte	.LASF14
 2656 009b 02       		.byte	0x2
 2657 009c F0       		.byte	0xf0
 2658 009d A1000000 		.4byte	0xa1
 2659 00a1 05       		.uleb128 0x5
 2660 00a2 6B000000 		.4byte	0x6b
 2661 00a6 02       		.uleb128 0x2
 2662 00a7 04       		.byte	0x4
 2663 00a8 07       		.byte	0x7
 2664 00a9 A9020000 		.4byte	.LASF15
 2665 00ad 06       		.uleb128 0x6
 2666 00ae 0C       		.byte	0xc
 2667 00af 03       		.byte	0x3
 2668 00b0 78       		.byte	0x78
 2669 00b1 22010000 		.4byte	0x122
 2670 00b5 07       		.uleb128 0x7
 2671 00b6 C8020000 		.4byte	.LASF16
 2672 00ba 03       		.byte	0x3
 2673 00bb 7A       		.byte	0x7a
 2674 00bc 6B000000 		.4byte	0x6b
 2675 00c0 00       		.byte	0
 2676 00c1 07       		.uleb128 0x7
 2677 00c2 C2030000 		.4byte	.LASF17
 2678 00c6 03       		.byte	0x3
 2679 00c7 7B       		.byte	0x7b
 2680 00c8 6B000000 		.4byte	0x6b
 2681 00cc 01       		.byte	0x1
 2682 00cd 07       		.uleb128 0x7
 2683 00ce 93020000 		.4byte	.LASF18
 2684 00d2 03       		.byte	0x3
 2685 00d3 7C       		.byte	0x7c
 2686 00d4 6B000000 		.4byte	0x6b
ARM GAS  C:\Users\JOSANT~1\AppData\Local\Temp\cceoxjZy.s 			page 70


 2687 00d8 02       		.byte	0x2
 2688 00d9 07       		.uleb128 0x7
 2689 00da 2D010000 		.4byte	.LASF19
 2690 00de 03       		.byte	0x3
 2691 00df 7D       		.byte	0x7d
 2692 00e0 6B000000 		.4byte	0x6b
 2693 00e4 03       		.byte	0x3
 2694 00e5 07       		.uleb128 0x7
 2695 00e6 5D000000 		.4byte	.LASF20
 2696 00ea 03       		.byte	0x3
 2697 00eb 7E       		.byte	0x7e
 2698 00ec 6B000000 		.4byte	0x6b
 2699 00f0 04       		.byte	0x4
 2700 00f1 07       		.uleb128 0x7
 2701 00f2 87010000 		.4byte	.LASF21
 2702 00f6 03       		.byte	0x3
 2703 00f7 7F       		.byte	0x7f
 2704 00f8 6B000000 		.4byte	0x6b
 2705 00fc 05       		.byte	0x5
 2706 00fd 07       		.uleb128 0x7
 2707 00fe 98040000 		.4byte	.LASF22
 2708 0102 03       		.byte	0x3
 2709 0103 80       		.byte	0x80
 2710 0104 76000000 		.4byte	0x76
 2711 0108 06       		.byte	0x6
 2712 0109 07       		.uleb128 0x7
 2713 010a 7E040000 		.4byte	.LASF23
 2714 010e 03       		.byte	0x3
 2715 010f 81       		.byte	0x81
 2716 0110 76000000 		.4byte	0x76
 2717 0114 08       		.byte	0x8
 2718 0115 07       		.uleb128 0x7
 2719 0116 21020000 		.4byte	.LASF24
 2720 011a 03       		.byte	0x3
 2721 011b 82       		.byte	0x82
 2722 011c 6B000000 		.4byte	0x6b
 2723 0120 0A       		.byte	0xa
 2724 0121 00       		.byte	0
 2725 0122 04       		.uleb128 0x4
 2726 0123 41040000 		.4byte	.LASF25
 2727 0127 03       		.byte	0x3
 2728 0128 83       		.byte	0x83
 2729 0129 AD000000 		.4byte	0xad
 2730 012d 06       		.uleb128 0x6
 2731 012e 08       		.byte	0x8
 2732 012f 03       		.byte	0x3
 2733 0130 85       		.byte	0x85
 2734 0131 7E010000 		.4byte	0x17e
 2735 0135 07       		.uleb128 0x7
 2736 0136 21020000 		.4byte	.LASF24
 2737 013a 03       		.byte	0x3
 2738 013b 87       		.byte	0x87
 2739 013c 6B000000 		.4byte	0x6b
 2740 0140 00       		.byte	0
 2741 0141 07       		.uleb128 0x7
 2742 0142 6E040000 		.4byte	.LASF26
 2743 0146 03       		.byte	0x3
ARM GAS  C:\Users\JOSANT~1\AppData\Local\Temp\cceoxjZy.s 			page 71


 2744 0147 88       		.byte	0x88
 2745 0148 6B000000 		.4byte	0x6b
 2746 014c 01       		.byte	0x1
 2747 014d 07       		.uleb128 0x7
 2748 014e 5D000000 		.4byte	.LASF20
 2749 0152 03       		.byte	0x3
 2750 0153 89       		.byte	0x89
 2751 0154 6B000000 		.4byte	0x6b
 2752 0158 02       		.byte	0x2
 2753 0159 07       		.uleb128 0x7
 2754 015a 63040000 		.4byte	.LASF27
 2755 015e 03       		.byte	0x3
 2756 015f 8A       		.byte	0x8a
 2757 0160 6B000000 		.4byte	0x6b
 2758 0164 03       		.byte	0x3
 2759 0165 07       		.uleb128 0x7
 2760 0166 7E040000 		.4byte	.LASF23
 2761 016a 03       		.byte	0x3
 2762 016b 8B       		.byte	0x8b
 2763 016c 76000000 		.4byte	0x76
 2764 0170 04       		.byte	0x4
 2765 0171 07       		.uleb128 0x7
 2766 0172 04050000 		.4byte	.LASF28
 2767 0176 03       		.byte	0x3
 2768 0177 8C       		.byte	0x8c
 2769 0178 6B000000 		.4byte	0x6b
 2770 017c 06       		.byte	0x6
 2771 017d 00       		.byte	0
 2772 017e 04       		.uleb128 0x4
 2773 017f 3D010000 		.4byte	.LASF29
 2774 0183 03       		.byte	0x3
 2775 0184 8D       		.byte	0x8d
 2776 0185 2D010000 		.4byte	0x12d
 2777 0189 06       		.uleb128 0x6
 2778 018a 04       		.byte	0x4
 2779 018b 03       		.byte	0x3
 2780 018c 8F       		.byte	0x8f
 2781 018d AA010000 		.4byte	0x1aa
 2782 0191 07       		.uleb128 0x7
 2783 0192 FD040000 		.4byte	.LASF30
 2784 0196 03       		.byte	0x3
 2785 0197 91       		.byte	0x91
 2786 0198 6B000000 		.4byte	0x6b
 2787 019c 00       		.byte	0
 2788 019d 07       		.uleb128 0x7
 2789 019e EA040000 		.4byte	.LASF31
 2790 01a2 03       		.byte	0x3
 2791 01a3 92       		.byte	0x92
 2792 01a4 76000000 		.4byte	0x76
 2793 01a8 02       		.byte	0x2
 2794 01a9 00       		.byte	0
 2795 01aa 04       		.uleb128 0x4
 2796 01ab 95030000 		.4byte	.LASF32
 2797 01af 03       		.byte	0x3
 2798 01b0 93       		.byte	0x93
 2799 01b1 89010000 		.4byte	0x189
 2800 01b5 06       		.uleb128 0x6
ARM GAS  C:\Users\JOSANT~1\AppData\Local\Temp\cceoxjZy.s 			page 72


 2801 01b6 0C       		.byte	0xc
 2802 01b7 03       		.byte	0x3
 2803 01b8 95       		.byte	0x95
 2804 01b9 E2010000 		.4byte	0x1e2
 2805 01bd 07       		.uleb128 0x7
 2806 01be 0D000000 		.4byte	.LASF33
 2807 01c2 03       		.byte	0x3
 2808 01c3 97       		.byte	0x97
 2809 01c4 76000000 		.4byte	0x76
 2810 01c8 00       		.byte	0
 2811 01c9 07       		.uleb128 0x7
 2812 01ca 6D010000 		.4byte	.LASF34
 2813 01ce 03       		.byte	0x3
 2814 01cf 98       		.byte	0x98
 2815 01d0 E2010000 		.4byte	0x1e2
 2816 01d4 04       		.byte	0x4
 2817 01d5 07       		.uleb128 0x7
 2818 01d6 00000000 		.4byte	.LASF35
 2819 01da 03       		.byte	0x3
 2820 01db 99       		.byte	0x99
 2821 01dc E8010000 		.4byte	0x1e8
 2822 01e0 08       		.byte	0x8
 2823 01e1 00       		.byte	0
 2824 01e2 08       		.uleb128 0x8
 2825 01e3 04       		.byte	0x4
 2826 01e4 A1000000 		.4byte	0xa1
 2827 01e8 08       		.uleb128 0x8
 2828 01e9 04       		.byte	0x4
 2829 01ea AA010000 		.4byte	0x1aa
 2830 01ee 04       		.uleb128 0x4
 2831 01ef 07040000 		.4byte	.LASF36
 2832 01f3 03       		.byte	0x3
 2833 01f4 9A       		.byte	0x9a
 2834 01f5 B5010000 		.4byte	0x1b5
 2835 01f9 06       		.uleb128 0x6
 2836 01fa 08       		.byte	0x8
 2837 01fb 03       		.byte	0x3
 2838 01fc 9D       		.byte	0x9d
 2839 01fd 18020000 		.4byte	0x218
 2840 0201 09       		.uleb128 0x9
 2841 0202 6300     		.ascii	"c\000"
 2842 0204 03       		.byte	0x3
 2843 0205 9F       		.byte	0x9f
 2844 0206 6B000000 		.4byte	0x6b
 2845 020a 00       		.byte	0
 2846 020b 07       		.uleb128 0x7
 2847 020c B7020000 		.4byte	.LASF37
 2848 0210 03       		.byte	0x3
 2849 0211 A0       		.byte	0xa0
 2850 0212 18020000 		.4byte	0x218
 2851 0216 04       		.byte	0x4
 2852 0217 00       		.byte	0
 2853 0218 08       		.uleb128 0x8
 2854 0219 04       		.byte	0x4
 2855 021a 1E020000 		.4byte	0x21e
 2856 021e 0A       		.uleb128 0xa
 2857 021f 04       		.uleb128 0x4
ARM GAS  C:\Users\JOSANT~1\AppData\Local\Temp\cceoxjZy.s 			page 73


 2858 0220 39050000 		.4byte	.LASF38
 2859 0224 03       		.byte	0x3
 2860 0225 A1       		.byte	0xa1
 2861 0226 F9010000 		.4byte	0x1f9
 2862 022a 0B       		.uleb128 0xb
 2863 022b 20050000 		.4byte	.LASF54
 2864 022f 01       		.byte	0x1
 2865 0230 58       		.byte	0x58
 2866 0231 6B000000 		.4byte	0x6b
 2867 0235 00000000 		.4byte	.LFB0
 2868 0239 6C040000 		.4byte	.LFE0-.LFB0
 2869 023d 01       		.uleb128 0x1
 2870 023e 9C       		.byte	0x9c
 2871 023f B7020000 		.4byte	0x2b7
 2872 0243 0C       		.uleb128 0xc
 2873 0244 89040000 		.4byte	.LASF39
 2874 0248 01       		.byte	0x1
 2875 0249 5A       		.byte	0x5a
 2876 024a 6B000000 		.4byte	0x6b
 2877 024e 02       		.uleb128 0x2
 2878 024f 91       		.byte	0x91
 2879 0250 77       		.sleb128 -9
 2880 0251 0C       		.uleb128 0xc
 2881 0252 62000000 		.4byte	.LASF40
 2882 0256 01       		.byte	0x1
 2883 0257 5B       		.byte	0x5b
 2884 0258 6B000000 		.4byte	0x6b
 2885 025c 02       		.uleb128 0x2
 2886 025d 91       		.byte	0x91
 2887 025e 65       		.sleb128 -27
 2888 025f 0C       		.uleb128 0xc
 2889 0260 CD030000 		.4byte	.LASF41
 2890 0264 01       		.byte	0x1
 2891 0265 5C       		.byte	0x5c
 2892 0266 6B000000 		.4byte	0x6b
 2893 026a 02       		.uleb128 0x2
 2894 026b 91       		.byte	0x91
 2895 026c 66       		.sleb128 -26
 2896 026d 0C       		.uleb128 0xc
 2897 026e E5030000 		.4byte	.LASF42
 2898 0272 01       		.byte	0x1
 2899 0273 5E       		.byte	0x5e
 2900 0274 E2010000 		.4byte	0x1e2
 2901 0278 02       		.uleb128 0x2
 2902 0279 91       		.byte	0x91
 2903 027a 70       		.sleb128 -16
 2904 027b 0C       		.uleb128 0xc
 2905 027c F1040000 		.4byte	.LASF43
 2906 0280 01       		.byte	0x1
 2907 0281 60       		.byte	0x60
 2908 0282 6B000000 		.4byte	0x6b
 2909 0286 02       		.uleb128 0x2
 2910 0287 91       		.byte	0x91
 2911 0288 6F       		.sleb128 -17
 2912 0289 0C       		.uleb128 0xc
 2913 028a 9D020000 		.4byte	.LASF44
 2914 028e 01       		.byte	0x1
ARM GAS  C:\Users\JOSANT~1\AppData\Local\Temp\cceoxjZy.s 			page 74


 2915 028f 61       		.byte	0x61
 2916 0290 6B000000 		.4byte	0x6b
 2917 0294 02       		.uleb128 0x2
 2918 0295 91       		.byte	0x91
 2919 0296 67       		.sleb128 -25
 2920 0297 0C       		.uleb128 0xc
 2921 0298 87000000 		.4byte	.LASF45
 2922 029c 01       		.byte	0x1
 2923 029d 64       		.byte	0x64
 2924 029e C7020000 		.4byte	0x2c7
 2925 02a2 05       		.uleb128 0x5
 2926 02a3 03       		.byte	0x3
 2927 02a4 00000000 		.4byte	USBFS_tBuffer.5009
 2928 02a8 0C       		.uleb128 0xc
 2929 02a9 B2020000 		.4byte	.LASF46
 2930 02ad 01       		.byte	0x1
 2931 02ae 65       		.byte	0x65
 2932 02af CC020000 		.4byte	0x2cc
 2933 02b3 02       		.uleb128 0x2
 2934 02b4 91       		.byte	0x91
 2935 02b5 68       		.sleb128 -24
 2936 02b6 00       		.byte	0
 2937 02b7 0D       		.uleb128 0xd
 2938 02b8 6B000000 		.4byte	0x6b
 2939 02bc C7020000 		.4byte	0x2c7
 2940 02c0 0E       		.uleb128 0xe
 2941 02c1 A6000000 		.4byte	0xa6
 2942 02c5 01       		.byte	0x1
 2943 02c6 00       		.byte	0
 2944 02c7 05       		.uleb128 0x5
 2945 02c8 B7020000 		.4byte	0x2b7
 2946 02cc 08       		.uleb128 0x8
 2947 02cd 04       		.byte	0x4
 2948 02ce D2020000 		.4byte	0x2d2
 2949 02d2 0F       		.uleb128 0xf
 2950 02d3 1F020000 		.4byte	0x21f
 2951 02d7 10       		.uleb128 0x10
 2952 02d8 0E010000 		.4byte	.LASF47
 2953 02dc 01       		.byte	0x1
 2954 02dd 9201     		.2byte	0x192
 2955 02df 00000000 		.4byte	.LFB1
 2956 02e3 8C010000 		.4byte	.LFE1-.LFB1
 2957 02e7 01       		.uleb128 0x1
 2958 02e8 9C       		.byte	0x9c
 2959 02e9 09030000 		.4byte	0x309
 2960 02ed 11       		.uleb128 0x11
 2961 02ee 657000   		.ascii	"ep\000"
 2962 02f1 01       		.byte	0x1
 2963 02f2 9401     		.2byte	0x194
 2964 02f4 6B000000 		.4byte	0x6b
 2965 02f8 02       		.uleb128 0x2
 2966 02f9 91       		.byte	0x91
 2967 02fa 77       		.sleb128 -9
 2968 02fb 11       		.uleb128 0x11
 2969 02fc 6900     		.ascii	"i\000"
 2970 02fe 01       		.byte	0x1
 2971 02ff 9501     		.2byte	0x195
ARM GAS  C:\Users\JOSANT~1\AppData\Local\Temp\cceoxjZy.s 			page 75


 2972 0301 6B000000 		.4byte	0x6b
 2973 0305 02       		.uleb128 0x2
 2974 0306 91       		.byte	0x91
 2975 0307 76       		.sleb128 -10
 2976 0308 00       		.byte	0
 2977 0309 12       		.uleb128 0x12
 2978 030a 01010000 		.4byte	.LASF48
 2979 030e 01       		.byte	0x1
 2980 030f ED01     		.2byte	0x1ed
 2981 0311 00000000 		.4byte	.LFB2
 2982 0315 08030000 		.4byte	.LFE2-.LFB2
 2983 0319 01       		.uleb128 0x1
 2984 031a 9C       		.byte	0x9c
 2985 031b A4030000 		.4byte	0x3a4
 2986 031f 13       		.uleb128 0x13
 2987 0320 AF000000 		.4byte	.LASF56
 2988 0324 01       		.byte	0x1
 2989 0325 ED01     		.2byte	0x1ed
 2990 0327 6B000000 		.4byte	0x6b
 2991 032b 02       		.uleb128 0x2
 2992 032c 91       		.byte	0x91
 2993 032d 5F       		.sleb128 -33
 2994 032e 11       		.uleb128 0x11
 2995 032f 657000   		.ascii	"ep\000"
 2996 0332 01       		.byte	0x1
 2997 0333 EF01     		.2byte	0x1ef
 2998 0335 6B000000 		.4byte	0x6b
 2999 0339 02       		.uleb128 0x2
 3000 033a 91       		.byte	0x91
 3001 033b 77       		.sleb128 -9
 3002 033c 14       		.uleb128 0x14
 3003 033d F6040000 		.4byte	.LASF49
 3004 0341 01       		.byte	0x1
 3005 0342 F001     		.2byte	0x1f0
 3006 0344 6B000000 		.4byte	0x6b
 3007 0348 02       		.uleb128 0x2
 3008 0349 91       		.byte	0x91
 3009 034a 76       		.sleb128 -10
 3010 034b 11       		.uleb128 0x11
 3011 034c 6900     		.ascii	"i\000"
 3012 034e 01       		.byte	0x1
 3013 034f F101     		.2byte	0x1f1
 3014 0351 6B000000 		.4byte	0x6b
 3015 0355 02       		.uleb128 0x2
 3016 0356 91       		.byte	0x91
 3017 0357 75       		.sleb128 -11
 3018 0358 14       		.uleb128 0x14
 3019 0359 8E010000 		.4byte	.LASF50
 3020 035d 01       		.byte	0x1
 3021 035e F201     		.2byte	0x1f2
 3022 0360 6B000000 		.4byte	0x6b
 3023 0364 02       		.uleb128 0x2
 3024 0365 91       		.byte	0x91
 3025 0366 63       		.sleb128 -29
 3026 0367 14       		.uleb128 0x14
 3027 0368 0A020000 		.4byte	.LASF51
 3028 036c 01       		.byte	0x1
ARM GAS  C:\Users\JOSANT~1\AppData\Local\Temp\cceoxjZy.s 			page 76


 3029 036d F301     		.2byte	0x1f3
 3030 036f A4030000 		.4byte	0x3a4
 3031 0373 02       		.uleb128 0x2
 3032 0374 91       		.byte	0x91
 3033 0375 64       		.sleb128 -28
 3034 0376 14       		.uleb128 0x14
 3035 0377 BE020000 		.4byte	.LASF52
 3036 037b 01       		.byte	0x1
 3037 037c F501     		.2byte	0x1f5
 3038 037e 76000000 		.4byte	0x76
 3039 0382 02       		.uleb128 0x2
 3040 0383 91       		.byte	0x91
 3041 0384 72       		.sleb128 -14
 3042 0385 14       		.uleb128 0x14
 3043 0386 B2020000 		.4byte	.LASF46
 3044 038a 01       		.byte	0x1
 3045 038b F801     		.2byte	0x1f8
 3046 038d CC020000 		.4byte	0x2cc
 3047 0391 02       		.uleb128 0x2
 3048 0392 91       		.byte	0x91
 3049 0393 68       		.sleb128 -24
 3050 0394 11       		.uleb128 0x11
 3051 0395 70455000 		.ascii	"pEP\000"
 3052 0399 01       		.byte	0x1
 3053 039a F901     		.2byte	0x1f9
 3054 039c AF030000 		.4byte	0x3af
 3055 03a0 02       		.uleb128 0x2
 3056 03a1 91       		.byte	0x91
 3057 03a2 6C       		.sleb128 -20
 3058 03a3 00       		.byte	0
 3059 03a4 08       		.uleb128 0x8
 3060 03a5 04       		.byte	0x4
 3061 03a6 AA030000 		.4byte	0x3aa
 3062 03aa 0F       		.uleb128 0xf
 3063 03ab 6B000000 		.4byte	0x6b
 3064 03af 08       		.uleb128 0x8
 3065 03b0 04       		.byte	0x4
 3066 03b1 B5030000 		.4byte	0x3b5
 3067 03b5 0F       		.uleb128 0xf
 3068 03b6 7E010000 		.4byte	0x17e
 3069 03ba 12       		.uleb128 0x12
 3070 03bb 7E030000 		.4byte	.LASF53
 3071 03bf 01       		.byte	0x1
 3072 03c0 E502     		.2byte	0x2e5
 3073 03c2 00000000 		.4byte	.LFB3
 3074 03c6 7C020000 		.4byte	.LFE3-.LFB3
 3075 03ca 01       		.uleb128 0x1
 3076 03cb 9C       		.byte	0x9c
 3077 03cc 36040000 		.4byte	0x436
 3078 03d0 11       		.uleb128 0x11
 3079 03d1 657000   		.ascii	"ep\000"
 3080 03d4 01       		.byte	0x1
 3081 03d5 E702     		.2byte	0x2e7
 3082 03d7 6B000000 		.4byte	0x6b
 3083 03db 02       		.uleb128 0x2
 3084 03dc 91       		.byte	0x91
 3085 03dd 6B       		.sleb128 -21
ARM GAS  C:\Users\JOSANT~1\AppData\Local\Temp\cceoxjZy.s 			page 77


 3086 03de 14       		.uleb128 0x14
 3087 03df F6040000 		.4byte	.LASF49
 3088 03e3 01       		.byte	0x1
 3089 03e4 E802     		.2byte	0x2e8
 3090 03e6 6B000000 		.4byte	0x6b
 3091 03ea 02       		.uleb128 0x2
 3092 03eb 91       		.byte	0x91
 3093 03ec 6A       		.sleb128 -22
 3094 03ed 11       		.uleb128 0x11
 3095 03ee 6900     		.ascii	"i\000"
 3096 03f0 01       		.byte	0x1
 3097 03f1 E902     		.2byte	0x2e9
 3098 03f3 6B000000 		.4byte	0x6b
 3099 03f7 02       		.uleb128 0x2
 3100 03f8 91       		.byte	0x91
 3101 03f9 77       		.sleb128 -9
 3102 03fa 14       		.uleb128 0x14
 3103 03fb 8E010000 		.4byte	.LASF50
 3104 03ff 01       		.byte	0x1
 3105 0400 EA02     		.2byte	0x2ea
 3106 0402 6B000000 		.4byte	0x6b
 3107 0406 02       		.uleb128 0x2
 3108 0407 91       		.byte	0x91
 3109 0408 68       		.sleb128 -24
 3110 0409 11       		.uleb128 0x11
 3111 040a 726900   		.ascii	"ri\000"
 3112 040d 01       		.byte	0x1
 3113 040e EB02     		.2byte	0x2eb
 3114 0410 6B000000 		.4byte	0x6b
 3115 0414 02       		.uleb128 0x2
 3116 0415 91       		.byte	0x91
 3117 0416 69       		.sleb128 -23
 3118 0417 14       		.uleb128 0x14
 3119 0418 B2020000 		.4byte	.LASF46
 3120 041c 01       		.byte	0x1
 3121 041d ED02     		.2byte	0x2ed
 3122 041f CC020000 		.4byte	0x2cc
 3123 0423 02       		.uleb128 0x2
 3124 0424 91       		.byte	0x91
 3125 0425 6C       		.sleb128 -20
 3126 0426 11       		.uleb128 0x11
 3127 0427 70455000 		.ascii	"pEP\000"
 3128 042b 01       		.byte	0x1
 3129 042c EE02     		.2byte	0x2ee
 3130 042e AF030000 		.4byte	0x3af
 3131 0432 02       		.uleb128 0x2
 3132 0433 91       		.byte	0x91
 3133 0434 70       		.sleb128 -16
 3134 0435 00       		.byte	0
 3135 0436 15       		.uleb128 0x15
 3136 0437 12040000 		.4byte	.LASF55
 3137 043b 01       		.byte	0x1
 3138 043c 6303     		.2byte	0x363
 3139 043e CC020000 		.4byte	0x2cc
 3140 0442 00000000 		.4byte	.LFB4
 3141 0446 54000000 		.4byte	.LFE4-.LFB4
 3142 044a 01       		.uleb128 0x1
ARM GAS  C:\Users\JOSANT~1\AppData\Local\Temp\cceoxjZy.s 			page 78


 3143 044b 9C       		.byte	0x9c
 3144 044c 6F040000 		.4byte	0x46f
 3145 0450 13       		.uleb128 0x13
 3146 0451 3C000000 		.4byte	.LASF57
 3147 0455 01       		.byte	0x1
 3148 0456 6303     		.2byte	0x363
 3149 0458 6B000000 		.4byte	0x6b
 3150 045c 02       		.uleb128 0x2
 3151 045d 91       		.byte	0x91
 3152 045e 6F       		.sleb128 -17
 3153 045f 14       		.uleb128 0x14
 3154 0460 B2020000 		.4byte	.LASF46
 3155 0464 01       		.byte	0x1
 3156 0465 6703     		.2byte	0x367
 3157 0467 CC020000 		.4byte	0x2cc
 3158 046b 02       		.uleb128 0x2
 3159 046c 91       		.byte	0x91
 3160 046d 74       		.sleb128 -12
 3161 046e 00       		.byte	0
 3162 046f 16       		.uleb128 0x16
 3163 0470 A3040000 		.4byte	.LASF83
 3164 0474 01       		.byte	0x1
 3165 0475 8C03     		.2byte	0x38c
 3166 0477 CC020000 		.4byte	0x2cc
 3167 047b 00000000 		.4byte	.LFB5
 3168 047f 24000000 		.4byte	.LFE5-.LFB5
 3169 0483 01       		.uleb128 0x1
 3170 0484 9C       		.byte	0x9c
 3171 0485 17       		.uleb128 0x17
 3172 0486 B4010000 		.4byte	.LASF58
 3173 048a 01       		.byte	0x1
 3174 048b A303     		.2byte	0x3a3
 3175 048d A4030000 		.4byte	0x3a4
 3176 0491 00000000 		.4byte	.LFB6
 3177 0495 4C000000 		.4byte	.LFE6-.LFB6
 3178 0499 01       		.uleb128 0x1
 3179 049a 9C       		.byte	0x9c
 3180 049b CD040000 		.4byte	0x4cd
 3181 049f 14       		.uleb128 0x14
 3182 04a0 B2020000 		.4byte	.LASF46
 3183 04a4 01       		.byte	0x1
 3184 04a5 A603     		.2byte	0x3a6
 3185 04a7 CC020000 		.4byte	0x2cc
 3186 04ab 02       		.uleb128 0x2
 3187 04ac 91       		.byte	0x91
 3188 04ad 70       		.sleb128 -16
 3189 04ae 14       		.uleb128 0x14
 3190 04af 11020000 		.4byte	.LASF59
 3191 04b3 01       		.byte	0x1
 3192 04b4 A703     		.2byte	0x3a7
 3193 04b6 A4030000 		.4byte	0x3a4
 3194 04ba 02       		.uleb128 0x2
 3195 04bb 91       		.byte	0x91
 3196 04bc 74       		.sleb128 -12
 3197 04bd 14       		.uleb128 0x14
 3198 04be 69030000 		.4byte	.LASF60
 3199 04c2 01       		.byte	0x1
ARM GAS  C:\Users\JOSANT~1\AppData\Local\Temp\cceoxjZy.s 			page 79


 3200 04c3 A803     		.2byte	0x3a8
 3201 04c5 6B000000 		.4byte	0x6b
 3202 04c9 02       		.uleb128 0x2
 3203 04ca 91       		.byte	0x91
 3204 04cb 6F       		.sleb128 -17
 3205 04cc 00       		.byte	0
 3206 04cd 10       		.uleb128 0x10
 3207 04ce 1A000000 		.4byte	.LASF61
 3208 04d2 01       		.byte	0x1
 3209 04d3 CE03     		.2byte	0x3ce
 3210 04d5 00000000 		.4byte	.LFB7
 3211 04d9 B8000000 		.4byte	.LFE7-.LFB7
 3212 04dd 01       		.uleb128 0x1
 3213 04de 9C       		.byte	0x9c
 3214 04df 00050000 		.4byte	0x500
 3215 04e3 18       		.uleb128 0x18
 3216 04e4 657000   		.ascii	"ep\000"
 3217 04e7 01       		.byte	0x1
 3218 04e8 CE03     		.2byte	0x3ce
 3219 04ea 6B000000 		.4byte	0x6b
 3220 04ee 02       		.uleb128 0x2
 3221 04ef 91       		.byte	0x91
 3222 04f0 6F       		.sleb128 -17
 3223 04f1 11       		.uleb128 0x11
 3224 04f2 726900   		.ascii	"ri\000"
 3225 04f5 01       		.byte	0x1
 3226 04f6 D003     		.2byte	0x3d0
 3227 04f8 6B000000 		.4byte	0x6b
 3228 04fc 02       		.uleb128 0x2
 3229 04fd 91       		.byte	0x91
 3230 04fe 77       		.sleb128 -9
 3231 04ff 00       		.byte	0
 3232 0500 17       		.uleb128 0x17
 3233 0501 57010000 		.4byte	.LASF62
 3234 0505 01       		.byte	0x1
 3235 0506 FD03     		.2byte	0x3fd
 3236 0508 6B000000 		.4byte	0x6b
 3237 050c 00000000 		.4byte	.LFB8
 3238 0510 E0000000 		.4byte	.LFE8-.LFB8
 3239 0514 01       		.uleb128 0x1
 3240 0515 9C       		.byte	0x9c
 3241 0516 46050000 		.4byte	0x546
 3242 051a 11       		.uleb128 0x11
 3243 051b 657000   		.ascii	"ep\000"
 3244 051e 01       		.byte	0x1
 3245 051f FF03     		.2byte	0x3ff
 3246 0521 6B000000 		.4byte	0x6b
 3247 0525 02       		.uleb128 0x2
 3248 0526 91       		.byte	0x91
 3249 0527 76       		.sleb128 -10
 3250 0528 11       		.uleb128 0x11
 3251 0529 726900   		.ascii	"ri\000"
 3252 052c 01       		.byte	0x1
 3253 052d 0004     		.2byte	0x400
 3254 052f 6B000000 		.4byte	0x6b
 3255 0533 02       		.uleb128 0x2
 3256 0534 91       		.byte	0x91
ARM GAS  C:\Users\JOSANT~1\AppData\Local\Temp\cceoxjZy.s 			page 80


 3257 0535 75       		.sleb128 -11
 3258 0536 14       		.uleb128 0x14
 3259 0537 89040000 		.4byte	.LASF39
 3260 053b 01       		.byte	0x1
 3261 053c 0104     		.2byte	0x401
 3262 053e 6B000000 		.4byte	0x6b
 3263 0542 02       		.uleb128 0x2
 3264 0543 91       		.byte	0x91
 3265 0544 77       		.sleb128 -9
 3266 0545 00       		.byte	0
 3267 0546 17       		.uleb128 0x17
 3268 0547 D3000000 		.4byte	.LASF63
 3269 054b 01       		.byte	0x1
 3270 054c 3404     		.2byte	0x434
 3271 054e 6B000000 		.4byte	0x6b
 3272 0552 00000000 		.4byte	.LFB9
 3273 0556 44010000 		.4byte	.LFE9-.LFB9
 3274 055a 01       		.uleb128 0x1
 3275 055b 9C       		.byte	0x9c
 3276 055c 8C050000 		.4byte	0x58c
 3277 0560 11       		.uleb128 0x11
 3278 0561 657000   		.ascii	"ep\000"
 3279 0564 01       		.byte	0x1
 3280 0565 3604     		.2byte	0x436
 3281 0567 6B000000 		.4byte	0x6b
 3282 056b 02       		.uleb128 0x2
 3283 056c 91       		.byte	0x91
 3284 056d 76       		.sleb128 -10
 3285 056e 11       		.uleb128 0x11
 3286 056f 726900   		.ascii	"ri\000"
 3287 0572 01       		.byte	0x1
 3288 0573 3704     		.2byte	0x437
 3289 0575 6B000000 		.4byte	0x6b
 3290 0579 02       		.uleb128 0x2
 3291 057a 91       		.byte	0x91
 3292 057b 75       		.sleb128 -11
 3293 057c 14       		.uleb128 0x14
 3294 057d 89040000 		.4byte	.LASF39
 3295 0581 01       		.byte	0x1
 3296 0582 3804     		.2byte	0x438
 3297 0584 6B000000 		.4byte	0x6b
 3298 0588 02       		.uleb128 0x2
 3299 0589 91       		.byte	0x91
 3300 058a 77       		.sleb128 -9
 3301 058b 00       		.byte	0
 3302 058c 17       		.uleb128 0x17
 3303 058d 2B020000 		.4byte	.LASF64
 3304 0591 01       		.byte	0x1
 3305 0592 7B04     		.2byte	0x47b
 3306 0594 6B000000 		.4byte	0x6b
 3307 0598 00000000 		.4byte	.LFB10
 3308 059c 78000000 		.4byte	.LFE10-.LFB10
 3309 05a0 01       		.uleb128 0x1
 3310 05a1 9C       		.byte	0x9c
 3311 05a2 E3050000 		.4byte	0x5e3
 3312 05a6 14       		.uleb128 0x14
 3313 05a7 89040000 		.4byte	.LASF39
ARM GAS  C:\Users\JOSANT~1\AppData\Local\Temp\cceoxjZy.s 			page 81


 3314 05ab 01       		.byte	0x1
 3315 05ac 7D04     		.2byte	0x47d
 3316 05ae 6B000000 		.4byte	0x6b
 3317 05b2 02       		.uleb128 0x2
 3318 05b3 91       		.byte	0x91
 3319 05b4 77       		.sleb128 -9
 3320 05b5 14       		.uleb128 0x14
 3321 05b6 AF030000 		.4byte	.LASF65
 3322 05ba 01       		.byte	0x1
 3323 05bb 7E04     		.2byte	0x47e
 3324 05bd 6B000000 		.4byte	0x6b
 3325 05c1 02       		.uleb128 0x2
 3326 05c2 91       		.byte	0x91
 3327 05c3 76       		.sleb128 -10
 3328 05c4 14       		.uleb128 0x14
 3329 05c5 B2020000 		.4byte	.LASF46
 3330 05c9 01       		.byte	0x1
 3331 05ca 7F04     		.2byte	0x47f
 3332 05cc CC020000 		.4byte	0x2cc
 3333 05d0 02       		.uleb128 0x2
 3334 05d1 91       		.byte	0x91
 3335 05d2 70       		.sleb128 -16
 3336 05d3 14       		.uleb128 0x14
 3337 05d4 69030000 		.4byte	.LASF60
 3338 05d8 01       		.byte	0x1
 3339 05d9 8004     		.2byte	0x480
 3340 05db 6B000000 		.4byte	0x6b
 3341 05df 02       		.uleb128 0x2
 3342 05e0 91       		.byte	0x91
 3343 05e1 6F       		.sleb128 -17
 3344 05e2 00       		.byte	0
 3345 05e3 19       		.uleb128 0x19
 3346 05e4 56040000 		.4byte	.LASF66
 3347 05e8 03       		.byte	0x3
 3348 05e9 4A02     		.2byte	0x24a
 3349 05eb A1000000 		.4byte	0xa1
 3350 05ef 19       		.uleb128 0x19
 3351 05f0 73010000 		.4byte	.LASF67
 3352 05f4 03       		.byte	0x3
 3353 05f5 4C02     		.2byte	0x24c
 3354 05f7 A1000000 		.4byte	0xa1
 3355 05fb 19       		.uleb128 0x19
 3356 05fc 4A020000 		.4byte	.LASF68
 3357 0600 03       		.byte	0x3
 3358 0601 4D02     		.2byte	0x24d
 3359 0603 A1000000 		.4byte	0xa1
 3360 0607 19       		.uleb128 0x19
 3361 0608 BB040000 		.4byte	.LASF69
 3362 060c 03       		.byte	0x3
 3363 060d 4E02     		.2byte	0x24e
 3364 060f A1000000 		.4byte	0xa1
 3365 0613 0D       		.uleb128 0xd
 3366 0614 1F020000 		.4byte	0x21f
 3367 0618 23060000 		.4byte	0x623
 3368 061c 0E       		.uleb128 0xe
 3369 061d A6000000 		.4byte	0xa6
 3370 0621 00       		.byte	0
ARM GAS  C:\Users\JOSANT~1\AppData\Local\Temp\cceoxjZy.s 			page 82


 3371 0622 00       		.byte	0
 3372 0623 1A       		.uleb128 0x1a
 3373 0624 CF020000 		.4byte	.LASF70
 3374 0628 04       		.byte	0x4
 3375 0629 22       		.byte	0x22
 3376 062a 2E060000 		.4byte	0x62e
 3377 062e 0F       		.uleb128 0xf
 3378 062f 13060000 		.4byte	0x613
 3379 0633 0D       		.uleb128 0xd
 3380 0634 6B000000 		.4byte	0x6b
 3381 0638 44060000 		.4byte	0x644
 3382 063c 1B       		.uleb128 0x1b
 3383 063d A6000000 		.4byte	0xa6
 3384 0641 7201     		.2byte	0x172
 3385 0643 00       		.byte	0
 3386 0644 1A       		.uleb128 0x1a
 3387 0645 7A020000 		.4byte	.LASF71
 3388 0649 04       		.byte	0x4
 3389 064a 23       		.byte	0x23
 3390 064b 4F060000 		.4byte	0x64f
 3391 064f 0F       		.uleb128 0xf
 3392 0650 33060000 		.4byte	0x633
 3393 0654 1A       		.uleb128 0x1a
 3394 0655 EB000000 		.4byte	.LASF72
 3395 0659 04       		.byte	0x4
 3396 065a 2C       		.byte	0x2c
 3397 065b A1000000 		.4byte	0xa1
 3398 065f 1A       		.uleb128 0x1a
 3399 0660 2A040000 		.4byte	.LASF73
 3400 0664 04       		.byte	0x4
 3401 0665 2D       		.byte	0x2d
 3402 0666 6A060000 		.4byte	0x66a
 3403 066a 05       		.uleb128 0x5
 3404 066b B7020000 		.4byte	0x2b7
 3405 066f 1A       		.uleb128 0x1a
 3406 0670 CE040000 		.4byte	.LASF74
 3407 0674 04       		.byte	0x4
 3408 0675 2E       		.byte	0x2e
 3409 0676 7A060000 		.4byte	0x67a
 3410 067a 05       		.uleb128 0x5
 3411 067b B7020000 		.4byte	0x2b7
 3412 067f 1A       		.uleb128 0x1a
 3413 0680 BF000000 		.4byte	.LASF75
 3414 0684 04       		.byte	0x4
 3415 0685 2F       		.byte	0x2f
 3416 0686 A1000000 		.4byte	0xa1
 3417 068a 1A       		.uleb128 0x1a
 3418 068b 0A050000 		.4byte	.LASF76
 3419 068f 04       		.byte	0x4
 3420 0690 30       		.byte	0x30
 3421 0691 95060000 		.4byte	0x695
 3422 0695 05       		.uleb128 0x5
 3423 0696 B7020000 		.4byte	0x2b7
 3424 069a 1A       		.uleb128 0x1a
 3425 069b 65020000 		.4byte	.LASF77
 3426 069f 04       		.byte	0x4
 3427 06a0 31       		.byte	0x31
ARM GAS  C:\Users\JOSANT~1\AppData\Local\Temp\cceoxjZy.s 			page 83


 3428 06a1 A4030000 		.4byte	0x3a4
 3429 06a5 0D       		.uleb128 0xd
 3430 06a6 22010000 		.4byte	0x122
 3431 06aa B5060000 		.4byte	0x6b5
 3432 06ae 0E       		.uleb128 0xe
 3433 06af A6000000 		.4byte	0xa6
 3434 06b3 08       		.byte	0x8
 3435 06b4 00       		.byte	0
 3436 06b5 1A       		.uleb128 0x1a
 3437 06b6 DC030000 		.4byte	.LASF78
 3438 06ba 04       		.byte	0x4
 3439 06bb 33       		.byte	0x33
 3440 06bc C0060000 		.4byte	0x6c0
 3441 06c0 05       		.uleb128 0x5
 3442 06c1 A5060000 		.4byte	0x6a5
 3443 06c5 1A       		.uleb128 0x1a
 3444 06c6 2C000000 		.4byte	.LASF79
 3445 06ca 04       		.byte	0x4
 3446 06cb 34       		.byte	0x34
 3447 06cc D0060000 		.4byte	0x6d0
 3448 06d0 05       		.uleb128 0x5
 3449 06d1 EE010000 		.4byte	0x1ee
 3450 06d5 00       		.byte	0
 3451              		.section	.debug_abbrev,"",%progbits
 3452              	.Ldebug_abbrev0:
 3453 0000 01       		.uleb128 0x1
 3454 0001 11       		.uleb128 0x11
 3455 0002 01       		.byte	0x1
 3456 0003 25       		.uleb128 0x25
 3457 0004 0E       		.uleb128 0xe
 3458 0005 13       		.uleb128 0x13
 3459 0006 0B       		.uleb128 0xb
 3460 0007 03       		.uleb128 0x3
 3461 0008 0E       		.uleb128 0xe
 3462 0009 1B       		.uleb128 0x1b
 3463 000a 0E       		.uleb128 0xe
 3464 000b 55       		.uleb128 0x55
 3465 000c 17       		.uleb128 0x17
 3466 000d 11       		.uleb128 0x11
 3467 000e 01       		.uleb128 0x1
 3468 000f 10       		.uleb128 0x10
 3469 0010 17       		.uleb128 0x17
 3470 0011 00       		.byte	0
 3471 0012 00       		.byte	0
 3472 0013 02       		.uleb128 0x2
 3473 0014 24       		.uleb128 0x24
 3474 0015 00       		.byte	0
 3475 0016 0B       		.uleb128 0xb
 3476 0017 0B       		.uleb128 0xb
 3477 0018 3E       		.uleb128 0x3e
 3478 0019 0B       		.uleb128 0xb
 3479 001a 03       		.uleb128 0x3
 3480 001b 0E       		.uleb128 0xe
 3481 001c 00       		.byte	0
 3482 001d 00       		.byte	0
 3483 001e 03       		.uleb128 0x3
 3484 001f 24       		.uleb128 0x24
ARM GAS  C:\Users\JOSANT~1\AppData\Local\Temp\cceoxjZy.s 			page 84


 3485 0020 00       		.byte	0
 3486 0021 0B       		.uleb128 0xb
 3487 0022 0B       		.uleb128 0xb
 3488 0023 3E       		.uleb128 0x3e
 3489 0024 0B       		.uleb128 0xb
 3490 0025 03       		.uleb128 0x3
 3491 0026 08       		.uleb128 0x8
 3492 0027 00       		.byte	0
 3493 0028 00       		.byte	0
 3494 0029 04       		.uleb128 0x4
 3495 002a 16       		.uleb128 0x16
 3496 002b 00       		.byte	0
 3497 002c 03       		.uleb128 0x3
 3498 002d 0E       		.uleb128 0xe
 3499 002e 3A       		.uleb128 0x3a
 3500 002f 0B       		.uleb128 0xb
 3501 0030 3B       		.uleb128 0x3b
 3502 0031 0B       		.uleb128 0xb
 3503 0032 49       		.uleb128 0x49
 3504 0033 13       		.uleb128 0x13
 3505 0034 00       		.byte	0
 3506 0035 00       		.byte	0
 3507 0036 05       		.uleb128 0x5
 3508 0037 35       		.uleb128 0x35
 3509 0038 00       		.byte	0
 3510 0039 49       		.uleb128 0x49
 3511 003a 13       		.uleb128 0x13
 3512 003b 00       		.byte	0
 3513 003c 00       		.byte	0
 3514 003d 06       		.uleb128 0x6
 3515 003e 13       		.uleb128 0x13
 3516 003f 01       		.byte	0x1
 3517 0040 0B       		.uleb128 0xb
 3518 0041 0B       		.uleb128 0xb
 3519 0042 3A       		.uleb128 0x3a
 3520 0043 0B       		.uleb128 0xb
 3521 0044 3B       		.uleb128 0x3b
 3522 0045 0B       		.uleb128 0xb
 3523 0046 01       		.uleb128 0x1
 3524 0047 13       		.uleb128 0x13
 3525 0048 00       		.byte	0
 3526 0049 00       		.byte	0
 3527 004a 07       		.uleb128 0x7
 3528 004b 0D       		.uleb128 0xd
 3529 004c 00       		.byte	0
 3530 004d 03       		.uleb128 0x3
 3531 004e 0E       		.uleb128 0xe
 3532 004f 3A       		.uleb128 0x3a
 3533 0050 0B       		.uleb128 0xb
 3534 0051 3B       		.uleb128 0x3b
 3535 0052 0B       		.uleb128 0xb
 3536 0053 49       		.uleb128 0x49
 3537 0054 13       		.uleb128 0x13
 3538 0055 38       		.uleb128 0x38
 3539 0056 0B       		.uleb128 0xb
 3540 0057 00       		.byte	0
 3541 0058 00       		.byte	0
ARM GAS  C:\Users\JOSANT~1\AppData\Local\Temp\cceoxjZy.s 			page 85


 3542 0059 08       		.uleb128 0x8
 3543 005a 0F       		.uleb128 0xf
 3544 005b 00       		.byte	0
 3545 005c 0B       		.uleb128 0xb
 3546 005d 0B       		.uleb128 0xb
 3547 005e 49       		.uleb128 0x49
 3548 005f 13       		.uleb128 0x13
 3549 0060 00       		.byte	0
 3550 0061 00       		.byte	0
 3551 0062 09       		.uleb128 0x9
 3552 0063 0D       		.uleb128 0xd
 3553 0064 00       		.byte	0
 3554 0065 03       		.uleb128 0x3
 3555 0066 08       		.uleb128 0x8
 3556 0067 3A       		.uleb128 0x3a
 3557 0068 0B       		.uleb128 0xb
 3558 0069 3B       		.uleb128 0x3b
 3559 006a 0B       		.uleb128 0xb
 3560 006b 49       		.uleb128 0x49
 3561 006c 13       		.uleb128 0x13
 3562 006d 38       		.uleb128 0x38
 3563 006e 0B       		.uleb128 0xb
 3564 006f 00       		.byte	0
 3565 0070 00       		.byte	0
 3566 0071 0A       		.uleb128 0xa
 3567 0072 26       		.uleb128 0x26
 3568 0073 00       		.byte	0
 3569 0074 00       		.byte	0
 3570 0075 00       		.byte	0
 3571 0076 0B       		.uleb128 0xb
 3572 0077 2E       		.uleb128 0x2e
 3573 0078 01       		.byte	0x1
 3574 0079 3F       		.uleb128 0x3f
 3575 007a 19       		.uleb128 0x19
 3576 007b 03       		.uleb128 0x3
 3577 007c 0E       		.uleb128 0xe
 3578 007d 3A       		.uleb128 0x3a
 3579 007e 0B       		.uleb128 0xb
 3580 007f 3B       		.uleb128 0x3b
 3581 0080 0B       		.uleb128 0xb
 3582 0081 27       		.uleb128 0x27
 3583 0082 19       		.uleb128 0x19
 3584 0083 49       		.uleb128 0x49
 3585 0084 13       		.uleb128 0x13
 3586 0085 11       		.uleb128 0x11
 3587 0086 01       		.uleb128 0x1
 3588 0087 12       		.uleb128 0x12
 3589 0088 06       		.uleb128 0x6
 3590 0089 40       		.uleb128 0x40
 3591 008a 18       		.uleb128 0x18
 3592 008b 9642     		.uleb128 0x2116
 3593 008d 19       		.uleb128 0x19
 3594 008e 01       		.uleb128 0x1
 3595 008f 13       		.uleb128 0x13
 3596 0090 00       		.byte	0
 3597 0091 00       		.byte	0
 3598 0092 0C       		.uleb128 0xc
ARM GAS  C:\Users\JOSANT~1\AppData\Local\Temp\cceoxjZy.s 			page 86


 3599 0093 34       		.uleb128 0x34
 3600 0094 00       		.byte	0
 3601 0095 03       		.uleb128 0x3
 3602 0096 0E       		.uleb128 0xe
 3603 0097 3A       		.uleb128 0x3a
 3604 0098 0B       		.uleb128 0xb
 3605 0099 3B       		.uleb128 0x3b
 3606 009a 0B       		.uleb128 0xb
 3607 009b 49       		.uleb128 0x49
 3608 009c 13       		.uleb128 0x13
 3609 009d 02       		.uleb128 0x2
 3610 009e 18       		.uleb128 0x18
 3611 009f 00       		.byte	0
 3612 00a0 00       		.byte	0
 3613 00a1 0D       		.uleb128 0xd
 3614 00a2 01       		.uleb128 0x1
 3615 00a3 01       		.byte	0x1
 3616 00a4 49       		.uleb128 0x49
 3617 00a5 13       		.uleb128 0x13
 3618 00a6 01       		.uleb128 0x1
 3619 00a7 13       		.uleb128 0x13
 3620 00a8 00       		.byte	0
 3621 00a9 00       		.byte	0
 3622 00aa 0E       		.uleb128 0xe
 3623 00ab 21       		.uleb128 0x21
 3624 00ac 00       		.byte	0
 3625 00ad 49       		.uleb128 0x49
 3626 00ae 13       		.uleb128 0x13
 3627 00af 2F       		.uleb128 0x2f
 3628 00b0 0B       		.uleb128 0xb
 3629 00b1 00       		.byte	0
 3630 00b2 00       		.byte	0
 3631 00b3 0F       		.uleb128 0xf
 3632 00b4 26       		.uleb128 0x26
 3633 00b5 00       		.byte	0
 3634 00b6 49       		.uleb128 0x49
 3635 00b7 13       		.uleb128 0x13
 3636 00b8 00       		.byte	0
 3637 00b9 00       		.byte	0
 3638 00ba 10       		.uleb128 0x10
 3639 00bb 2E       		.uleb128 0x2e
 3640 00bc 01       		.byte	0x1
 3641 00bd 3F       		.uleb128 0x3f
 3642 00be 19       		.uleb128 0x19
 3643 00bf 03       		.uleb128 0x3
 3644 00c0 0E       		.uleb128 0xe
 3645 00c1 3A       		.uleb128 0x3a
 3646 00c2 0B       		.uleb128 0xb
 3647 00c3 3B       		.uleb128 0x3b
 3648 00c4 05       		.uleb128 0x5
 3649 00c5 27       		.uleb128 0x27
 3650 00c6 19       		.uleb128 0x19
 3651 00c7 11       		.uleb128 0x11
 3652 00c8 01       		.uleb128 0x1
 3653 00c9 12       		.uleb128 0x12
 3654 00ca 06       		.uleb128 0x6
 3655 00cb 40       		.uleb128 0x40
ARM GAS  C:\Users\JOSANT~1\AppData\Local\Temp\cceoxjZy.s 			page 87


 3656 00cc 18       		.uleb128 0x18
 3657 00cd 9742     		.uleb128 0x2117
 3658 00cf 19       		.uleb128 0x19
 3659 00d0 01       		.uleb128 0x1
 3660 00d1 13       		.uleb128 0x13
 3661 00d2 00       		.byte	0
 3662 00d3 00       		.byte	0
 3663 00d4 11       		.uleb128 0x11
 3664 00d5 34       		.uleb128 0x34
 3665 00d6 00       		.byte	0
 3666 00d7 03       		.uleb128 0x3
 3667 00d8 08       		.uleb128 0x8
 3668 00d9 3A       		.uleb128 0x3a
 3669 00da 0B       		.uleb128 0xb
 3670 00db 3B       		.uleb128 0x3b
 3671 00dc 05       		.uleb128 0x5
 3672 00dd 49       		.uleb128 0x49
 3673 00de 13       		.uleb128 0x13
 3674 00df 02       		.uleb128 0x2
 3675 00e0 18       		.uleb128 0x18
 3676 00e1 00       		.byte	0
 3677 00e2 00       		.byte	0
 3678 00e3 12       		.uleb128 0x12
 3679 00e4 2E       		.uleb128 0x2e
 3680 00e5 01       		.byte	0x1
 3681 00e6 3F       		.uleb128 0x3f
 3682 00e7 19       		.uleb128 0x19
 3683 00e8 03       		.uleb128 0x3
 3684 00e9 0E       		.uleb128 0xe
 3685 00ea 3A       		.uleb128 0x3a
 3686 00eb 0B       		.uleb128 0xb
 3687 00ec 3B       		.uleb128 0x3b
 3688 00ed 05       		.uleb128 0x5
 3689 00ee 27       		.uleb128 0x27
 3690 00ef 19       		.uleb128 0x19
 3691 00f0 11       		.uleb128 0x11
 3692 00f1 01       		.uleb128 0x1
 3693 00f2 12       		.uleb128 0x12
 3694 00f3 06       		.uleb128 0x6
 3695 00f4 40       		.uleb128 0x40
 3696 00f5 18       		.uleb128 0x18
 3697 00f6 9642     		.uleb128 0x2116
 3698 00f8 19       		.uleb128 0x19
 3699 00f9 01       		.uleb128 0x1
 3700 00fa 13       		.uleb128 0x13
 3701 00fb 00       		.byte	0
 3702 00fc 00       		.byte	0
 3703 00fd 13       		.uleb128 0x13
 3704 00fe 05       		.uleb128 0x5
 3705 00ff 00       		.byte	0
 3706 0100 03       		.uleb128 0x3
 3707 0101 0E       		.uleb128 0xe
 3708 0102 3A       		.uleb128 0x3a
 3709 0103 0B       		.uleb128 0xb
 3710 0104 3B       		.uleb128 0x3b
 3711 0105 05       		.uleb128 0x5
 3712 0106 49       		.uleb128 0x49
ARM GAS  C:\Users\JOSANT~1\AppData\Local\Temp\cceoxjZy.s 			page 88


 3713 0107 13       		.uleb128 0x13
 3714 0108 02       		.uleb128 0x2
 3715 0109 18       		.uleb128 0x18
 3716 010a 00       		.byte	0
 3717 010b 00       		.byte	0
 3718 010c 14       		.uleb128 0x14
 3719 010d 34       		.uleb128 0x34
 3720 010e 00       		.byte	0
 3721 010f 03       		.uleb128 0x3
 3722 0110 0E       		.uleb128 0xe
 3723 0111 3A       		.uleb128 0x3a
 3724 0112 0B       		.uleb128 0xb
 3725 0113 3B       		.uleb128 0x3b
 3726 0114 05       		.uleb128 0x5
 3727 0115 49       		.uleb128 0x49
 3728 0116 13       		.uleb128 0x13
 3729 0117 02       		.uleb128 0x2
 3730 0118 18       		.uleb128 0x18
 3731 0119 00       		.byte	0
 3732 011a 00       		.byte	0
 3733 011b 15       		.uleb128 0x15
 3734 011c 2E       		.uleb128 0x2e
 3735 011d 01       		.byte	0x1
 3736 011e 3F       		.uleb128 0x3f
 3737 011f 19       		.uleb128 0x19
 3738 0120 03       		.uleb128 0x3
 3739 0121 0E       		.uleb128 0xe
 3740 0122 3A       		.uleb128 0x3a
 3741 0123 0B       		.uleb128 0xb
 3742 0124 3B       		.uleb128 0x3b
 3743 0125 05       		.uleb128 0x5
 3744 0126 27       		.uleb128 0x27
 3745 0127 19       		.uleb128 0x19
 3746 0128 49       		.uleb128 0x49
 3747 0129 13       		.uleb128 0x13
 3748 012a 11       		.uleb128 0x11
 3749 012b 01       		.uleb128 0x1
 3750 012c 12       		.uleb128 0x12
 3751 012d 06       		.uleb128 0x6
 3752 012e 40       		.uleb128 0x40
 3753 012f 18       		.uleb128 0x18
 3754 0130 9742     		.uleb128 0x2117
 3755 0132 19       		.uleb128 0x19
 3756 0133 01       		.uleb128 0x1
 3757 0134 13       		.uleb128 0x13
 3758 0135 00       		.byte	0
 3759 0136 00       		.byte	0
 3760 0137 16       		.uleb128 0x16
 3761 0138 2E       		.uleb128 0x2e
 3762 0139 00       		.byte	0
 3763 013a 3F       		.uleb128 0x3f
 3764 013b 19       		.uleb128 0x19
 3765 013c 03       		.uleb128 0x3
 3766 013d 0E       		.uleb128 0xe
 3767 013e 3A       		.uleb128 0x3a
 3768 013f 0B       		.uleb128 0xb
 3769 0140 3B       		.uleb128 0x3b
ARM GAS  C:\Users\JOSANT~1\AppData\Local\Temp\cceoxjZy.s 			page 89


 3770 0141 05       		.uleb128 0x5
 3771 0142 27       		.uleb128 0x27
 3772 0143 19       		.uleb128 0x19
 3773 0144 49       		.uleb128 0x49
 3774 0145 13       		.uleb128 0x13
 3775 0146 11       		.uleb128 0x11
 3776 0147 01       		.uleb128 0x1
 3777 0148 12       		.uleb128 0x12
 3778 0149 06       		.uleb128 0x6
 3779 014a 40       		.uleb128 0x40
 3780 014b 18       		.uleb128 0x18
 3781 014c 9742     		.uleb128 0x2117
 3782 014e 19       		.uleb128 0x19
 3783 014f 00       		.byte	0
 3784 0150 00       		.byte	0
 3785 0151 17       		.uleb128 0x17
 3786 0152 2E       		.uleb128 0x2e
 3787 0153 01       		.byte	0x1
 3788 0154 3F       		.uleb128 0x3f
 3789 0155 19       		.uleb128 0x19
 3790 0156 03       		.uleb128 0x3
 3791 0157 0E       		.uleb128 0xe
 3792 0158 3A       		.uleb128 0x3a
 3793 0159 0B       		.uleb128 0xb
 3794 015a 3B       		.uleb128 0x3b
 3795 015b 05       		.uleb128 0x5
 3796 015c 27       		.uleb128 0x27
 3797 015d 19       		.uleb128 0x19
 3798 015e 49       		.uleb128 0x49
 3799 015f 13       		.uleb128 0x13
 3800 0160 11       		.uleb128 0x11
 3801 0161 01       		.uleb128 0x1
 3802 0162 12       		.uleb128 0x12
 3803 0163 06       		.uleb128 0x6
 3804 0164 40       		.uleb128 0x40
 3805 0165 18       		.uleb128 0x18
 3806 0166 9642     		.uleb128 0x2116
 3807 0168 19       		.uleb128 0x19
 3808 0169 01       		.uleb128 0x1
 3809 016a 13       		.uleb128 0x13
 3810 016b 00       		.byte	0
 3811 016c 00       		.byte	0
 3812 016d 18       		.uleb128 0x18
 3813 016e 05       		.uleb128 0x5
 3814 016f 00       		.byte	0
 3815 0170 03       		.uleb128 0x3
 3816 0171 08       		.uleb128 0x8
 3817 0172 3A       		.uleb128 0x3a
 3818 0173 0B       		.uleb128 0xb
 3819 0174 3B       		.uleb128 0x3b
 3820 0175 05       		.uleb128 0x5
 3821 0176 49       		.uleb128 0x49
 3822 0177 13       		.uleb128 0x13
 3823 0178 02       		.uleb128 0x2
 3824 0179 18       		.uleb128 0x18
 3825 017a 00       		.byte	0
 3826 017b 00       		.byte	0
ARM GAS  C:\Users\JOSANT~1\AppData\Local\Temp\cceoxjZy.s 			page 90


 3827 017c 19       		.uleb128 0x19
 3828 017d 34       		.uleb128 0x34
 3829 017e 00       		.byte	0
 3830 017f 03       		.uleb128 0x3
 3831 0180 0E       		.uleb128 0xe
 3832 0181 3A       		.uleb128 0x3a
 3833 0182 0B       		.uleb128 0xb
 3834 0183 3B       		.uleb128 0x3b
 3835 0184 05       		.uleb128 0x5
 3836 0185 49       		.uleb128 0x49
 3837 0186 13       		.uleb128 0x13
 3838 0187 3F       		.uleb128 0x3f
 3839 0188 19       		.uleb128 0x19
 3840 0189 3C       		.uleb128 0x3c
 3841 018a 19       		.uleb128 0x19
 3842 018b 00       		.byte	0
 3843 018c 00       		.byte	0
 3844 018d 1A       		.uleb128 0x1a
 3845 018e 34       		.uleb128 0x34
 3846 018f 00       		.byte	0
 3847 0190 03       		.uleb128 0x3
 3848 0191 0E       		.uleb128 0xe
 3849 0192 3A       		.uleb128 0x3a
 3850 0193 0B       		.uleb128 0xb
 3851 0194 3B       		.uleb128 0x3b
 3852 0195 0B       		.uleb128 0xb
 3853 0196 49       		.uleb128 0x49
 3854 0197 13       		.uleb128 0x13
 3855 0198 3F       		.uleb128 0x3f
 3856 0199 19       		.uleb128 0x19
 3857 019a 3C       		.uleb128 0x3c
 3858 019b 19       		.uleb128 0x19
 3859 019c 00       		.byte	0
 3860 019d 00       		.byte	0
 3861 019e 1B       		.uleb128 0x1b
 3862 019f 21       		.uleb128 0x21
 3863 01a0 00       		.byte	0
 3864 01a1 49       		.uleb128 0x49
 3865 01a2 13       		.uleb128 0x13
 3866 01a3 2F       		.uleb128 0x2f
 3867 01a4 05       		.uleb128 0x5
 3868 01a5 00       		.byte	0
 3869 01a6 00       		.byte	0
 3870 01a7 00       		.byte	0
 3871              		.section	.debug_aranges,"",%progbits
 3872 0000 6C000000 		.4byte	0x6c
 3873 0004 0200     		.2byte	0x2
 3874 0006 00000000 		.4byte	.Ldebug_info0
 3875 000a 04       		.byte	0x4
 3876 000b 00       		.byte	0
 3877 000c 0000     		.2byte	0
 3878 000e 0000     		.2byte	0
 3879 0010 00000000 		.4byte	.LFB0
 3880 0014 6C040000 		.4byte	.LFE0-.LFB0
 3881 0018 00000000 		.4byte	.LFB1
 3882 001c 8C010000 		.4byte	.LFE1-.LFB1
 3883 0020 00000000 		.4byte	.LFB2
ARM GAS  C:\Users\JOSANT~1\AppData\Local\Temp\cceoxjZy.s 			page 91


 3884 0024 08030000 		.4byte	.LFE2-.LFB2
 3885 0028 00000000 		.4byte	.LFB3
 3886 002c 7C020000 		.4byte	.LFE3-.LFB3
 3887 0030 00000000 		.4byte	.LFB4
 3888 0034 54000000 		.4byte	.LFE4-.LFB4
 3889 0038 00000000 		.4byte	.LFB5
 3890 003c 24000000 		.4byte	.LFE5-.LFB5
 3891 0040 00000000 		.4byte	.LFB6
 3892 0044 4C000000 		.4byte	.LFE6-.LFB6
 3893 0048 00000000 		.4byte	.LFB7
 3894 004c B8000000 		.4byte	.LFE7-.LFB7
 3895 0050 00000000 		.4byte	.LFB8
 3896 0054 E0000000 		.4byte	.LFE8-.LFB8
 3897 0058 00000000 		.4byte	.LFB9
 3898 005c 44010000 		.4byte	.LFE9-.LFB9
 3899 0060 00000000 		.4byte	.LFB10
 3900 0064 78000000 		.4byte	.LFE10-.LFB10
 3901 0068 00000000 		.4byte	0
 3902 006c 00000000 		.4byte	0
 3903              		.section	.debug_ranges,"",%progbits
 3904              	.Ldebug_ranges0:
 3905 0000 00000000 		.4byte	.LFB0
 3906 0004 6C040000 		.4byte	.LFE0
 3907 0008 00000000 		.4byte	.LFB1
 3908 000c 8C010000 		.4byte	.LFE1
 3909 0010 00000000 		.4byte	.LFB2
 3910 0014 08030000 		.4byte	.LFE2
 3911 0018 00000000 		.4byte	.LFB3
 3912 001c 7C020000 		.4byte	.LFE3
 3913 0020 00000000 		.4byte	.LFB4
 3914 0024 54000000 		.4byte	.LFE4
 3915 0028 00000000 		.4byte	.LFB5
 3916 002c 24000000 		.4byte	.LFE5
 3917 0030 00000000 		.4byte	.LFB6
 3918 0034 4C000000 		.4byte	.LFE6
 3919 0038 00000000 		.4byte	.LFB7
 3920 003c B8000000 		.4byte	.LFE7
 3921 0040 00000000 		.4byte	.LFB8
 3922 0044 E0000000 		.4byte	.LFE8
 3923 0048 00000000 		.4byte	.LFB9
 3924 004c 44010000 		.4byte	.LFE9
 3925 0050 00000000 		.4byte	.LFB10
 3926 0054 78000000 		.4byte	.LFE10
 3927 0058 00000000 		.4byte	0
 3928 005c 00000000 		.4byte	0
 3929              		.section	.debug_line,"",%progbits
 3930              	.Ldebug_line0:
 3931 0000 C5030000 		.section	.debug_str,"MS",%progbits,1
 3931      02006000 
 3931      00000201 
 3931      FB0E0D00 
 3931      01010101 
 3932              	.LASF35:
 3933 0000 70537461 		.ascii	"pStatusBlock\000"
 3933      74757342 
 3933      6C6F636B 
 3933      00
ARM GAS  C:\Users\JOSANT~1\AppData\Local\Temp\cceoxjZy.s 			page 92


 3934              	.LASF33:
 3935 000d 636F756E 		.ascii	"count\000"
 3935      7400
 3936              	.LASF10:
 3937 0013 75696E74 		.ascii	"uint16\000"
 3937      313600
 3938              	.LASF61:
 3939 001a 55534246 		.ascii	"USBFS_TerminateEP\000"
 3939      535F5465 
 3939      726D696E 
 3939      61746545 
 3939      5000
 3940              	.LASF79:
 3941 002c 55534246 		.ascii	"USBFS_currentTD\000"
 3941      535F6375 
 3941      7272656E 
 3941      74544400 
 3942              	.LASF57:
 3943 003c 636F6E66 		.ascii	"confIndex\000"
 3943      496E6465 
 3943      7800
 3944              	.LASF7:
 3945 0046 6C6F6E67 		.ascii	"long long unsigned int\000"
 3945      206C6F6E 
 3945      6720756E 
 3945      7369676E 
 3945      65642069 
 3946              	.LASF20:
 3947 005d 61646472 		.ascii	"addr\000"
 3947      00
 3948              	.LASF40:
 3949 0062 696E7465 		.ascii	"interfaceNumber\000"
 3949      72666163 
 3949      654E756D 
 3949      62657200 
 3950              	.LASF82:
 3951 0072 433A5C53 		.ascii	"C:\\SoundSystem.cydsn\000"
 3951      6F756E64 
 3951      53797374 
 3951      656D2E63 
 3951      7964736E 
 3952              	.LASF45:
 3953 0087 55534246 		.ascii	"USBFS_tBuffer\000"
 3953      535F7442 
 3953      75666665 
 3953      7200
 3954              	.LASF6:
 3955 0095 6C6F6E67 		.ascii	"long long int\000"
 3955      206C6F6E 
 3955      6720696E 
 3955      7400
 3956              	.LASF0:
 3957 00a3 7369676E 		.ascii	"signed char\000"
 3957      65642063 
 3957      68617200 
 3958              	.LASF56:
 3959 00af 636C6561 		.ascii	"clearAltSetting\000"
ARM GAS  C:\Users\JOSANT~1\AppData\Local\Temp\cceoxjZy.s 			page 93


 3959      72416C74 
 3959      53657474 
 3959      696E6700 
 3960              	.LASF75:
 3961 00bf 55534246 		.ascii	"USBFS_deviceAddress\000"
 3961      535F6465 
 3961      76696365 
 3961      41646472 
 3961      65737300 
 3962              	.LASF63:
 3963 00d3 55534246 		.ascii	"USBFS_ClearEndpointHalt\000"
 3963      535F436C 
 3963      65617245 
 3963      6E64706F 
 3963      696E7448 
 3964              	.LASF72:
 3965 00eb 55534246 		.ascii	"USBFS_interfaceNumber\000"
 3965      535F696E 
 3965      74657266 
 3965      6163654E 
 3965      756D6265 
 3966              	.LASF48:
 3967 0101 55534246 		.ascii	"USBFS_Config\000"
 3967      535F436F 
 3967      6E666967 
 3967      00
 3968              	.LASF47:
 3969 010e 55534246 		.ascii	"USBFS_ConfigReg\000"
 3969      535F436F 
 3969      6E666967 
 3969      52656700 
 3970              	.LASF4:
 3971 011e 6C6F6E67 		.ascii	"long int\000"
 3971      20696E74 
 3971      00
 3972              	.LASF9:
 3973 0127 75696E74 		.ascii	"uint8\000"
 3973      3800
 3974              	.LASF19:
 3975 012d 6570546F 		.ascii	"epToggle\000"
 3975      67676C65 
 3975      00
 3976              	.LASF12:
 3977 0136 646F7562 		.ascii	"double\000"
 3977      6C6500
 3978              	.LASF29:
 3979 013d 545F5553 		.ascii	"T_USBFS_EP_SETTINGS_BLOCK\000"
 3979      4246535F 
 3979      45505F53 
 3979      45545449 
 3979      4E47535F 
 3980              	.LASF62:
 3981 0157 55534246 		.ascii	"USBFS_SetEndpointHalt\000"
 3981      535F5365 
 3981      74456E64 
 3981      706F696E 
 3981      7448616C 
ARM GAS  C:\Users\JOSANT~1\AppData\Local\Temp\cceoxjZy.s 			page 94


 3982              	.LASF34:
 3983 016d 70446174 		.ascii	"pData\000"
 3983      6100
 3984              	.LASF67:
 3985 0173 55534246 		.ascii	"USBFS_configuration\000"
 3985      535F636F 
 3985      6E666967 
 3985      75726174 
 3985      696F6E00 
 3986              	.LASF21:
 3987 0187 65704D6F 		.ascii	"epMode\000"
 3987      646500
 3988              	.LASF50:
 3989 018e 65705479 		.ascii	"epType\000"
 3989      706500
 3990              	.LASF8:
 3991 0195 756E7369 		.ascii	"unsigned int\000"
 3991      676E6564 
 3991      20696E74 
 3991      00
 3992              	.LASF5:
 3993 01a2 6C6F6E67 		.ascii	"long unsigned int\000"
 3993      20756E73 
 3993      69676E65 
 3993      6420696E 
 3993      7400
 3994              	.LASF58:
 3995 01b4 55534246 		.ascii	"USBFS_GetInterfaceClassTablePtr\000"
 3995      535F4765 
 3995      74496E74 
 3995      65726661 
 3995      6365436C 
 3996              	.LASF81:
 3997 01d4 47656E65 		.ascii	"Generated_Source\\PSoC5\\USBFS_std.c\000"
 3997      72617465 
 3997      645F536F 
 3997      75726365 
 3997      5C50536F 
 3998              	.LASF3:
 3999 01f7 73686F72 		.ascii	"short unsigned int\000"
 3999      7420756E 
 3999      7369676E 
 3999      65642069 
 3999      6E7400
 4000              	.LASF51:
 4001 020a 70446573 		.ascii	"pDescr\000"
 4001      637200
 4002              	.LASF59:
 4003 0211 70496E74 		.ascii	"pInterfaceClass\000"
 4003      65726661 
 4003      6365436C 
 4003      61737300 
 4004              	.LASF24:
 4005 0221 696E7465 		.ascii	"interface\000"
 4005      72666163 
 4005      6500
 4006              	.LASF64:
ARM GAS  C:\Users\JOSANT~1\AppData\Local\Temp\cceoxjZy.s 			page 95


 4007 022b 55534246 		.ascii	"USBFS_ValidateAlternateSetting\000"
 4007      535F5661 
 4007      6C696461 
 4007      7465416C 
 4007      7465726E 
 4008              	.LASF68:
 4009 024a 55534246 		.ascii	"USBFS_configurationChanged\000"
 4009      535F636F 
 4009      6E666967 
 4009      75726174 
 4009      696F6E43 
 4010              	.LASF77:
 4011 0265 55534246 		.ascii	"USBFS_interfaceClass\000"
 4011      535F696E 
 4011      74657266 
 4011      61636543 
 4011      6C617373 
 4012              	.LASF71:
 4013 027a 55534246 		.ascii	"USBFS_STRING_DESCRIPTORS\000"
 4013      535F5354 
 4013      52494E47 
 4013      5F444553 
 4013      43524950 
 4014              	.LASF18:
 4015 0293 68774570 		.ascii	"hwEpState\000"
 4015      53746174 
 4015      6500
 4016              	.LASF44:
 4017 029d 64657363 		.ascii	"descrLength\000"
 4017      724C656E 
 4017      67746800 
 4018              	.LASF15:
 4019 02a9 73697A65 		.ascii	"sizetype\000"
 4019      74797065 
 4019      00
 4020              	.LASF46:
 4021 02b2 70546D70 		.ascii	"pTmp\000"
 4021      00
 4022              	.LASF37:
 4023 02b7 705F6C69 		.ascii	"p_list\000"
 4023      737400
 4024              	.LASF52:
 4025 02be 62756666 		.ascii	"buffCount\000"
 4025      436F756E 
 4025      7400
 4026              	.LASF16:
 4027 02c8 61747472 		.ascii	"attrib\000"
 4027      696200
 4028              	.LASF70:
 4029 02cf 55534246 		.ascii	"USBFS_TABLE\000"
 4029      535F5441 
 4029      424C4500 
 4030              	.LASF80:
 4031 02db 474E5520 		.ascii	"GNU C 4.9.3 20150303 (release) [ARM/embedded-4_9-br"
 4031      4320342E 
 4031      392E3320 
 4031      32303135 
ARM GAS  C:\Users\JOSANT~1\AppData\Local\Temp\cceoxjZy.s 			page 96


 4031      30333033 
 4032 030e 616E6368 		.ascii	"anch revision 221220] -mcpu=cortex-m3 -mthumb -g -O"
 4032      20726576 
 4032      6973696F 
 4032      6E203232 
 4032      31323230 
 4033 0341 30202D66 		.ascii	"0 -ffunction-sections -ffat-lto-objects\000"
 4033      66756E63 
 4033      74696F6E 
 4033      2D736563 
 4033      74696F6E 
 4034              	.LASF60:
 4035 0369 63757272 		.ascii	"currentInterfacesNum\000"
 4035      656E7449 
 4035      6E746572 
 4035      66616365 
 4035      734E756D 
 4036              	.LASF53:
 4037 037e 55534246 		.ascii	"USBFS_ConfigAltChanged\000"
 4037      535F436F 
 4037      6E666967 
 4037      416C7443 
 4037      68616E67 
 4038              	.LASF32:
 4039 0395 545F5553 		.ascii	"T_USBFS_XFER_STATUS_BLOCK\000"
 4039      4246535F 
 4039      58464552 
 4039      5F535441 
 4039      5455535F 
 4040              	.LASF65:
 4041 03af 696E7465 		.ascii	"interfaceNum\000"
 4041      72666163 
 4041      654E756D 
 4041      00
 4042              	.LASF11:
 4043 03bc 666C6F61 		.ascii	"float\000"
 4043      7400
 4044              	.LASF17:
 4045 03c2 61706945 		.ascii	"apiEpState\000"
 4045      70537461 
 4045      746500
 4046              	.LASF41:
 4047 03cd 636F6E66 		.ascii	"configurationN\000"
 4047      69677572 
 4047      6174696F 
 4047      6E4E00
 4048              	.LASF78:
 4049 03dc 55534246 		.ascii	"USBFS_EP\000"
 4049      535F4550 
 4049      00
 4050              	.LASF42:
 4051 03e5 70537472 		.ascii	"pStr\000"
 4051      00
 4052              	.LASF14:
 4053 03ea 72656738 		.ascii	"reg8\000"
 4053      00
 4054              	.LASF1:
ARM GAS  C:\Users\JOSANT~1\AppData\Local\Temp\cceoxjZy.s 			page 97


 4055 03ef 756E7369 		.ascii	"unsigned char\000"
 4055      676E6564 
 4055      20636861 
 4055      7200
 4056              	.LASF2:
 4057 03fd 73686F72 		.ascii	"short int\000"
 4057      7420696E 
 4057      7400
 4058              	.LASF36:
 4059 0407 545F5553 		.ascii	"T_USBFS_TD\000"
 4059      4246535F 
 4059      544400
 4060              	.LASF55:
 4061 0412 55534246 		.ascii	"USBFS_GetConfigTablePtr\000"
 4061      535F4765 
 4061      74436F6E 
 4061      66696754 
 4061      61626C65 
 4062              	.LASF73:
 4063 042a 55534246 		.ascii	"USBFS_interfaceSetting\000"
 4063      535F696E 
 4063      74657266 
 4063      61636553 
 4063      65747469 
 4064              	.LASF25:
 4065 0441 545F5553 		.ascii	"T_USBFS_EP_CTL_BLOCK\000"
 4065      4246535F 
 4065      45505F43 
 4065      544C5F42 
 4065      4C4F434B 
 4066              	.LASF66:
 4067 0456 55534246 		.ascii	"USBFS_device\000"
 4067      535F6465 
 4067      76696365 
 4067      00
 4068              	.LASF27:
 4069 0463 61747472 		.ascii	"attributes\000"
 4069      69627574 
 4069      657300
 4070              	.LASF26:
 4071 046e 616C7453 		.ascii	"altSetting\000"
 4071      65747469 
 4071      6E6700
 4072              	.LASF13:
 4073 0479 63686172 		.ascii	"char\000"
 4073      00
 4074              	.LASF23:
 4075 047e 62756666 		.ascii	"bufferSize\000"
 4075      65725369 
 4075      7A6500
 4076              	.LASF39:
 4077 0489 72657175 		.ascii	"requestHandled\000"
 4077      65737448 
 4077      616E646C 
 4077      656400
 4078              	.LASF22:
 4079 0498 62756666 		.ascii	"buffOffset\000"
ARM GAS  C:\Users\JOSANT~1\AppData\Local\Temp\cceoxjZy.s 			page 98


 4079      4F666673 
 4079      657400
 4080              	.LASF83:
 4081 04a3 55534246 		.ascii	"USBFS_GetDeviceTablePtr\000"
 4081      535F4765 
 4081      74446576 
 4081      69636554 
 4081      61626C65 
 4082              	.LASF69:
 4083 04bb 55534246 		.ascii	"USBFS_deviceStatus\000"
 4083      535F6465 
 4083      76696365 
 4083      53746174 
 4083      757300
 4084              	.LASF74:
 4085 04ce 55534246 		.ascii	"USBFS_interfaceSetting_last\000"
 4085      535F696E 
 4085      74657266 
 4085      61636553 
 4085      65747469 
 4086              	.LASF31:
 4087 04ea 6C656E67 		.ascii	"length\000"
 4087      746800
 4088              	.LASF43:
 4089 04f1 6E537472 		.ascii	"nStr\000"
 4089      00
 4090              	.LASF49:
 4091 04f6 6375725F 		.ascii	"cur_ep\000"
 4091      657000
 4092              	.LASF30:
 4093 04fd 73746174 		.ascii	"status\000"
 4093      757300
 4094              	.LASF28:
 4095 0504 624D6973 		.ascii	"bMisc\000"
 4095      6300
 4096              	.LASF76:
 4097 050a 55534246 		.ascii	"USBFS_interfaceStatus\000"
 4097      535F696E 
 4097      74657266 
 4097      61636553 
 4097      74617475 
 4098              	.LASF54:
 4099 0520 55534246 		.ascii	"USBFS_HandleStandardRqst\000"
 4099      535F4861 
 4099      6E646C65 
 4099      5374616E 
 4099      64617264 
 4100              	.LASF38:
 4101 0539 545F5553 		.ascii	"T_USBFS_LUT\000"
 4101      4246535F 
 4101      4C555400 
 4102              		.ident	"GCC: (GNU Tools for ARM Embedded Processors) 4.9.3 20150303 (release) [ARM/embedded-4_9-br
