ARM GAS  C:\Users\JOSANT~1\AppData\Local\Temp\cck6n6yz.s 			page 1


   1              		.syntax unified
   2              		.cpu cortex-m3
   3              		.fpu softvfp
   4              		.eabi_attribute 20, 1
   5              		.eabi_attribute 21, 1
   6              		.eabi_attribute 23, 3
   7              		.eabi_attribute 24, 1
   8              		.eabi_attribute 25, 1
   9              		.eabi_attribute 26, 1
  10              		.eabi_attribute 30, 6
  11              		.eabi_attribute 34, 1
  12              		.eabi_attribute 18, 4
  13              		.thumb
  14              		.file	"cyfitter_cfg.c"
  15              		.text
  16              	.Ltext0:
  17              		.cfi_sections	.debug_frame
  18              		.section	.text.CYMEMZERO,"ax",%progbits
  19              		.align	2
  20              		.thumb
  21              		.thumb_func
  22              		.type	CYMEMZERO, %function
  23              	CYMEMZERO:
  24              	.LFB0:
  25              		.file 1 "Generated_Source\\PSoC5\\cyfitter_cfg.c"
   1:Generated_Source\PSoC5/cyfitter_cfg.c **** /*******************************************************************************
   2:Generated_Source\PSoC5/cyfitter_cfg.c **** * File Name: cyfitter_cfg.c
   3:Generated_Source\PSoC5/cyfitter_cfg.c **** * 
   4:Generated_Source\PSoC5/cyfitter_cfg.c **** * PSoC Creator  4.0 Update 1
   5:Generated_Source\PSoC5/cyfitter_cfg.c **** *
   6:Generated_Source\PSoC5/cyfitter_cfg.c **** * Description:
   7:Generated_Source\PSoC5/cyfitter_cfg.c **** * This file contains device initialization code.
   8:Generated_Source\PSoC5/cyfitter_cfg.c **** * Except for the user defined sections in CyClockStartupError(), this file should not be modified.
   9:Generated_Source\PSoC5/cyfitter_cfg.c **** * This file is automatically generated by PSoC Creator.
  10:Generated_Source\PSoC5/cyfitter_cfg.c **** *
  11:Generated_Source\PSoC5/cyfitter_cfg.c **** ********************************************************************************
  12:Generated_Source\PSoC5/cyfitter_cfg.c **** * Copyright (c) 2007-2016 Cypress Semiconductor.  All rights reserved.
  13:Generated_Source\PSoC5/cyfitter_cfg.c **** * You may use this file only in accordance with the license, terms, conditions, 
  14:Generated_Source\PSoC5/cyfitter_cfg.c **** * disclaimers, and limitations in the end user license agreement accompanying 
  15:Generated_Source\PSoC5/cyfitter_cfg.c **** * the software package with which this file was provided.
  16:Generated_Source\PSoC5/cyfitter_cfg.c **** ********************************************************************************/
  17:Generated_Source\PSoC5/cyfitter_cfg.c **** 
  18:Generated_Source\PSoC5/cyfitter_cfg.c **** #include <string.h>
  19:Generated_Source\PSoC5/cyfitter_cfg.c **** #include "cytypes.h"
  20:Generated_Source\PSoC5/cyfitter_cfg.c **** #include "cydevice_trm.h"
  21:Generated_Source\PSoC5/cyfitter_cfg.c **** #include "cyfitter.h"
  22:Generated_Source\PSoC5/cyfitter_cfg.c **** #include "CyLib.h"
  23:Generated_Source\PSoC5/cyfitter_cfg.c **** #include "cyfitter_cfg.h"
  24:Generated_Source\PSoC5/cyfitter_cfg.c **** 
  25:Generated_Source\PSoC5/cyfitter_cfg.c **** #define CY_NEED_CYCLOCKSTARTUPERROR 1
  26:Generated_Source\PSoC5/cyfitter_cfg.c **** 
  27:Generated_Source\PSoC5/cyfitter_cfg.c **** 
  28:Generated_Source\PSoC5/cyfitter_cfg.c **** #if defined(__GNUC__) || defined(__ARMCC_VERSION)
  29:Generated_Source\PSoC5/cyfitter_cfg.c ****     #define CYPACKED 
  30:Generated_Source\PSoC5/cyfitter_cfg.c ****     #define CYPACKED_ATTR __attribute__ ((packed))
  31:Generated_Source\PSoC5/cyfitter_cfg.c ****     #define CYALIGNED __attribute__ ((aligned))
  32:Generated_Source\PSoC5/cyfitter_cfg.c ****     #define CY_CFG_UNUSED __attribute__ ((unused))
ARM GAS  C:\Users\JOSANT~1\AppData\Local\Temp\cck6n6yz.s 			page 2


  33:Generated_Source\PSoC5/cyfitter_cfg.c ****     #ifndef CY_CFG_SECTION
  34:Generated_Source\PSoC5/cyfitter_cfg.c ****         #define CY_CFG_SECTION __attribute__ ((section(".psocinit")))
  35:Generated_Source\PSoC5/cyfitter_cfg.c ****     #endif
  36:Generated_Source\PSoC5/cyfitter_cfg.c ****     
  37:Generated_Source\PSoC5/cyfitter_cfg.c ****     #if defined(__ARMCC_VERSION)
  38:Generated_Source\PSoC5/cyfitter_cfg.c ****         #define CY_CFG_MEMORY_BARRIER() __memory_changed()
  39:Generated_Source\PSoC5/cyfitter_cfg.c ****     #else
  40:Generated_Source\PSoC5/cyfitter_cfg.c ****         #define CY_CFG_MEMORY_BARRIER() __sync_synchronize()
  41:Generated_Source\PSoC5/cyfitter_cfg.c ****     #endif
  42:Generated_Source\PSoC5/cyfitter_cfg.c ****     
  43:Generated_Source\PSoC5/cyfitter_cfg.c **** #elif defined(__ICCARM__)
  44:Generated_Source\PSoC5/cyfitter_cfg.c ****     #include <intrinsics.h>
  45:Generated_Source\PSoC5/cyfitter_cfg.c **** 
  46:Generated_Source\PSoC5/cyfitter_cfg.c ****     #define CYPACKED __packed
  47:Generated_Source\PSoC5/cyfitter_cfg.c ****     #define CYPACKED_ATTR 
  48:Generated_Source\PSoC5/cyfitter_cfg.c ****     #define CYALIGNED _Pragma("data_alignment=4")
  49:Generated_Source\PSoC5/cyfitter_cfg.c ****     #define CY_CFG_UNUSED _Pragma("diag_suppress=Pe177")
  50:Generated_Source\PSoC5/cyfitter_cfg.c ****     #define CY_CFG_SECTION _Pragma("location=\".psocinit\"")
  51:Generated_Source\PSoC5/cyfitter_cfg.c ****     
  52:Generated_Source\PSoC5/cyfitter_cfg.c ****     #define CY_CFG_MEMORY_BARRIER() __DMB()
  53:Generated_Source\PSoC5/cyfitter_cfg.c ****     
  54:Generated_Source\PSoC5/cyfitter_cfg.c **** #else
  55:Generated_Source\PSoC5/cyfitter_cfg.c ****     #error Unsupported toolchain
  56:Generated_Source\PSoC5/cyfitter_cfg.c **** #endif
  57:Generated_Source\PSoC5/cyfitter_cfg.c **** 
  58:Generated_Source\PSoC5/cyfitter_cfg.c **** 
  59:Generated_Source\PSoC5/cyfitter_cfg.c **** CY_CFG_UNUSED
  60:Generated_Source\PSoC5/cyfitter_cfg.c **** static void CYMEMZERO(void *s, size_t n);
  61:Generated_Source\PSoC5/cyfitter_cfg.c **** CY_CFG_UNUSED
  62:Generated_Source\PSoC5/cyfitter_cfg.c **** static void CYMEMZERO(void *s, size_t n)
  63:Generated_Source\PSoC5/cyfitter_cfg.c **** {
  26              		.loc 1 63 0
  27              		.cfi_startproc
  28              		@ args = 0, pretend = 0, frame = 8
  29              		@ frame_needed = 1, uses_anonymous_args = 0
  30 0000 80B5     		push	{r7, lr}
  31              		.cfi_def_cfa_offset 8
  32              		.cfi_offset 7, -8
  33              		.cfi_offset 14, -4
  34 0002 82B0     		sub	sp, sp, #8
  35              		.cfi_def_cfa_offset 16
  36 0004 00AF     		add	r7, sp, #0
  37              		.cfi_def_cfa_register 7
  38 0006 7860     		str	r0, [r7, #4]
  39 0008 3960     		str	r1, [r7]
  64:Generated_Source\PSoC5/cyfitter_cfg.c **** 	(void)memset(s, 0, n);
  40              		.loc 1 64 0
  41 000a 7868     		ldr	r0, [r7, #4]
  42 000c 0021     		movs	r1, #0
  43 000e 3A68     		ldr	r2, [r7]
  44 0010 FFF7FEFF 		bl	memset
  65:Generated_Source\PSoC5/cyfitter_cfg.c **** }
  45              		.loc 1 65 0
  46 0014 0837     		adds	r7, r7, #8
  47              		.cfi_def_cfa_offset 8
  48 0016 BD46     		mov	sp, r7
  49              		.cfi_def_cfa_register 13
ARM GAS  C:\Users\JOSANT~1\AppData\Local\Temp\cck6n6yz.s 			page 3


  50              		@ sp needed
  51 0018 80BD     		pop	{r7, pc}
  52              		.cfi_endproc
  53              	.LFE0:
  54              		.size	CYMEMZERO, .-CYMEMZERO
  55 001a 00BF     		.section	.text.CYCONFIGCPY,"ax",%progbits
  56              		.align	2
  57              		.thumb
  58              		.thumb_func
  59              		.type	CYCONFIGCPY, %function
  60              	CYCONFIGCPY:
  61              	.LFB1:
  66:Generated_Source\PSoC5/cyfitter_cfg.c **** CY_CFG_UNUSED
  67:Generated_Source\PSoC5/cyfitter_cfg.c **** static void CYCONFIGCPY(void *dest, const void *src, size_t n);
  68:Generated_Source\PSoC5/cyfitter_cfg.c **** CY_CFG_UNUSED
  69:Generated_Source\PSoC5/cyfitter_cfg.c **** static void CYCONFIGCPY(void *dest, const void *src, size_t n)
  70:Generated_Source\PSoC5/cyfitter_cfg.c **** {
  62              		.loc 1 70 0
  63              		.cfi_startproc
  64              		@ args = 0, pretend = 0, frame = 16
  65              		@ frame_needed = 1, uses_anonymous_args = 0
  66 0000 80B5     		push	{r7, lr}
  67              		.cfi_def_cfa_offset 8
  68              		.cfi_offset 7, -8
  69              		.cfi_offset 14, -4
  70 0002 84B0     		sub	sp, sp, #16
  71              		.cfi_def_cfa_offset 24
  72 0004 00AF     		add	r7, sp, #0
  73              		.cfi_def_cfa_register 7
  74 0006 F860     		str	r0, [r7, #12]
  75 0008 B960     		str	r1, [r7, #8]
  76 000a 7A60     		str	r2, [r7, #4]
  71:Generated_Source\PSoC5/cyfitter_cfg.c **** 	(void)memcpy(dest, src, n);
  77              		.loc 1 71 0
  78 000c F868     		ldr	r0, [r7, #12]
  79 000e B968     		ldr	r1, [r7, #8]
  80 0010 7A68     		ldr	r2, [r7, #4]
  81 0012 FFF7FEFF 		bl	memcpy
  72:Generated_Source\PSoC5/cyfitter_cfg.c **** }
  82              		.loc 1 72 0
  83 0016 1037     		adds	r7, r7, #16
  84              		.cfi_def_cfa_offset 8
  85 0018 BD46     		mov	sp, r7
  86              		.cfi_def_cfa_register 13
  87              		@ sp needed
  88 001a 80BD     		pop	{r7, pc}
  89              		.cfi_endproc
  90              	.LFE1:
  91              		.size	CYCONFIGCPY, .-CYCONFIGCPY
  92              		.section	.text.CYCONFIGCPYCODE,"ax",%progbits
  93              		.align	2
  94              		.thumb
  95              		.thumb_func
  96              		.type	CYCONFIGCPYCODE, %function
  97              	CYCONFIGCPYCODE:
  98              	.LFB2:
  73:Generated_Source\PSoC5/cyfitter_cfg.c **** CY_CFG_UNUSED
ARM GAS  C:\Users\JOSANT~1\AppData\Local\Temp\cck6n6yz.s 			page 4


  74:Generated_Source\PSoC5/cyfitter_cfg.c **** static void CYCONFIGCPYCODE(void *dest, const void *src, size_t n);
  75:Generated_Source\PSoC5/cyfitter_cfg.c **** CY_CFG_UNUSED
  76:Generated_Source\PSoC5/cyfitter_cfg.c **** static void CYCONFIGCPYCODE(void *dest, const void *src, size_t n)
  77:Generated_Source\PSoC5/cyfitter_cfg.c **** {
  99              		.loc 1 77 0
 100              		.cfi_startproc
 101              		@ args = 0, pretend = 0, frame = 16
 102              		@ frame_needed = 1, uses_anonymous_args = 0
 103 0000 80B5     		push	{r7, lr}
 104              		.cfi_def_cfa_offset 8
 105              		.cfi_offset 7, -8
 106              		.cfi_offset 14, -4
 107 0002 84B0     		sub	sp, sp, #16
 108              		.cfi_def_cfa_offset 24
 109 0004 00AF     		add	r7, sp, #0
 110              		.cfi_def_cfa_register 7
 111 0006 F860     		str	r0, [r7, #12]
 112 0008 B960     		str	r1, [r7, #8]
 113 000a 7A60     		str	r2, [r7, #4]
  78:Generated_Source\PSoC5/cyfitter_cfg.c **** 	(void)memcpy(dest, src, n);
 114              		.loc 1 78 0
 115 000c F868     		ldr	r0, [r7, #12]
 116 000e B968     		ldr	r1, [r7, #8]
 117 0010 7A68     		ldr	r2, [r7, #4]
 118 0012 FFF7FEFF 		bl	memcpy
  79:Generated_Source\PSoC5/cyfitter_cfg.c **** }
 119              		.loc 1 79 0
 120 0016 1037     		adds	r7, r7, #16
 121              		.cfi_def_cfa_offset 8
 122 0018 BD46     		mov	sp, r7
 123              		.cfi_def_cfa_register 13
 124              		@ sp needed
 125 001a 80BD     		pop	{r7, pc}
 126              		.cfi_endproc
 127              	.LFE2:
 128              		.size	CYCONFIGCPYCODE, .-CYCONFIGCPYCODE
 129              		.section	.text.CyClockStartupError,"ax",%progbits
 130              		.align	2
 131              		.thumb
 132              		.thumb_func
 133              		.type	CyClockStartupError, %function
 134              	CyClockStartupError:
 135              	.LFB3:
  80:Generated_Source\PSoC5/cyfitter_cfg.c **** 
  81:Generated_Source\PSoC5/cyfitter_cfg.c **** 
  82:Generated_Source\PSoC5/cyfitter_cfg.c **** 
  83:Generated_Source\PSoC5/cyfitter_cfg.c **** 
  84:Generated_Source\PSoC5/cyfitter_cfg.c **** /* Clock startup error codes                                                   */
  85:Generated_Source\PSoC5/cyfitter_cfg.c **** #define CYCLOCKSTART_NO_ERROR    0u
  86:Generated_Source\PSoC5/cyfitter_cfg.c **** #define CYCLOCKSTART_XTAL_ERROR  1u
  87:Generated_Source\PSoC5/cyfitter_cfg.c **** #define CYCLOCKSTART_32KHZ_ERROR 2u
  88:Generated_Source\PSoC5/cyfitter_cfg.c **** #define CYCLOCKSTART_PLL_ERROR   3u
  89:Generated_Source\PSoC5/cyfitter_cfg.c **** 
  90:Generated_Source\PSoC5/cyfitter_cfg.c **** 
  91:Generated_Source\PSoC5/cyfitter_cfg.c **** #ifdef CY_NEED_CYCLOCKSTARTUPERROR
  92:Generated_Source\PSoC5/cyfitter_cfg.c **** /*******************************************************************************
  93:Generated_Source\PSoC5/cyfitter_cfg.c **** * Function Name: CyClockStartupError
ARM GAS  C:\Users\JOSANT~1\AppData\Local\Temp\cck6n6yz.s 			page 5


  94:Generated_Source\PSoC5/cyfitter_cfg.c **** ********************************************************************************
  95:Generated_Source\PSoC5/cyfitter_cfg.c **** * Summary:
  96:Generated_Source\PSoC5/cyfitter_cfg.c **** *  If an error is encountered during clock configuration (crystal startup error,
  97:Generated_Source\PSoC5/cyfitter_cfg.c **** *  PLL lock error, etc.), the system will end up here.  Unless reimplemented by
  98:Generated_Source\PSoC5/cyfitter_cfg.c **** *  the customer, this function will stop in an infinite loop.
  99:Generated_Source\PSoC5/cyfitter_cfg.c **** *
 100:Generated_Source\PSoC5/cyfitter_cfg.c **** * Parameters:
 101:Generated_Source\PSoC5/cyfitter_cfg.c **** *   void
 102:Generated_Source\PSoC5/cyfitter_cfg.c **** *
 103:Generated_Source\PSoC5/cyfitter_cfg.c **** * Return:
 104:Generated_Source\PSoC5/cyfitter_cfg.c **** *   void
 105:Generated_Source\PSoC5/cyfitter_cfg.c **** *
 106:Generated_Source\PSoC5/cyfitter_cfg.c **** *******************************************************************************/
 107:Generated_Source\PSoC5/cyfitter_cfg.c **** CY_CFG_UNUSED
 108:Generated_Source\PSoC5/cyfitter_cfg.c **** static void CyClockStartupError(uint8 errorCode);
 109:Generated_Source\PSoC5/cyfitter_cfg.c **** CY_CFG_UNUSED
 110:Generated_Source\PSoC5/cyfitter_cfg.c **** static void CyClockStartupError(uint8 errorCode)
 111:Generated_Source\PSoC5/cyfitter_cfg.c **** {
 136              		.loc 1 111 0
 137              		.cfi_startproc
 138              		@ args = 0, pretend = 0, frame = 8
 139              		@ frame_needed = 1, uses_anonymous_args = 0
 140              		@ link register save eliminated.
 141 0000 80B4     		push	{r7}
 142              		.cfi_def_cfa_offset 4
 143              		.cfi_offset 7, -4
 144 0002 83B0     		sub	sp, sp, #12
 145              		.cfi_def_cfa_offset 16
 146 0004 00AF     		add	r7, sp, #0
 147              		.cfi_def_cfa_register 7
 148 0006 0346     		mov	r3, r0
 149 0008 FB71     		strb	r3, [r7, #7]
 150              	.L5:
 112:Generated_Source\PSoC5/cyfitter_cfg.c ****     /* To remove the compiler warning if errorCode not used.                */
 113:Generated_Source\PSoC5/cyfitter_cfg.c ****     errorCode = errorCode;
 114:Generated_Source\PSoC5/cyfitter_cfg.c **** 
 115:Generated_Source\PSoC5/cyfitter_cfg.c ****     /* If we have a clock startup error (bad MHz crystal, PLL lock, etc.),  */
 116:Generated_Source\PSoC5/cyfitter_cfg.c ****     /* we will end up here to allow the customer to implement something to  */
 117:Generated_Source\PSoC5/cyfitter_cfg.c ****     /* deal with the clock condition.                                       */
 118:Generated_Source\PSoC5/cyfitter_cfg.c **** 
 119:Generated_Source\PSoC5/cyfitter_cfg.c **** #ifdef CY_CFG_CLOCK_STARTUP_ERROR_CALLBACK
 120:Generated_Source\PSoC5/cyfitter_cfg.c **** 	CY_CFG_Clock_Startup_ErrorCallback();
 121:Generated_Source\PSoC5/cyfitter_cfg.c **** #else
 122:Generated_Source\PSoC5/cyfitter_cfg.c **** 	/*  If not using CY_CFG_CLOCK_STARTUP_ERROR_CALLBACK, place your clock startup code here. */
 123:Generated_Source\PSoC5/cyfitter_cfg.c ****     /* `#START CyClockStartupError` */
 124:Generated_Source\PSoC5/cyfitter_cfg.c **** 
 125:Generated_Source\PSoC5/cyfitter_cfg.c **** 
 126:Generated_Source\PSoC5/cyfitter_cfg.c **** 
 127:Generated_Source\PSoC5/cyfitter_cfg.c ****     /* `#END` */
 128:Generated_Source\PSoC5/cyfitter_cfg.c **** 
 129:Generated_Source\PSoC5/cyfitter_cfg.c ****     /* If nothing else, stop here since the clocks have not started         */
 130:Generated_Source\PSoC5/cyfitter_cfg.c ****     /* correctly.                                                           */
 131:Generated_Source\PSoC5/cyfitter_cfg.c ****     while(1) {}
 151              		.loc 1 131 0 discriminator 1
 152 000a FEE7     		b	.L5
 153              		.cfi_endproc
 154              	.LFE3:
ARM GAS  C:\Users\JOSANT~1\AppData\Local\Temp\cck6n6yz.s 			page 6


 155              		.size	CyClockStartupError, .-CyClockStartupError
 156              		.section	.text.cfg_write_bytes32,"ax",%progbits
 157              		.align	2
 158              		.thumb
 159              		.thumb_func
 160              		.type	cfg_write_bytes32, %function
 161              	cfg_write_bytes32:
 162              	.LFB4:
 132:Generated_Source\PSoC5/cyfitter_cfg.c **** #endif /* CY_CFG_CLOCK_STARTUP_ERROR_CALLBACK */ 
 133:Generated_Source\PSoC5/cyfitter_cfg.c **** }
 134:Generated_Source\PSoC5/cyfitter_cfg.c **** #endif
 135:Generated_Source\PSoC5/cyfitter_cfg.c **** 
 136:Generated_Source\PSoC5/cyfitter_cfg.c **** #define CY_CFG_BASE_ADDR_COUNT 12u
 137:Generated_Source\PSoC5/cyfitter_cfg.c **** CYPACKED typedef struct
 138:Generated_Source\PSoC5/cyfitter_cfg.c **** {
 139:Generated_Source\PSoC5/cyfitter_cfg.c **** 	uint8 offset;
 140:Generated_Source\PSoC5/cyfitter_cfg.c **** 	uint8 value;
 141:Generated_Source\PSoC5/cyfitter_cfg.c **** } CYPACKED_ATTR cy_cfg_addrvalue_t;
 142:Generated_Source\PSoC5/cyfitter_cfg.c **** 
 143:Generated_Source\PSoC5/cyfitter_cfg.c **** 
 144:Generated_Source\PSoC5/cyfitter_cfg.c **** 
 145:Generated_Source\PSoC5/cyfitter_cfg.c **** /*******************************************************************************
 146:Generated_Source\PSoC5/cyfitter_cfg.c **** * Function Name: cfg_write_bytes32
 147:Generated_Source\PSoC5/cyfitter_cfg.c **** ********************************************************************************
 148:Generated_Source\PSoC5/cyfitter_cfg.c **** * Summary:
 149:Generated_Source\PSoC5/cyfitter_cfg.c **** *  This function is used for setting up the chip configuration areas that
 150:Generated_Source\PSoC5/cyfitter_cfg.c **** *  contain relatively sparse data.
 151:Generated_Source\PSoC5/cyfitter_cfg.c **** *
 152:Generated_Source\PSoC5/cyfitter_cfg.c **** * Parameters:
 153:Generated_Source\PSoC5/cyfitter_cfg.c **** *   void
 154:Generated_Source\PSoC5/cyfitter_cfg.c **** *
 155:Generated_Source\PSoC5/cyfitter_cfg.c **** * Return:
 156:Generated_Source\PSoC5/cyfitter_cfg.c **** *   void
 157:Generated_Source\PSoC5/cyfitter_cfg.c **** *
 158:Generated_Source\PSoC5/cyfitter_cfg.c **** *******************************************************************************/
 159:Generated_Source\PSoC5/cyfitter_cfg.c **** static void cfg_write_bytes32(const uint32 addr_table[], const cy_cfg_addrvalue_t data_table[]);
 160:Generated_Source\PSoC5/cyfitter_cfg.c **** static void cfg_write_bytes32(const uint32 addr_table[], const cy_cfg_addrvalue_t data_table[])
 161:Generated_Source\PSoC5/cyfitter_cfg.c **** {
 163              		.loc 1 161 0
 164              		.cfi_startproc
 165              		@ args = 0, pretend = 0, frame = 24
 166              		@ frame_needed = 1, uses_anonymous_args = 0
 167              		@ link register save eliminated.
 168 0000 80B4     		push	{r7}
 169              		.cfi_def_cfa_offset 4
 170              		.cfi_offset 7, -4
 171 0002 87B0     		sub	sp, sp, #28
 172              		.cfi_def_cfa_offset 32
 173 0004 00AF     		add	r7, sp, #0
 174              		.cfi_def_cfa_register 7
 175 0006 7860     		str	r0, [r7, #4]
 176 0008 3960     		str	r1, [r7]
 162:Generated_Source\PSoC5/cyfitter_cfg.c **** 	/* For 32-bit little-endian architectures */
 163:Generated_Source\PSoC5/cyfitter_cfg.c **** 	uint32 i, j = 0u;
 177              		.loc 1 163 0
 178 000a 0023     		movs	r3, #0
 179 000c 3B61     		str	r3, [r7, #16]
ARM GAS  C:\Users\JOSANT~1\AppData\Local\Temp\cck6n6yz.s 			page 7


 164:Generated_Source\PSoC5/cyfitter_cfg.c **** 	for (i = 0u; i < CY_CFG_BASE_ADDR_COUNT; i++)
 180              		.loc 1 164 0
 181 000e 0023     		movs	r3, #0
 182 0010 7B61     		str	r3, [r7, #20]
 183 0012 27E0     		b	.L7
 184              	.L10:
 185              	.LBB2:
 165:Generated_Source\PSoC5/cyfitter_cfg.c **** 	{
 166:Generated_Source\PSoC5/cyfitter_cfg.c **** 		uint32 baseAddr = addr_table[i];
 186              		.loc 1 166 0
 187 0014 7B69     		ldr	r3, [r7, #20]
 188 0016 9B00     		lsls	r3, r3, #2
 189 0018 7A68     		ldr	r2, [r7, #4]
 190 001a 1344     		add	r3, r3, r2
 191 001c 1B68     		ldr	r3, [r3]
 192 001e BB60     		str	r3, [r7, #8]
 167:Generated_Source\PSoC5/cyfitter_cfg.c **** 		uint8 count = (uint8)baseAddr;
 193              		.loc 1 167 0
 194 0020 BB68     		ldr	r3, [r7, #8]
 195 0022 FB73     		strb	r3, [r7, #15]
 168:Generated_Source\PSoC5/cyfitter_cfg.c **** 		baseAddr &= 0xFFFFFF00u;
 196              		.loc 1 168 0
 197 0024 BB68     		ldr	r3, [r7, #8]
 198 0026 23F0FF03 		bic	r3, r3, #255
 199 002a BB60     		str	r3, [r7, #8]
 169:Generated_Source\PSoC5/cyfitter_cfg.c **** 		while (count != 0u)
 200              		.loc 1 169 0
 201 002c 14E0     		b	.L8
 202              	.L9:
 170:Generated_Source\PSoC5/cyfitter_cfg.c **** 		{
 171:Generated_Source\PSoC5/cyfitter_cfg.c **** 			CY_SET_XTND_REG8((void CYFAR *)(baseAddr + data_table[j].offset), data_table[j].value);
 203              		.loc 1 171 0
 204 002e 3B69     		ldr	r3, [r7, #16]
 205 0030 5B00     		lsls	r3, r3, #1
 206 0032 3A68     		ldr	r2, [r7]
 207 0034 1344     		add	r3, r3, r2
 208 0036 1B78     		ldrb	r3, [r3]	@ zero_extendqisi2
 209 0038 1A46     		mov	r2, r3
 210 003a BB68     		ldr	r3, [r7, #8]
 211 003c 1344     		add	r3, r3, r2
 212 003e 1946     		mov	r1, r3
 213 0040 3B69     		ldr	r3, [r7, #16]
 214 0042 5B00     		lsls	r3, r3, #1
 215 0044 3A68     		ldr	r2, [r7]
 216 0046 1344     		add	r3, r3, r2
 217 0048 5B78     		ldrb	r3, [r3, #1]	@ zero_extendqisi2
 218 004a 0B70     		strb	r3, [r1]
 172:Generated_Source\PSoC5/cyfitter_cfg.c **** 			j++;
 219              		.loc 1 172 0
 220 004c 3B69     		ldr	r3, [r7, #16]
 221 004e 0133     		adds	r3, r3, #1
 222 0050 3B61     		str	r3, [r7, #16]
 173:Generated_Source\PSoC5/cyfitter_cfg.c **** 			count--;
 223              		.loc 1 173 0
 224 0052 FB7B     		ldrb	r3, [r7, #15]	@ zero_extendqisi2
 225 0054 013B     		subs	r3, r3, #1
 226 0056 FB73     		strb	r3, [r7, #15]
ARM GAS  C:\Users\JOSANT~1\AppData\Local\Temp\cck6n6yz.s 			page 8


 227              	.L8:
 169:Generated_Source\PSoC5/cyfitter_cfg.c **** 		{
 228              		.loc 1 169 0
 229 0058 FB7B     		ldrb	r3, [r7, #15]	@ zero_extendqisi2
 230 005a 002B     		cmp	r3, #0
 231 005c E7D1     		bne	.L9
 232              	.LBE2:
 164:Generated_Source\PSoC5/cyfitter_cfg.c **** 	{
 233              		.loc 1 164 0 discriminator 2
 234 005e 7B69     		ldr	r3, [r7, #20]
 235 0060 0133     		adds	r3, r3, #1
 236 0062 7B61     		str	r3, [r7, #20]
 237              	.L7:
 164:Generated_Source\PSoC5/cyfitter_cfg.c **** 	{
 238              		.loc 1 164 0 is_stmt 0 discriminator 1
 239 0064 7B69     		ldr	r3, [r7, #20]
 240 0066 0B2B     		cmp	r3, #11
 241 0068 D4D9     		bls	.L10
 174:Generated_Source\PSoC5/cyfitter_cfg.c **** 		}
 175:Generated_Source\PSoC5/cyfitter_cfg.c **** 	}
 176:Generated_Source\PSoC5/cyfitter_cfg.c **** }
 242              		.loc 1 176 0 is_stmt 1
 243 006a 1C37     		adds	r7, r7, #28
 244              		.cfi_def_cfa_offset 4
 245 006c BD46     		mov	sp, r7
 246              		.cfi_def_cfa_register 13
 247              		@ sp needed
 248 006e 5DF8047B 		ldr	r7, [sp], #4
 249              		.cfi_restore 7
 250              		.cfi_def_cfa_offset 0
 251 0072 7047     		bx	lr
 252              		.cfi_endproc
 253              	.LFE4:
 254              		.size	cfg_write_bytes32, .-cfg_write_bytes32
 255              		.section	.text.ClockSetup,"ax",%progbits
 256              		.align	2
 257              		.thumb
 258              		.thumb_func
 259              		.type	ClockSetup, %function
 260              	ClockSetup:
 261              	.LFB5:
 177:Generated_Source\PSoC5/cyfitter_cfg.c **** 
 178:Generated_Source\PSoC5/cyfitter_cfg.c **** /*******************************************************************************
 179:Generated_Source\PSoC5/cyfitter_cfg.c **** * Function Name: ClockSetup
 180:Generated_Source\PSoC5/cyfitter_cfg.c **** ********************************************************************************
 181:Generated_Source\PSoC5/cyfitter_cfg.c **** *
 182:Generated_Source\PSoC5/cyfitter_cfg.c **** * Summary:
 183:Generated_Source\PSoC5/cyfitter_cfg.c **** *  Performs the initialization of all of the clocks in the device based on the
 184:Generated_Source\PSoC5/cyfitter_cfg.c **** *  settings in the Clock tab of the DWR.  This includes enabling the requested
 185:Generated_Source\PSoC5/cyfitter_cfg.c **** *  clocks and setting the necessary dividers to produce the desired frequency. 
 186:Generated_Source\PSoC5/cyfitter_cfg.c **** *
 187:Generated_Source\PSoC5/cyfitter_cfg.c **** * Parameters:
 188:Generated_Source\PSoC5/cyfitter_cfg.c **** *  void
 189:Generated_Source\PSoC5/cyfitter_cfg.c **** *
 190:Generated_Source\PSoC5/cyfitter_cfg.c **** * Return:
 191:Generated_Source\PSoC5/cyfitter_cfg.c **** *  void
 192:Generated_Source\PSoC5/cyfitter_cfg.c **** *
ARM GAS  C:\Users\JOSANT~1\AppData\Local\Temp\cck6n6yz.s 			page 9


 193:Generated_Source\PSoC5/cyfitter_cfg.c **** *******************************************************************************/
 194:Generated_Source\PSoC5/cyfitter_cfg.c **** static void ClockSetup(void);
 195:Generated_Source\PSoC5/cyfitter_cfg.c **** static void ClockSetup(void)
 196:Generated_Source\PSoC5/cyfitter_cfg.c **** {
 262              		.loc 1 196 0
 263              		.cfi_startproc
 264              		@ args = 0, pretend = 0, frame = 8
 265              		@ frame_needed = 1, uses_anonymous_args = 0
 266 0000 80B5     		push	{r7, lr}
 267              		.cfi_def_cfa_offset 8
 268              		.cfi_offset 7, -8
 269              		.cfi_offset 14, -4
 270 0002 82B0     		sub	sp, sp, #8
 271              		.cfi_def_cfa_offset 16
 272 0004 00AF     		add	r7, sp, #0
 273              		.cfi_def_cfa_register 7
 197:Generated_Source\PSoC5/cyfitter_cfg.c **** 	uint32 timeout;
 198:Generated_Source\PSoC5/cyfitter_cfg.c **** 	uint8 pllLock;
 199:Generated_Source\PSoC5/cyfitter_cfg.c **** 
 200:Generated_Source\PSoC5/cyfitter_cfg.c **** 
 201:Generated_Source\PSoC5/cyfitter_cfg.c **** 	/* Configure Digital Clocks based on settings from Clock DWR */
 202:Generated_Source\PSoC5/cyfitter_cfg.c **** 	CY_SET_XTND_REG16((void CYFAR *)(CYREG_CLKDIST_DCFG0_CFG0), 0x02EDu);
 274              		.loc 1 202 0
 275 0006 304B     		ldr	r3, .L16
 276 0008 40F2ED22 		movw	r2, #749
 277 000c 1A80     		strh	r2, [r3]	@ movhi
 203:Generated_Source\PSoC5/cyfitter_cfg.c **** 	CY_SET_XTND_REG8((void CYFAR *)(CYREG_CLKDIST_DCFG0_CFG0 + 0x2u), 0x19u);
 278              		.loc 1 203 0
 279 000e 2F4B     		ldr	r3, .L16+4
 280 0010 1922     		movs	r2, #25
 281 0012 1A70     		strb	r2, [r3]
 204:Generated_Source\PSoC5/cyfitter_cfg.c **** 
 205:Generated_Source\PSoC5/cyfitter_cfg.c **** 	/* Configure ILO based on settings from Clock DWR */
 206:Generated_Source\PSoC5/cyfitter_cfg.c **** 	CY_SET_XTND_REG8((void CYFAR *)(CYREG_SLOWCLK_ILO_CR0), 0x06u);
 282              		.loc 1 206 0
 283 0014 2E4B     		ldr	r3, .L16+8
 284 0016 0622     		movs	r2, #6
 285 0018 1A70     		strb	r2, [r3]
 207:Generated_Source\PSoC5/cyfitter_cfg.c **** 
 208:Generated_Source\PSoC5/cyfitter_cfg.c **** 	/* Configure IMO based on settings from Clock DWR */
 209:Generated_Source\PSoC5/cyfitter_cfg.c **** 	CY_SET_XTND_REG8((void CYFAR *)(CYREG_FASTCLK_IMO_CR), 0x52u);
 286              		.loc 1 209 0
 287 001a 2E4B     		ldr	r3, .L16+12
 288 001c 5222     		movs	r2, #82
 289 001e 1A70     		strb	r2, [r3]
 210:Generated_Source\PSoC5/cyfitter_cfg.c **** 	CY_SET_XTND_REG8((void CYFAR *)(CYREG_IMO_TR1), (CY_GET_XTND_REG8((void CYFAR *)CYREG_FLSHID_CUST_
 290              		.loc 1 210 0
 291 0020 2D4B     		ldr	r3, .L16+16
 292 0022 2E4A     		ldr	r2, .L16+20
 293 0024 1278     		ldrb	r2, [r2]
 294 0026 D2B2     		uxtb	r2, r2
 295 0028 1A70     		strb	r2, [r3]
 211:Generated_Source\PSoC5/cyfitter_cfg.c **** 
 212:Generated_Source\PSoC5/cyfitter_cfg.c **** 	/* Configure PLL based on settings from Clock DWR */
 213:Generated_Source\PSoC5/cyfitter_cfg.c **** 	CY_SET_XTND_REG16((void CYFAR *)(CYREG_FASTCLK_PLL_P), 0x0818u);
 296              		.loc 1 213 0
 297 002a 2D4B     		ldr	r3, .L16+24
ARM GAS  C:\Users\JOSANT~1\AppData\Local\Temp\cck6n6yz.s 			page 10


 298 002c 40F61802 		movw	r2, #2072
 299 0030 1A80     		strh	r2, [r3]	@ movhi
 214:Generated_Source\PSoC5/cyfitter_cfg.c **** 	CY_SET_XTND_REG16((void CYFAR *)(CYREG_FASTCLK_PLL_CFG0), 0x1251u);
 300              		.loc 1 214 0
 301 0032 2C4B     		ldr	r3, .L16+28
 302 0034 41F25122 		movw	r2, #4689
 303 0038 1A80     		strh	r2, [r3]	@ movhi
 215:Generated_Source\PSoC5/cyfitter_cfg.c **** 	/* Wait up to 250us for the PLL to lock */
 216:Generated_Source\PSoC5/cyfitter_cfg.c **** 	pllLock = 0u;
 304              		.loc 1 216 0
 305 003a 0023     		movs	r3, #0
 306 003c FB70     		strb	r3, [r7, #3]
 217:Generated_Source\PSoC5/cyfitter_cfg.c **** 	for (timeout = 250u / 10u; (timeout > 0u) && (pllLock != 0x03u); timeout--)
 307              		.loc 1 217 0
 308 003e 1923     		movs	r3, #25
 309 0040 7B60     		str	r3, [r7, #4]
 310 0042 14E0     		b	.L12
 311              	.L14:
 218:Generated_Source\PSoC5/cyfitter_cfg.c **** 	{ 
 219:Generated_Source\PSoC5/cyfitter_cfg.c **** 		pllLock = 0x03u & ((uint8)((uint8)pllLock << 1) | ((CY_GET_XTND_REG8((void CYFAR *)CYREG_FASTCLK_
 312              		.loc 1 219 0 discriminator 4
 313 0044 FB78     		ldrb	r3, [r7, #3]
 314 0046 5B00     		lsls	r3, r3, #1
 315 0048 DAB2     		uxtb	r2, r3
 316 004a 274B     		ldr	r3, .L16+32
 317 004c 1B78     		ldrb	r3, [r3]
 318 004e DBB2     		uxtb	r3, r3
 319 0050 03F00103 		and	r3, r3, #1
 320 0054 DBB2     		uxtb	r3, r3
 321 0056 1343     		orrs	r3, r3, r2
 322 0058 DBB2     		uxtb	r3, r3
 323 005a 03F00303 		and	r3, r3, #3
 324 005e FB70     		strb	r3, [r7, #3]
 220:Generated_Source\PSoC5/cyfitter_cfg.c **** 		CyDelayCycles(10u * 48u); /* Delay 10us based on 48MHz clock */
 325              		.loc 1 220 0 discriminator 4
 326 0060 4FF4F070 		mov	r0, #480
 327 0064 FFF7FEFF 		bl	CyDelayCycles
 217:Generated_Source\PSoC5/cyfitter_cfg.c **** 	for (timeout = 250u / 10u; (timeout > 0u) && (pllLock != 0x03u); timeout--)
 328              		.loc 1 217 0 discriminator 4
 329 0068 7B68     		ldr	r3, [r7, #4]
 330 006a 013B     		subs	r3, r3, #1
 331 006c 7B60     		str	r3, [r7, #4]
 332              	.L12:
 217:Generated_Source\PSoC5/cyfitter_cfg.c **** 	for (timeout = 250u / 10u; (timeout > 0u) && (pllLock != 0x03u); timeout--)
 333              		.loc 1 217 0 is_stmt 0 discriminator 1
 334 006e 7B68     		ldr	r3, [r7, #4]
 335 0070 002B     		cmp	r3, #0
 336 0072 02D0     		beq	.L13
 217:Generated_Source\PSoC5/cyfitter_cfg.c **** 	for (timeout = 250u / 10u; (timeout > 0u) && (pllLock != 0x03u); timeout--)
 337              		.loc 1 217 0 discriminator 3
 338 0074 FB78     		ldrb	r3, [r7, #3]	@ zero_extendqisi2
 339 0076 032B     		cmp	r3, #3
 340 0078 E4D1     		bne	.L14
 341              	.L13:
 221:Generated_Source\PSoC5/cyfitter_cfg.c **** 	}
 222:Generated_Source\PSoC5/cyfitter_cfg.c **** 	/* If we ran out of time the PLL didn't lock so go to the error function */
 223:Generated_Source\PSoC5/cyfitter_cfg.c **** 	if (timeout == 0u)
ARM GAS  C:\Users\JOSANT~1\AppData\Local\Temp\cck6n6yz.s 			page 11


 342              		.loc 1 223 0 is_stmt 1
 343 007a 7B68     		ldr	r3, [r7, #4]
 344 007c 002B     		cmp	r3, #0
 345 007e 02D1     		bne	.L15
 224:Generated_Source\PSoC5/cyfitter_cfg.c **** 	{
 225:Generated_Source\PSoC5/cyfitter_cfg.c **** 		CyClockStartupError(CYCLOCKSTART_PLL_ERROR);
 346              		.loc 1 225 0
 347 0080 0320     		movs	r0, #3
 348 0082 FFF7FEFF 		bl	CyClockStartupError
 349              	.L15:
 226:Generated_Source\PSoC5/cyfitter_cfg.c **** 	}
 227:Generated_Source\PSoC5/cyfitter_cfg.c **** 
 228:Generated_Source\PSoC5/cyfitter_cfg.c **** 	/* Configure Bus/Master Clock based on settings from Clock DWR */
 229:Generated_Source\PSoC5/cyfitter_cfg.c **** 	CY_SET_XTND_REG16((void CYFAR *)(CYREG_CLKDIST_MSTR0), 0x0100u);
 350              		.loc 1 229 0
 351 0086 194B     		ldr	r3, .L16+36
 352 0088 4FF48072 		mov	r2, #256
 353 008c 1A80     		strh	r2, [r3]	@ movhi
 230:Generated_Source\PSoC5/cyfitter_cfg.c **** 	CY_SET_XTND_REG8((void CYFAR *)(CYREG_CLKDIST_MSTR0), 0x07u);
 354              		.loc 1 230 0
 355 008e 174B     		ldr	r3, .L16+36
 356 0090 0722     		movs	r2, #7
 357 0092 1A70     		strb	r2, [r3]
 231:Generated_Source\PSoC5/cyfitter_cfg.c **** 	CY_SET_XTND_REG8((void CYFAR *)(CYREG_CLKDIST_BCFG0), 0x00u);
 358              		.loc 1 231 0
 359 0094 164B     		ldr	r3, .L16+40
 360 0096 0022     		movs	r2, #0
 361 0098 1A70     		strb	r2, [r3]
 232:Generated_Source\PSoC5/cyfitter_cfg.c **** 	CY_SET_XTND_REG8((void CYFAR *)(CYREG_CLKDIST_BCFG2), 0x48u);
 362              		.loc 1 232 0
 363 009a 164B     		ldr	r3, .L16+44
 364 009c 4822     		movs	r2, #72
 365 009e 1A70     		strb	r2, [r3]
 233:Generated_Source\PSoC5/cyfitter_cfg.c **** 	CY_SET_XTND_REG8((void CYFAR *)(CYREG_CLKDIST_MSTR0), 0x00u);
 366              		.loc 1 233 0
 367 00a0 124B     		ldr	r3, .L16+36
 368 00a2 0022     		movs	r2, #0
 369 00a4 1A70     		strb	r2, [r3]
 234:Generated_Source\PSoC5/cyfitter_cfg.c **** 
 235:Generated_Source\PSoC5/cyfitter_cfg.c **** 	/* Configure USB Clock based on settings from Clock DWR */
 236:Generated_Source\PSoC5/cyfitter_cfg.c **** 	CY_SET_XTND_REG8((void CYFAR *)(CYREG_CLKDIST_UCFG), 0x00u);
 370              		.loc 1 236 0
 371 00a6 144B     		ldr	r3, .L16+48
 372 00a8 0022     		movs	r2, #0
 373 00aa 1A70     		strb	r2, [r3]
 237:Generated_Source\PSoC5/cyfitter_cfg.c **** 	CY_SET_XTND_REG8((void CYFAR *)(CYREG_CLKDIST_LD), 0x02u);
 374              		.loc 1 237 0
 375 00ac 134B     		ldr	r3, .L16+52
 376 00ae 0222     		movs	r2, #2
 377 00b0 1A70     		strb	r2, [r3]
 238:Generated_Source\PSoC5/cyfitter_cfg.c **** 
 239:Generated_Source\PSoC5/cyfitter_cfg.c **** 	CY_SET_XTND_REG8((void CYFAR *)(CYREG_PM_ACT_CFG2), ((CY_GET_XTND_REG8((void CYFAR *)CYREG_PM_ACT_
 378              		.loc 1 239 0
 379 00b2 134A     		ldr	r2, .L16+56
 380 00b4 124B     		ldr	r3, .L16+56
 381 00b6 1B78     		ldrb	r3, [r3]
 382 00b8 DBB2     		uxtb	r3, r3
ARM GAS  C:\Users\JOSANT~1\AppData\Local\Temp\cck6n6yz.s 			page 12


 383 00ba 43F00103 		orr	r3, r3, #1
 384 00be DBB2     		uxtb	r3, r3
 385 00c0 1370     		strb	r3, [r2]
 240:Generated_Source\PSoC5/cyfitter_cfg.c **** }
 386              		.loc 1 240 0
 387 00c2 0837     		adds	r7, r7, #8
 388              		.cfi_def_cfa_offset 8
 389 00c4 BD46     		mov	sp, r7
 390              		.cfi_def_cfa_register 13
 391              		@ sp needed
 392 00c6 80BD     		pop	{r7, pc}
 393              	.L17:
 394              		.align	2
 395              	.L16:
 396 00c8 80400040 		.word	1073758336
 397 00cc 82400040 		.word	1073758338
 398 00d0 00430040 		.word	1073758976
 399 00d4 00420040 		.word	1073758720
 400 00d8 A1460040 		.word	1073759905
 401 00dc 0F010049 		.word	1224737039
 402 00e0 22420040 		.word	1073758754
 403 00e4 20420040 		.word	1073758752
 404 00e8 25420040 		.word	1073758757
 405 00ec 04400040 		.word	1073758212
 406 00f0 06400040 		.word	1073758214
 407 00f4 08400040 		.word	1073758216
 408 00f8 09400040 		.word	1073758217
 409 00fc 01400040 		.word	1073758209
 410 0100 A2430040 		.word	1073759138
 411              		.cfi_endproc
 412              	.LFE5:
 413              		.size	ClockSetup, .-ClockSetup
 414              		.section	.text.AnalogSetDefault,"ax",%progbits
 415              		.align	2
 416              		.thumb
 417              		.thumb_func
 418              		.type	AnalogSetDefault, %function
 419              	AnalogSetDefault:
 420              	.LFB6:
 241:Generated_Source\PSoC5/cyfitter_cfg.c **** 
 242:Generated_Source\PSoC5/cyfitter_cfg.c **** 
 243:Generated_Source\PSoC5/cyfitter_cfg.c **** /* Analog API Functions */
 244:Generated_Source\PSoC5/cyfitter_cfg.c **** 
 245:Generated_Source\PSoC5/cyfitter_cfg.c **** 
 246:Generated_Source\PSoC5/cyfitter_cfg.c **** /*******************************************************************************
 247:Generated_Source\PSoC5/cyfitter_cfg.c **** * Function Name: AnalogSetDefault
 248:Generated_Source\PSoC5/cyfitter_cfg.c **** ********************************************************************************
 249:Generated_Source\PSoC5/cyfitter_cfg.c **** *
 250:Generated_Source\PSoC5/cyfitter_cfg.c **** * Summary:
 251:Generated_Source\PSoC5/cyfitter_cfg.c **** *  Sets up the analog portions of the chip to default values based on chip
 252:Generated_Source\PSoC5/cyfitter_cfg.c **** *  configuration options from the project.
 253:Generated_Source\PSoC5/cyfitter_cfg.c **** *
 254:Generated_Source\PSoC5/cyfitter_cfg.c **** * Parameters:
 255:Generated_Source\PSoC5/cyfitter_cfg.c **** *  void
 256:Generated_Source\PSoC5/cyfitter_cfg.c **** *
 257:Generated_Source\PSoC5/cyfitter_cfg.c **** * Return:
 258:Generated_Source\PSoC5/cyfitter_cfg.c **** *  void
ARM GAS  C:\Users\JOSANT~1\AppData\Local\Temp\cck6n6yz.s 			page 13


 259:Generated_Source\PSoC5/cyfitter_cfg.c **** *
 260:Generated_Source\PSoC5/cyfitter_cfg.c **** *******************************************************************************/
 261:Generated_Source\PSoC5/cyfitter_cfg.c **** static void AnalogSetDefault(void);
 262:Generated_Source\PSoC5/cyfitter_cfg.c **** static void AnalogSetDefault(void)
 263:Generated_Source\PSoC5/cyfitter_cfg.c **** {
 421              		.loc 1 263 0
 422              		.cfi_startproc
 423              		@ args = 0, pretend = 0, frame = 8
 424              		@ frame_needed = 1, uses_anonymous_args = 0
 425              		@ link register save eliminated.
 426 0000 80B4     		push	{r7}
 427              		.cfi_def_cfa_offset 4
 428              		.cfi_offset 7, -4
 429 0002 83B0     		sub	sp, sp, #12
 430              		.cfi_def_cfa_offset 16
 431 0004 00AF     		add	r7, sp, #0
 432              		.cfi_def_cfa_register 7
 264:Generated_Source\PSoC5/cyfitter_cfg.c **** 	uint8 bg_xover_inl_trim = CY_GET_XTND_REG8((void CYFAR *)(CYREG_FLSHID_MFG_CFG_BG_XOVER_INL_TRIM +
 433              		.loc 1 264 0
 434 0006 0E4B     		ldr	r3, .L19
 435 0008 1B78     		ldrb	r3, [r3]
 436 000a FB71     		strb	r3, [r7, #7]
 265:Generated_Source\PSoC5/cyfitter_cfg.c **** 	CY_SET_XTND_REG8((void CYFAR *)(CYREG_BG_DFT0), (bg_xover_inl_trim & 0x07u));
 437              		.loc 1 265 0
 438 000c 0D4A     		ldr	r2, .L19+4
 439 000e FB79     		ldrb	r3, [r7, #7]
 440 0010 03F00703 		and	r3, r3, #7
 441 0014 DBB2     		uxtb	r3, r3
 442 0016 1370     		strb	r3, [r2]
 266:Generated_Source\PSoC5/cyfitter_cfg.c **** 	CY_SET_XTND_REG8((void CYFAR *)(CYREG_BG_DFT1), ((bg_xover_inl_trim >> 4) & 0x0Fu));
 443              		.loc 1 266 0
 444 0018 0B4A     		ldr	r2, .L19+8
 445 001a FB79     		ldrb	r3, [r7, #7]	@ zero_extendqisi2
 446 001c 1B09     		lsrs	r3, r3, #4
 447 001e DBB2     		uxtb	r3, r3
 448 0020 1370     		strb	r3, [r2]
 267:Generated_Source\PSoC5/cyfitter_cfg.c **** 	CY_SET_XTND_REG8((void CYFAR *)CYREG_PRT0_AMUX, 0x04u);
 449              		.loc 1 267 0
 450 0022 0A4B     		ldr	r3, .L19+12
 451 0024 0422     		movs	r2, #4
 452 0026 1A70     		strb	r2, [r3]
 268:Generated_Source\PSoC5/cyfitter_cfg.c **** 	CY_SET_XTND_REG8((void CYFAR *)CYREG_DAC2_SW3, 0x01u);
 453              		.loc 1 268 0
 454 0028 094B     		ldr	r3, .L19+16
 455 002a 0122     		movs	r2, #1
 456 002c 1A70     		strb	r2, [r3]
 269:Generated_Source\PSoC5/cyfitter_cfg.c **** 	CY_SET_XTND_REG8((void CYFAR *)CYREG_PUMP_CR0, 0x44u);
 457              		.loc 1 269 0
 458 002e 094B     		ldr	r3, .L19+20
 459 0030 4422     		movs	r2, #68
 460 0032 1A70     		strb	r2, [r3]
 270:Generated_Source\PSoC5/cyfitter_cfg.c **** }
 461              		.loc 1 270 0
 462 0034 0C37     		adds	r7, r7, #12
 463              		.cfi_def_cfa_offset 4
 464 0036 BD46     		mov	sp, r7
 465              		.cfi_def_cfa_register 13
ARM GAS  C:\Users\JOSANT~1\AppData\Local\Temp\cck6n6yz.s 			page 14


 466              		@ sp needed
 467 0038 5DF8047B 		ldr	r7, [sp], #4
 468              		.cfi_restore 7
 469              		.cfi_def_cfa_offset 0
 470 003c 7047     		bx	lr
 471              	.L20:
 472 003e 00BF     		.align	2
 473              	.L19:
 474 0040 CF010049 		.word	1224737231
 475 0044 6E580040 		.word	1073764462
 476 0048 6F580040 		.word	1073764463
 477 004c 0C510040 		.word	1073762572
 478 0050 935A0040 		.word	1073765011
 479 0054 76580040 		.word	1073764470
 480              		.cfi_endproc
 481              	.LFE6:
 482              		.size	AnalogSetDefault, .-AnalogSetDefault
 483              		.section	.text.SetAnalogRoutingPumps,"ax",%progbits
 484              		.align	2
 485              		.global	SetAnalogRoutingPumps
 486              		.thumb
 487              		.thumb_func
 488              		.type	SetAnalogRoutingPumps, %function
 489              	SetAnalogRoutingPumps:
 490              	.LFB7:
 271:Generated_Source\PSoC5/cyfitter_cfg.c **** 
 272:Generated_Source\PSoC5/cyfitter_cfg.c **** 
 273:Generated_Source\PSoC5/cyfitter_cfg.c **** /*******************************************************************************
 274:Generated_Source\PSoC5/cyfitter_cfg.c **** * Function Name: SetAnalogRoutingPumps
 275:Generated_Source\PSoC5/cyfitter_cfg.c **** ********************************************************************************
 276:Generated_Source\PSoC5/cyfitter_cfg.c **** *
 277:Generated_Source\PSoC5/cyfitter_cfg.c **** * Summary:
 278:Generated_Source\PSoC5/cyfitter_cfg.c **** * Enables or disables the analog pumps feeding analog routing switches.
 279:Generated_Source\PSoC5/cyfitter_cfg.c **** * Intended to be called at startup, based on the Vdda system configuration;
 280:Generated_Source\PSoC5/cyfitter_cfg.c **** * may be called during operation when the user informs us that the Vdda voltage
 281:Generated_Source\PSoC5/cyfitter_cfg.c **** * crossed the pump threshold.
 282:Generated_Source\PSoC5/cyfitter_cfg.c **** *
 283:Generated_Source\PSoC5/cyfitter_cfg.c **** * Parameters:
 284:Generated_Source\PSoC5/cyfitter_cfg.c **** *  enabled - 1 to enable the pumps, 0 to disable the pumps
 285:Generated_Source\PSoC5/cyfitter_cfg.c **** *
 286:Generated_Source\PSoC5/cyfitter_cfg.c **** * Return:
 287:Generated_Source\PSoC5/cyfitter_cfg.c **** *  void
 288:Generated_Source\PSoC5/cyfitter_cfg.c **** *
 289:Generated_Source\PSoC5/cyfitter_cfg.c **** *******************************************************************************/
 290:Generated_Source\PSoC5/cyfitter_cfg.c **** void SetAnalogRoutingPumps(uint8 enabled)
 291:Generated_Source\PSoC5/cyfitter_cfg.c **** {
 491              		.loc 1 291 0
 492              		.cfi_startproc
 493              		@ args = 0, pretend = 0, frame = 16
 494              		@ frame_needed = 1, uses_anonymous_args = 0
 495              		@ link register save eliminated.
 496 0000 80B4     		push	{r7}
 497              		.cfi_def_cfa_offset 4
 498              		.cfi_offset 7, -4
 499 0002 85B0     		sub	sp, sp, #20
 500              		.cfi_def_cfa_offset 24
 501 0004 00AF     		add	r7, sp, #0
ARM GAS  C:\Users\JOSANT~1\AppData\Local\Temp\cck6n6yz.s 			page 15


 502              		.cfi_def_cfa_register 7
 503 0006 0346     		mov	r3, r0
 504 0008 FB71     		strb	r3, [r7, #7]
 292:Generated_Source\PSoC5/cyfitter_cfg.c **** 	uint8 regValue = CY_GET_XTND_REG8((void CYFAR *)CYREG_PUMP_CR0);
 505              		.loc 1 292 0
 506 000a 064B     		ldr	r3, .L24
 507 000c 1B78     		ldrb	r3, [r3]
 508 000e FB73     		strb	r3, [r7, #15]
 293:Generated_Source\PSoC5/cyfitter_cfg.c **** 	if (enabled != 0u)
 509              		.loc 1 293 0
 510 0010 FB79     		ldrb	r3, [r7, #7]	@ zero_extendqisi2
 511 0012 002B     		cmp	r3, #0
 294:Generated_Source\PSoC5/cyfitter_cfg.c **** 	{
 295:Generated_Source\PSoC5/cyfitter_cfg.c **** 		regValue |= 0x00u;
 296:Generated_Source\PSoC5/cyfitter_cfg.c **** 	}
 297:Generated_Source\PSoC5/cyfitter_cfg.c **** 	else
 298:Generated_Source\PSoC5/cyfitter_cfg.c **** 	{
 299:Generated_Source\PSoC5/cyfitter_cfg.c **** 		regValue &= (uint8)~0x00u;
 300:Generated_Source\PSoC5/cyfitter_cfg.c **** 	}
 301:Generated_Source\PSoC5/cyfitter_cfg.c **** 	CY_SET_XTND_REG8((void CYFAR *)CYREG_PUMP_CR0, regValue);
 512              		.loc 1 301 0
 513 0014 034A     		ldr	r2, .L24
 514 0016 FB7B     		ldrb	r3, [r7, #15]
 515 0018 1370     		strb	r3, [r2]
 302:Generated_Source\PSoC5/cyfitter_cfg.c **** }
 516              		.loc 1 302 0
 517 001a 1437     		adds	r7, r7, #20
 518              		.cfi_def_cfa_offset 4
 519 001c BD46     		mov	sp, r7
 520              		.cfi_def_cfa_register 13
 521              		@ sp needed
 522 001e 5DF8047B 		ldr	r7, [sp], #4
 523              		.cfi_restore 7
 524              		.cfi_def_cfa_offset 0
 525 0022 7047     		bx	lr
 526              	.L25:
 527              		.align	2
 528              	.L24:
 529 0024 76580040 		.word	1073764470
 530              		.cfi_endproc
 531              	.LFE7:
 532              		.size	SetAnalogRoutingPumps, .-SetAnalogRoutingPumps
 533              		.section	.text.cyfitter_cfg,"ax",%progbits
 534              		.align	2
 535              		.global	cyfitter_cfg
 536              		.thumb
 537              		.thumb_func
 538              		.type	cyfitter_cfg, %function
 539              	cyfitter_cfg:
 540              	.LFB8:
 303:Generated_Source\PSoC5/cyfitter_cfg.c **** 
 304:Generated_Source\PSoC5/cyfitter_cfg.c **** #define CY_AMUX_UNUSED CYREG_BOOST_SR
 305:Generated_Source\PSoC5/cyfitter_cfg.c **** 
 306:Generated_Source\PSoC5/cyfitter_cfg.c **** 
 307:Generated_Source\PSoC5/cyfitter_cfg.c **** /*******************************************************************************
 308:Generated_Source\PSoC5/cyfitter_cfg.c **** * Function Name: cyfitter_cfg
 309:Generated_Source\PSoC5/cyfitter_cfg.c **** ********************************************************************************
ARM GAS  C:\Users\JOSANT~1\AppData\Local\Temp\cck6n6yz.s 			page 16


 310:Generated_Source\PSoC5/cyfitter_cfg.c **** * Summary:
 311:Generated_Source\PSoC5/cyfitter_cfg.c **** *  This function is called by the start-up code for the selected device. It
 312:Generated_Source\PSoC5/cyfitter_cfg.c **** *  performs all of the necessary device configuration based on the design
 313:Generated_Source\PSoC5/cyfitter_cfg.c **** *  settings.  This includes settings from the Design Wide Resources (DWR) such
 314:Generated_Source\PSoC5/cyfitter_cfg.c **** *  as Clocks and Pins as well as any component configuration that is necessary.
 315:Generated_Source\PSoC5/cyfitter_cfg.c **** *
 316:Generated_Source\PSoC5/cyfitter_cfg.c **** * Parameters:  
 317:Generated_Source\PSoC5/cyfitter_cfg.c **** *   void
 318:Generated_Source\PSoC5/cyfitter_cfg.c **** *
 319:Generated_Source\PSoC5/cyfitter_cfg.c **** * Return:
 320:Generated_Source\PSoC5/cyfitter_cfg.c **** *   void
 321:Generated_Source\PSoC5/cyfitter_cfg.c **** *
 322:Generated_Source\PSoC5/cyfitter_cfg.c **** *******************************************************************************/
 323:Generated_Source\PSoC5/cyfitter_cfg.c **** 
 324:Generated_Source\PSoC5/cyfitter_cfg.c **** void cyfitter_cfg(void)
 325:Generated_Source\PSoC5/cyfitter_cfg.c **** {
 541              		.loc 1 325 0
 542              		.cfi_startproc
 543              		@ args = 0, pretend = 0, frame = 8
 544              		@ frame_needed = 1, uses_anonymous_args = 0
 545 0000 80B5     		push	{r7, lr}
 546              		.cfi_def_cfa_offset 8
 547              		.cfi_offset 7, -8
 548              		.cfi_offset 14, -4
 549 0002 82B0     		sub	sp, sp, #8
 550              		.cfi_def_cfa_offset 16
 551 0004 00AF     		add	r7, sp, #0
 552              		.cfi_def_cfa_register 7
 326:Generated_Source\PSoC5/cyfitter_cfg.c **** 	/* IOPINS0_0 Address: CYREG_PRT0_DM0 Size (bytes): 8 */
 327:Generated_Source\PSoC5/cyfitter_cfg.c **** 	static const uint8 CYCODE BS_IOPINS0_0_VAL[] = {
 328:Generated_Source\PSoC5/cyfitter_cfg.c **** 		0x00u, 0x01u, 0x01u, 0x00u, 0x00u, 0x00u, 0x04u, 0x00u};
 329:Generated_Source\PSoC5/cyfitter_cfg.c **** 
 330:Generated_Source\PSoC5/cyfitter_cfg.c **** 	/* IOPINS0_8 Address: CYREG_PRT15_DR Size (bytes): 10 */
 331:Generated_Source\PSoC5/cyfitter_cfg.c **** 	static const uint8 CYCODE BS_IOPINS0_8_VAL[] = {
 332:Generated_Source\PSoC5/cyfitter_cfg.c **** 		0x00u, 0x00u, 0x00u, 0x00u, 0x00u, 0x00u, 0x00u, 0x00u, 0xC0u, 0x00u};
 333:Generated_Source\PSoC5/cyfitter_cfg.c **** 
 334:Generated_Source\PSoC5/cyfitter_cfg.c **** 	/* IOPINS0_1 Address: CYREG_PRT1_DM0 Size (bytes): 8 */
 335:Generated_Source\PSoC5/cyfitter_cfg.c **** 	static const uint8 CYCODE BS_IOPINS0_1_VAL[] = {
 336:Generated_Source\PSoC5/cyfitter_cfg.c **** 		0x00u, 0x0Bu, 0x0Bu, 0x00u, 0x00u, 0x00u, 0x00u, 0x00u};
 337:Generated_Source\PSoC5/cyfitter_cfg.c **** 
 338:Generated_Source\PSoC5/cyfitter_cfg.c **** 	/* IOPINS0_2 Address: CYREG_PRT2_DM0 Size (bytes): 8 */
 339:Generated_Source\PSoC5/cyfitter_cfg.c **** 	static const uint8 CYCODE BS_IOPINS0_2_VAL[] = {
 340:Generated_Source\PSoC5/cyfitter_cfg.c **** 		0x00u, 0x7Fu, 0x7Fu, 0x00u, 0x00u, 0x00u, 0x00u, 0x00u};
 341:Generated_Source\PSoC5/cyfitter_cfg.c **** 
 342:Generated_Source\PSoC5/cyfitter_cfg.c **** 	/* IOPINS0_4 Address: CYREG_PRT4_DM0 Size (bytes): 8 */
 343:Generated_Source\PSoC5/cyfitter_cfg.c **** 	static const uint8 CYCODE BS_IOPINS0_4_VAL[] = {
 344:Generated_Source\PSoC5/cyfitter_cfg.c **** 		0x00u, 0x18u, 0x18u, 0x00u, 0x00u, 0x00u, 0x00u, 0x00u};
 345:Generated_Source\PSoC5/cyfitter_cfg.c **** 
 346:Generated_Source\PSoC5/cyfitter_cfg.c **** #ifdef CYGlobalIntDisable
 347:Generated_Source\PSoC5/cyfitter_cfg.c **** 	/* Disable interrupts by default. Let user enable if/when they want. */
 348:Generated_Source\PSoC5/cyfitter_cfg.c **** 	CYGlobalIntDisable
 553              		.loc 1 348 0
 554              	@ 348 "Generated_Source\PSoC5\cyfitter_cfg.c" 1
 555 0006 72B6     		CPSID   i
 556              	@ 0 "" 2
 349:Generated_Source\PSoC5/cyfitter_cfg.c **** #endif
 350:Generated_Source\PSoC5/cyfitter_cfg.c **** 
ARM GAS  C:\Users\JOSANT~1\AppData\Local\Temp\cck6n6yz.s 			page 17


 351:Generated_Source\PSoC5/cyfitter_cfg.c **** 
 352:Generated_Source\PSoC5/cyfitter_cfg.c **** 	/* Set Flash Cycles based on max possible frequency in case a glitch occurs during ClockSetup(). *
 353:Generated_Source\PSoC5/cyfitter_cfg.c **** 	CY_SET_XTND_REG8((void CYFAR *)(CYREG_CACHE_CC_CTL), (((CYDEV_INSTRUCT_CACHE_ENABLED) != 0) ? 0x01
 557              		.loc 1 353 0
 558              		.thumb
 559 0008 3E4B     		ldr	r3, .L29
 560 000a 0122     		movs	r2, #1
 561 000c 1A70     		strb	r2, [r3]
 354:Generated_Source\PSoC5/cyfitter_cfg.c **** 	/* Setup clocks based on selections from Clock DWR */
 355:Generated_Source\PSoC5/cyfitter_cfg.c **** 	ClockSetup();
 562              		.loc 1 355 0
 563 000e FFF7FEFF 		bl	ClockSetup
 356:Generated_Source\PSoC5/cyfitter_cfg.c **** 	/* Enable/Disable Debug functionality based on settings from System DWR */
 357:Generated_Source\PSoC5/cyfitter_cfg.c **** 	CY_SET_XTND_REG8((void CYFAR *)CYREG_MLOGIC_DEBUG, (CY_GET_XTND_REG8((void CYFAR *)CYREG_MLOGIC_DE
 564              		.loc 1 357 0
 565 0012 3D4A     		ldr	r2, .L29+4
 566 0014 3C4B     		ldr	r3, .L29+4
 567 0016 1B78     		ldrb	r3, [r3]
 568 0018 DBB2     		uxtb	r3, r3
 569 001a 43F00403 		orr	r3, r3, #4
 570 001e DBB2     		uxtb	r3, r3
 571 0020 1370     		strb	r3, [r2]
 572              	.LBB3:
 358:Generated_Source\PSoC5/cyfitter_cfg.c **** 
 359:Generated_Source\PSoC5/cyfitter_cfg.c **** 	{
 360:Generated_Source\PSoC5/cyfitter_cfg.c **** 		static const uint32 CYCODE cy_cfg_addr_table[] = {
 361:Generated_Source\PSoC5/cyfitter_cfg.c **** 			0x40004501u, /* Base address: 0x40004500 Count: 1 */
 362:Generated_Source\PSoC5/cyfitter_cfg.c **** 			0x40005201u, /* Base address: 0x40005200 Count: 1 */
 363:Generated_Source\PSoC5/cyfitter_cfg.c **** 			0x40011701u, /* Base address: 0x40011700 Count: 1 */
 364:Generated_Source\PSoC5/cyfitter_cfg.c **** 			0x40011901u, /* Base address: 0x40011900 Count: 1 */
 365:Generated_Source\PSoC5/cyfitter_cfg.c **** 			0x40014004u, /* Base address: 0x40014000 Count: 4 */
 366:Generated_Source\PSoC5/cyfitter_cfg.c **** 			0x40014102u, /* Base address: 0x40014100 Count: 2 */
 367:Generated_Source\PSoC5/cyfitter_cfg.c **** 			0x40014202u, /* Base address: 0x40014200 Count: 2 */
 368:Generated_Source\PSoC5/cyfitter_cfg.c **** 			0x40014302u, /* Base address: 0x40014300 Count: 2 */
 369:Generated_Source\PSoC5/cyfitter_cfg.c **** 			0x40014702u, /* Base address: 0x40014700 Count: 2 */
 370:Generated_Source\PSoC5/cyfitter_cfg.c **** 			0x40014805u, /* Base address: 0x40014800 Count: 5 */
 371:Generated_Source\PSoC5/cyfitter_cfg.c **** 			0x40014C01u, /* Base address: 0x40014C00 Count: 1 */
 372:Generated_Source\PSoC5/cyfitter_cfg.c **** 			0x40015102u, /* Base address: 0x40015100 Count: 2 */
 373:Generated_Source\PSoC5/cyfitter_cfg.c **** 		};
 374:Generated_Source\PSoC5/cyfitter_cfg.c **** 
 375:Generated_Source\PSoC5/cyfitter_cfg.c **** 		static const cy_cfg_addrvalue_t CYCODE cy_cfg_data_table[] = {
 376:Generated_Source\PSoC5/cyfitter_cfg.c **** 			{0x7Eu, 0x02u},
 377:Generated_Source\PSoC5/cyfitter_cfg.c **** 			{0x7Cu, 0x40u},
 378:Generated_Source\PSoC5/cyfitter_cfg.c **** 			{0xEEu, 0x02u},
 379:Generated_Source\PSoC5/cyfitter_cfg.c **** 			{0xEEu, 0x02u},
 380:Generated_Source\PSoC5/cyfitter_cfg.c **** 			{0x36u, 0x40u},
 381:Generated_Source\PSoC5/cyfitter_cfg.c **** 			{0x3Du, 0x80u},
 382:Generated_Source\PSoC5/cyfitter_cfg.c **** 			{0xCCu, 0x20u},
 383:Generated_Source\PSoC5/cyfitter_cfg.c **** 			{0xCEu, 0x20u},
 384:Generated_Source\PSoC5/cyfitter_cfg.c **** 			{0xA5u, 0x40u},
 385:Generated_Source\PSoC5/cyfitter_cfg.c **** 			{0xA6u, 0x40u},
 386:Generated_Source\PSoC5/cyfitter_cfg.c **** 			{0xA5u, 0x40u},
 387:Generated_Source\PSoC5/cyfitter_cfg.c **** 			{0xA6u, 0x40u},
 388:Generated_Source\PSoC5/cyfitter_cfg.c **** 			{0xA5u, 0x40u},
 389:Generated_Source\PSoC5/cyfitter_cfg.c **** 			{0xA6u, 0x40u},
 390:Generated_Source\PSoC5/cyfitter_cfg.c **** 			{0x0Fu, 0x40u},
 391:Generated_Source\PSoC5/cyfitter_cfg.c **** 			{0xC2u, 0x04u},
ARM GAS  C:\Users\JOSANT~1\AppData\Local\Temp\cck6n6yz.s 			page 18


 392:Generated_Source\PSoC5/cyfitter_cfg.c **** 			{0x25u, 0x40u},
 393:Generated_Source\PSoC5/cyfitter_cfg.c **** 			{0xA5u, 0x40u},
 394:Generated_Source\PSoC5/cyfitter_cfg.c **** 			{0xAEu, 0x40u},
 395:Generated_Source\PSoC5/cyfitter_cfg.c **** 			{0xC8u, 0x20u},
 396:Generated_Source\PSoC5/cyfitter_cfg.c **** 			{0xEEu, 0x40u},
 397:Generated_Source\PSoC5/cyfitter_cfg.c **** 			{0xAFu, 0x40u},
 398:Generated_Source\PSoC5/cyfitter_cfg.c **** 			{0x00u, 0x09u},
 399:Generated_Source\PSoC5/cyfitter_cfg.c **** 			{0x10u, 0x02u},
 400:Generated_Source\PSoC5/cyfitter_cfg.c **** 		};
 401:Generated_Source\PSoC5/cyfitter_cfg.c **** 
 402:Generated_Source\PSoC5/cyfitter_cfg.c **** 
 403:Generated_Source\PSoC5/cyfitter_cfg.c **** 
 404:Generated_Source\PSoC5/cyfitter_cfg.c **** 		CYPACKED typedef struct {
 405:Generated_Source\PSoC5/cyfitter_cfg.c **** 			void CYFAR *address;
 406:Generated_Source\PSoC5/cyfitter_cfg.c **** 			uint16 size;
 407:Generated_Source\PSoC5/cyfitter_cfg.c **** 		} CYPACKED_ATTR cfg_memset_t;
 408:Generated_Source\PSoC5/cyfitter_cfg.c **** 
 409:Generated_Source\PSoC5/cyfitter_cfg.c **** 		static const cfg_memset_t CYCODE cfg_memset_list [] = {
 410:Generated_Source\PSoC5/cyfitter_cfg.c **** 			/* address, size */
 411:Generated_Source\PSoC5/cyfitter_cfg.c **** 			{(void CYFAR *)(CYREG_PRT3_DR), 16u},
 412:Generated_Source\PSoC5/cyfitter_cfg.c **** 			{(void CYFAR *)(CYREG_PRT5_DR), 32u},
 413:Generated_Source\PSoC5/cyfitter_cfg.c **** 			{(void CYFAR *)(CYREG_PRT12_DR), 16u},
 414:Generated_Source\PSoC5/cyfitter_cfg.c **** 			{(void CYFAR *)(CYDEV_UCFG_B0_P0_U0_BASE), 4096u},
 415:Generated_Source\PSoC5/cyfitter_cfg.c **** 			{(void CYFAR *)(CYDEV_UCFG_B1_P2_U0_BASE), 2048u},
 416:Generated_Source\PSoC5/cyfitter_cfg.c **** 			{(void CYFAR *)(CYDEV_UCFG_DSI0_BASE), 2560u},
 417:Generated_Source\PSoC5/cyfitter_cfg.c **** 			{(void CYFAR *)(CYDEV_UCFG_DSI12_BASE), 512u},
 418:Generated_Source\PSoC5/cyfitter_cfg.c **** 			{(void CYFAR *)(CYREG_BCTL0_MDCLK_EN), 32u},
 419:Generated_Source\PSoC5/cyfitter_cfg.c **** 		};
 420:Generated_Source\PSoC5/cyfitter_cfg.c **** 
 421:Generated_Source\PSoC5/cyfitter_cfg.c **** 		uint8 CYDATA i;
 422:Generated_Source\PSoC5/cyfitter_cfg.c **** 
 423:Generated_Source\PSoC5/cyfitter_cfg.c **** 		/* Zero out critical memory blocks before beginning configuration */
 424:Generated_Source\PSoC5/cyfitter_cfg.c **** 		for (i = 0u; i < (sizeof(cfg_memset_list)/sizeof(cfg_memset_list[0])); i++)
 573              		.loc 1 424 0
 574 0022 0023     		movs	r3, #0
 575 0024 FB71     		strb	r3, [r7, #7]
 576 0026 13E0     		b	.L27
 577              	.L28:
 578              	.LBB4:
 425:Generated_Source\PSoC5/cyfitter_cfg.c **** 		{
 426:Generated_Source\PSoC5/cyfitter_cfg.c **** 			const cfg_memset_t CYCODE * CYDATA ms = &cfg_memset_list[i];
 579              		.loc 1 426 0 discriminator 3
 580 0028 FA79     		ldrb	r2, [r7, #7]	@ zero_extendqisi2
 581 002a 1346     		mov	r3, r2
 582 002c 5B00     		lsls	r3, r3, #1
 583 002e 1344     		add	r3, r3, r2
 584 0030 5B00     		lsls	r3, r3, #1
 585 0032 364A     		ldr	r2, .L29+8
 586 0034 1344     		add	r3, r3, r2
 587 0036 3B60     		str	r3, [r7]
 427:Generated_Source\PSoC5/cyfitter_cfg.c **** 			CYMEMZERO(ms->address, (size_t)(uint32)(ms->size));
 588              		.loc 1 427 0 discriminator 3
 589 0038 3B68     		ldr	r3, [r7]
 590 003a 1A68     		ldr	r2, [r3]	@ unaligned
 591 003c 3B68     		ldr	r3, [r7]
 592 003e 9B88     		ldrh	r3, [r3, #4]	@ unaligned
 593 0040 9BB2     		uxth	r3, r3
ARM GAS  C:\Users\JOSANT~1\AppData\Local\Temp\cck6n6yz.s 			page 19


 594 0042 1046     		mov	r0, r2
 595 0044 1946     		mov	r1, r3
 596 0046 FFF7FEFF 		bl	CYMEMZERO
 597              	.LBE4:
 424:Generated_Source\PSoC5/cyfitter_cfg.c **** 		{
 598              		.loc 1 424 0 discriminator 3
 599 004a FB79     		ldrb	r3, [r7, #7]	@ zero_extendqisi2
 600 004c 0133     		adds	r3, r3, #1
 601 004e FB71     		strb	r3, [r7, #7]
 602              	.L27:
 424:Generated_Source\PSoC5/cyfitter_cfg.c **** 		{
 603              		.loc 1 424 0 is_stmt 0 discriminator 1
 604 0050 FB79     		ldrb	r3, [r7, #7]	@ zero_extendqisi2
 605 0052 072B     		cmp	r3, #7
 606 0054 E8D9     		bls	.L28
 428:Generated_Source\PSoC5/cyfitter_cfg.c **** 		}
 429:Generated_Source\PSoC5/cyfitter_cfg.c **** 
 430:Generated_Source\PSoC5/cyfitter_cfg.c **** 		cfg_write_bytes32(cy_cfg_addr_table, cy_cfg_data_table);
 607              		.loc 1 430 0 is_stmt 1
 608 0056 2E48     		ldr	r0, .L29+12
 609 0058 2E49     		ldr	r1, .L29+16
 610 005a FFF7FEFF 		bl	cfg_write_bytes32
 431:Generated_Source\PSoC5/cyfitter_cfg.c **** 
 432:Generated_Source\PSoC5/cyfitter_cfg.c **** 		/* Perform normal device configuration. Order is not critical for these items. */
 433:Generated_Source\PSoC5/cyfitter_cfg.c **** 		CYMEMZERO((void CYFAR *)(CYREG_PHUB_CFGMEM0_CFG0), 4u);
 611              		.loc 1 433 0
 612 005e 2E48     		ldr	r0, .L29+20
 613 0060 0421     		movs	r1, #4
 614 0062 FFF7FEFF 		bl	CYMEMZERO
 434:Generated_Source\PSoC5/cyfitter_cfg.c **** 		CYMEMZERO((void CYFAR *)(CYREG_PHUB_CFGMEM1_CFG0), 4u);
 615              		.loc 1 434 0
 616 0066 2D48     		ldr	r0, .L29+24
 617 0068 0421     		movs	r1, #4
 618 006a FFF7FEFF 		bl	CYMEMZERO
 435:Generated_Source\PSoC5/cyfitter_cfg.c **** 
 436:Generated_Source\PSoC5/cyfitter_cfg.c **** 		/* Enable digital routing */
 437:Generated_Source\PSoC5/cyfitter_cfg.c **** 		CY_SET_XTND_REG8((void CYFAR *)CYREG_BCTL0_BANK_CTL, CY_GET_XTND_REG8((void CYFAR *)CYREG_BCTL0_B
 619              		.loc 1 437 0
 620 006e 2C4A     		ldr	r2, .L29+28
 621 0070 2B4B     		ldr	r3, .L29+28
 622 0072 1B78     		ldrb	r3, [r3]
 623 0074 DBB2     		uxtb	r3, r3
 624 0076 43F00203 		orr	r3, r3, #2
 625 007a DBB2     		uxtb	r3, r3
 626 007c 1370     		strb	r3, [r2]
 438:Generated_Source\PSoC5/cyfitter_cfg.c **** 		CY_SET_XTND_REG8((void CYFAR *)CYREG_BCTL1_BANK_CTL, CY_GET_XTND_REG8((void CYFAR *)CYREG_BCTL1_B
 627              		.loc 1 438 0
 628 007e 294A     		ldr	r2, .L29+32
 629 0080 284B     		ldr	r3, .L29+32
 630 0082 1B78     		ldrb	r3, [r3]
 631 0084 DBB2     		uxtb	r3, r3
 632 0086 43F00203 		orr	r3, r3, #2
 633 008a DBB2     		uxtb	r3, r3
 634 008c 1370     		strb	r3, [r2]
 439:Generated_Source\PSoC5/cyfitter_cfg.c **** 
 440:Generated_Source\PSoC5/cyfitter_cfg.c **** 		/* Enable UDB array */
 441:Generated_Source\PSoC5/cyfitter_cfg.c **** 		CY_SET_XTND_REG8((void CYFAR *)CYREG_PM_ACT_CFG0, CY_GET_XTND_REG8((void CYFAR *)CYREG_PM_ACT_CFG
ARM GAS  C:\Users\JOSANT~1\AppData\Local\Temp\cck6n6yz.s 			page 20


 635              		.loc 1 441 0
 636 008e 264A     		ldr	r2, .L29+36
 637 0090 254B     		ldr	r3, .L29+36
 638 0092 1B78     		ldrb	r3, [r3]
 639 0094 DBB2     		uxtb	r3, r3
 640 0096 43F04003 		orr	r3, r3, #64
 641 009a DBB2     		uxtb	r3, r3
 642 009c 1370     		strb	r3, [r2]
 442:Generated_Source\PSoC5/cyfitter_cfg.c **** 		CY_SET_XTND_REG8((void CYFAR *)CYREG_PM_AVAIL_CR2, CY_GET_XTND_REG8((void CYFAR *)CYREG_PM_AVAIL_
 643              		.loc 1 442 0
 644 009e 234A     		ldr	r2, .L29+40
 645 00a0 224B     		ldr	r3, .L29+40
 646 00a2 1B78     		ldrb	r3, [r3]
 647 00a4 DBB2     		uxtb	r3, r3
 648 00a6 43F01003 		orr	r3, r3, #16
 649 00aa DBB2     		uxtb	r3, r3
 650 00ac 1370     		strb	r3, [r2]
 651              	.LBE3:
 443:Generated_Source\PSoC5/cyfitter_cfg.c **** 	}
 444:Generated_Source\PSoC5/cyfitter_cfg.c **** 
 445:Generated_Source\PSoC5/cyfitter_cfg.c **** 
 446:Generated_Source\PSoC5/cyfitter_cfg.c **** 	/* Perform second pass device configuration. These items must be configured in specific order afte
 447:Generated_Source\PSoC5/cyfitter_cfg.c **** 	CYCONFIGCPYCODE((void CYFAR *)(CYREG_PRT0_DM0), (const void CYCODE *)(BS_IOPINS0_0_VAL), 8u);
 652              		.loc 1 447 0
 653 00ae 2048     		ldr	r0, .L29+44
 654 00b0 2049     		ldr	r1, .L29+48
 655 00b2 0822     		movs	r2, #8
 656 00b4 FFF7FEFF 		bl	CYCONFIGCPYCODE
 448:Generated_Source\PSoC5/cyfitter_cfg.c **** 	CYCONFIGCPYCODE((void CYFAR *)(CYREG_PRT15_DR), (const void CYCODE *)(BS_IOPINS0_8_VAL), 10u);
 657              		.loc 1 448 0
 658 00b8 1F48     		ldr	r0, .L29+52
 659 00ba 2049     		ldr	r1, .L29+56
 660 00bc 0A22     		movs	r2, #10
 661 00be FFF7FEFF 		bl	CYCONFIGCPYCODE
 449:Generated_Source\PSoC5/cyfitter_cfg.c **** 	CYCONFIGCPYCODE((void CYFAR *)(CYREG_PRT1_DM0), (const void CYCODE *)(BS_IOPINS0_1_VAL), 8u);
 662              		.loc 1 449 0
 663 00c2 1F48     		ldr	r0, .L29+60
 664 00c4 1F49     		ldr	r1, .L29+64
 665 00c6 0822     		movs	r2, #8
 666 00c8 FFF7FEFF 		bl	CYCONFIGCPYCODE
 450:Generated_Source\PSoC5/cyfitter_cfg.c **** 	CYCONFIGCPYCODE((void CYFAR *)(CYREG_PRT2_DM0), (const void CYCODE *)(BS_IOPINS0_2_VAL), 8u);
 667              		.loc 1 450 0
 668 00cc 1E48     		ldr	r0, .L29+68
 669 00ce 1F49     		ldr	r1, .L29+72
 670 00d0 0822     		movs	r2, #8
 671 00d2 FFF7FEFF 		bl	CYCONFIGCPYCODE
 451:Generated_Source\PSoC5/cyfitter_cfg.c **** 	CYCONFIGCPYCODE((void CYFAR *)(CYREG_PRT4_DM0), (const void CYCODE *)(BS_IOPINS0_4_VAL), 8u);
 672              		.loc 1 451 0
 673 00d6 1E48     		ldr	r0, .L29+76
 674 00d8 1E49     		ldr	r1, .L29+80
 675 00da 0822     		movs	r2, #8
 676 00dc FFF7FEFF 		bl	CYCONFIGCPYCODE
 452:Generated_Source\PSoC5/cyfitter_cfg.c **** 	/* Switch Boost to the precision bandgap reference from its internal reference */
 453:Generated_Source\PSoC5/cyfitter_cfg.c **** 	CY_SET_REG8((void CYXDATA *)CYREG_BOOST_CR2, (CY_GET_REG8((void CYXDATA *)CYREG_BOOST_CR2) | 0x08u
 677              		.loc 1 453 0
 678 00e0 1D4A     		ldr	r2, .L29+84
 679 00e2 1D4B     		ldr	r3, .L29+84
ARM GAS  C:\Users\JOSANT~1\AppData\Local\Temp\cck6n6yz.s 			page 21


 680 00e4 1B78     		ldrb	r3, [r3]
 681 00e6 DBB2     		uxtb	r3, r3
 682 00e8 43F00803 		orr	r3, r3, #8
 683 00ec DBB2     		uxtb	r3, r3
 684 00ee 1370     		strb	r3, [r2]
 454:Generated_Source\PSoC5/cyfitter_cfg.c **** 
 455:Generated_Source\PSoC5/cyfitter_cfg.c **** 	/* Perform basic analog initialization to defaults */
 456:Generated_Source\PSoC5/cyfitter_cfg.c **** 	AnalogSetDefault();
 685              		.loc 1 456 0
 686 00f0 FFF7FEFF 		bl	AnalogSetDefault
 457:Generated_Source\PSoC5/cyfitter_cfg.c **** 
 458:Generated_Source\PSoC5/cyfitter_cfg.c **** 	/* Configure alternate active mode */
 459:Generated_Source\PSoC5/cyfitter_cfg.c **** 	CYCONFIGCPY((void CYFAR *)CYDEV_PM_STBY_BASE, (const void CYFAR *)CYDEV_PM_ACT_BASE, 14u);
 687              		.loc 1 459 0
 688 00f4 1948     		ldr	r0, .L29+88
 689 00f6 0C49     		ldr	r1, .L29+36
 690 00f8 0E22     		movs	r2, #14
 691 00fa FFF7FEFF 		bl	CYCONFIGCPY
 460:Generated_Source\PSoC5/cyfitter_cfg.c **** }
 692              		.loc 1 460 0
 693 00fe 0837     		adds	r7, r7, #8
 694              		.cfi_def_cfa_offset 8
 695 0100 BD46     		mov	sp, r7
 696              		.cfi_def_cfa_register 13
 697              		@ sp needed
 698 0102 80BD     		pop	{r7, pc}
 699              	.L30:
 700              		.align	2
 701              	.L29:
 702 0104 00480040 		.word	1073760256
 703 0108 E8460040 		.word	1073759976
 704 010c 00000000 		.word	cfg_memset_list.4847
 705 0110 30000000 		.word	cy_cfg_addr_table.4841
 706 0114 60000000 		.word	cy_cfg_data_table.4842
 707 0118 00760040 		.word	1073772032
 708 011c 08760040 		.word	1073772040
 709 0120 03500140 		.word	1073827843
 710 0124 13500140 		.word	1073827859
 711 0128 A0430040 		.word	1073759136
 712 012c C2430040 		.word	1073759170
 713 0130 02510040 		.word	1073762562
 714 0134 90000000 		.word	BS_IOPINS0_0_VAL.4836
 715 0138 F0510040 		.word	1073762800
 716 013c 98000000 		.word	BS_IOPINS0_8_VAL.4837
 717 0140 12510040 		.word	1073762578
 718 0144 A4000000 		.word	BS_IOPINS0_1_VAL.4838
 719 0148 22510040 		.word	1073762594
 720 014c AC000000 		.word	BS_IOPINS0_2_VAL.4839
 721 0150 42510040 		.word	1073762626
 722 0154 B4000000 		.word	BS_IOPINS0_4_VAL.4840
 723 0158 22430040 		.word	1073759010
 724 015c B0430040 		.word	1073759152
 725              		.cfi_endproc
 726              	.LFE8:
 727              		.size	cyfitter_cfg, .-cyfitter_cfg
 728              		.section	.rodata
 729              		.align	2
ARM GAS  C:\Users\JOSANT~1\AppData\Local\Temp\cck6n6yz.s 			page 22


 730              		.type	cfg_memset_list.4847, %object
 731              		.size	cfg_memset_list.4847, 48
 732              	cfg_memset_list.4847:
 733 0000 30510040 		.word	1073762608
 734 0004 1000     		.short	16
 735 0006 50510040 		.4byte	1073762640
 736 000a 2000     		.short	32
 737 000c C0510040 		.word	1073762752
 738 0010 1000     		.short	16
 739 0012 00000140 		.4byte	1073807360
 740 0016 0010     		.short	4096
 741 0018 00140140 		.word	1073812480
 742 001c 0008     		.short	2048
 743 001e 00400140 		.4byte	1073823744
 744 0022 000A     		.short	2560
 745 0024 004C0140 		.word	1073826816
 746 0028 0002     		.short	512
 747 002a 00500140 		.4byte	1073827840
 748 002e 2000     		.short	32
 749              		.align	2
 750              		.type	cy_cfg_addr_table.4841, %object
 751              		.size	cy_cfg_addr_table.4841, 48
 752              	cy_cfg_addr_table.4841:
 753 0030 01450040 		.word	1073759489
 754 0034 01520040 		.word	1073762817
 755 0038 01170140 		.word	1073813249
 756 003c 01190140 		.word	1073813761
 757 0040 04400140 		.word	1073823748
 758 0044 02410140 		.word	1073824002
 759 0048 02420140 		.word	1073824258
 760 004c 02430140 		.word	1073824514
 761 0050 02470140 		.word	1073825538
 762 0054 05480140 		.word	1073825797
 763 0058 014C0140 		.word	1073826817
 764 005c 02510140 		.word	1073828098
 765              		.align	2
 766              		.type	cy_cfg_data_table.4842, %object
 767              		.size	cy_cfg_data_table.4842, 48
 768              	cy_cfg_data_table.4842:
 769 0060 7E       		.byte	126
 770 0061 02       		.byte	2
 771 0062 7C       		.byte	124
 772 0063 40       		.byte	64
 773 0064 EE       		.byte	-18
 774 0065 02       		.byte	2
 775 0066 EE       		.byte	-18
 776 0067 02       		.byte	2
 777 0068 36       		.byte	54
 778 0069 40       		.byte	64
 779 006a 3D       		.byte	61
 780 006b 80       		.byte	-128
 781 006c CC       		.byte	-52
 782 006d 20       		.byte	32
 783 006e CE       		.byte	-50
 784 006f 20       		.byte	32
 785 0070 A5       		.byte	-91
 786 0071 40       		.byte	64
ARM GAS  C:\Users\JOSANT~1\AppData\Local\Temp\cck6n6yz.s 			page 23


 787 0072 A6       		.byte	-90
 788 0073 40       		.byte	64
 789 0074 A5       		.byte	-91
 790 0075 40       		.byte	64
 791 0076 A6       		.byte	-90
 792 0077 40       		.byte	64
 793 0078 A5       		.byte	-91
 794 0079 40       		.byte	64
 795 007a A6       		.byte	-90
 796 007b 40       		.byte	64
 797 007c 0F       		.byte	15
 798 007d 40       		.byte	64
 799 007e C2       		.byte	-62
 800 007f 04       		.byte	4
 801 0080 25       		.byte	37
 802 0081 40       		.byte	64
 803 0082 A5       		.byte	-91
 804 0083 40       		.byte	64
 805 0084 AE       		.byte	-82
 806 0085 40       		.byte	64
 807 0086 C8       		.byte	-56
 808 0087 20       		.byte	32
 809 0088 EE       		.byte	-18
 810 0089 40       		.byte	64
 811 008a AF       		.byte	-81
 812 008b 40       		.byte	64
 813 008c 00       		.byte	0
 814 008d 09       		.byte	9
 815 008e 10       		.byte	16
 816 008f 02       		.byte	2
 817              		.align	2
 818              		.type	BS_IOPINS0_0_VAL.4836, %object
 819              		.size	BS_IOPINS0_0_VAL.4836, 8
 820              	BS_IOPINS0_0_VAL.4836:
 821 0090 00       		.byte	0
 822 0091 01       		.byte	1
 823 0092 01       		.byte	1
 824 0093 00       		.byte	0
 825 0094 00       		.byte	0
 826 0095 00       		.byte	0
 827 0096 04       		.byte	4
 828 0097 00       		.byte	0
 829              		.align	2
 830              		.type	BS_IOPINS0_8_VAL.4837, %object
 831              		.size	BS_IOPINS0_8_VAL.4837, 10
 832              	BS_IOPINS0_8_VAL.4837:
 833 0098 00       		.byte	0
 834 0099 00       		.byte	0
 835 009a 00       		.byte	0
 836 009b 00       		.byte	0
 837 009c 00       		.byte	0
 838 009d 00       		.byte	0
 839 009e 00       		.byte	0
 840 009f 00       		.byte	0
 841 00a0 C0       		.byte	-64
 842 00a1 00       		.byte	0
 843 00a2 0000     		.align	2
ARM GAS  C:\Users\JOSANT~1\AppData\Local\Temp\cck6n6yz.s 			page 24


 844              		.type	BS_IOPINS0_1_VAL.4838, %object
 845              		.size	BS_IOPINS0_1_VAL.4838, 8
 846              	BS_IOPINS0_1_VAL.4838:
 847 00a4 00       		.byte	0
 848 00a5 0B       		.byte	11
 849 00a6 0B       		.byte	11
 850 00a7 00       		.byte	0
 851 00a8 00       		.byte	0
 852 00a9 00       		.byte	0
 853 00aa 00       		.byte	0
 854 00ab 00       		.byte	0
 855              		.align	2
 856              		.type	BS_IOPINS0_2_VAL.4839, %object
 857              		.size	BS_IOPINS0_2_VAL.4839, 8
 858              	BS_IOPINS0_2_VAL.4839:
 859 00ac 00       		.byte	0
 860 00ad 7F       		.byte	127
 861 00ae 7F       		.byte	127
 862 00af 00       		.byte	0
 863 00b0 00       		.byte	0
 864 00b1 00       		.byte	0
 865 00b2 00       		.byte	0
 866 00b3 00       		.byte	0
 867              		.align	2
 868              		.type	BS_IOPINS0_4_VAL.4840, %object
 869              		.size	BS_IOPINS0_4_VAL.4840, 8
 870              	BS_IOPINS0_4_VAL.4840:
 871 00b4 00       		.byte	0
 872 00b5 18       		.byte	24
 873 00b6 18       		.byte	24
 874 00b7 00       		.byte	0
 875 00b8 00       		.byte	0
 876 00b9 00       		.byte	0
 877 00ba 00       		.byte	0
 878 00bb 00       		.byte	0
 879              		.text
 880              	.Letext0:
 881              		.file 2 "c:\\program files (x86)\\cypress\\psoc creator\\4.0\\psoc creator\\import\\gnu\\arm\\4.9.
 882              		.file 3 "Generated_Source\\PSoC5\\cytypes.h"